
MS4525DO.elf:     file format elf32-littlearm

Sections:
Idx Name          Size      VMA       LMA       File off  Algn
  0 .isr_vector   0000010c  08000000  08000000  00001000  2**0
                  CONTENTS, ALLOC, LOAD, READONLY, DATA
  1 .text         00006518  08000110  08000110  00001110  2**3
                  CONTENTS, ALLOC, LOAD, READONLY, CODE
  2 .rodata       00000680  08006628  08006628  00007628  2**3
                  CONTENTS, ALLOC, LOAD, READONLY, DATA
  3 .ARM.extab    00000000  08006ca8  08006ca8  00008080  2**0
                  CONTENTS, READONLY
  4 .ARM          00000008  08006ca8  08006ca8  00007ca8  2**2
                  CONTENTS, ALLOC, LOAD, READONLY, DATA
  5 .preinit_array 00000000  08006cb0  08006cb0  00008080  2**0
                  CONTENTS, ALLOC, LOAD, DATA
  6 .init_array   00000004  08006cb0  08006cb0  00007cb0  2**2
                  CONTENTS, ALLOC, LOAD, READONLY, DATA
  7 .fini_array   00000004  08006cb4  08006cb4  00007cb4  2**2
                  CONTENTS, ALLOC, LOAD, READONLY, DATA
  8 .data         00000080  20000000  08006cb8  00008000  2**2
                  CONTENTS, ALLOC, LOAD, DATA
  9 .bss          00002530  20000080  08006d38  00008080  2**2
                  ALLOC
 10 ._user_heap_stack 00000600  200025b0  08006d38  000085b0  2**0
                  ALLOC
 11 .ARM.attributes 00000029  00000000  00000000  00008080  2**0
                  CONTENTS, READONLY
 12 .comment      00000043  00000000  00000000  000080a9  2**0
                  CONTENTS, READONLY
 13 .debug_frame  00000c5c  00000000  00000000  000080ec  2**2
                  CONTENTS, READONLY, DEBUGGING, OCTETS

Disassembly of section .text:

08000110 <__do_global_dtors_aux>:
 8000110:	b510      	push	{r4, lr}
 8000112:	4c05      	ldr	r4, [pc, #20]	@ (8000128 <__do_global_dtors_aux+0x18>)
 8000114:	7823      	ldrb	r3, [r4, #0]
 8000116:	b933      	cbnz	r3, 8000126 <__do_global_dtors_aux+0x16>
 8000118:	4b04      	ldr	r3, [pc, #16]	@ (800012c <__do_global_dtors_aux+0x1c>)
 800011a:	b113      	cbz	r3, 8000122 <__do_global_dtors_aux+0x12>
 800011c:	4804      	ldr	r0, [pc, #16]	@ (8000130 <__do_global_dtors_aux+0x20>)
 800011e:	f3af 8000 	nop.w
 8000122:	2301      	movs	r3, #1
 8000124:	7023      	strb	r3, [r4, #0]
 8000126:	bd10      	pop	{r4, pc}
 8000128:	20000080 	.word	0x20000080
 800012c:	00000000 	.word	0x00000000
 8000130:	08006610 	.word	0x08006610

08000134 <frame_dummy>:
 8000134:	b508      	push	{r3, lr}
 8000136:	4b03      	ldr	r3, [pc, #12]	@ (8000144 <frame_dummy+0x10>)
 8000138:	b11b      	cbz	r3, 8000142 <frame_dummy+0xe>
 800013a:	4903      	ldr	r1, [pc, #12]	@ (8000148 <frame_dummy+0x14>)
 800013c:	4803      	ldr	r0, [pc, #12]	@ (800014c <frame_dummy+0x18>)
 800013e:	f3af 8000 	nop.w
 8000142:	bd08      	pop	{r3, pc}
 8000144:	00000000 	.word	0x00000000
 8000148:	20000084 	.word	0x20000084
 800014c:	08006610 	.word	0x08006610

08000150 <strlen>:
 8000150:	4603      	mov	r3, r0
 8000152:	f813 2b01 	ldrb.w	r2, [r3], #1
 8000156:	2a00      	cmp	r2, #0
 8000158:	d1fb      	bne.n	8000152 <strlen+0x2>
 800015a:	1a18      	subs	r0, r3, r0
 800015c:	3801      	subs	r0, #1
 800015e:	4770      	bx	lr

08000160 <__aeabi_drsub>:
 8000160:	f081 4100 	eor.w	r1, r1, #2147483648	@ 0x80000000
 8000164:	e002      	b.n	800016c <__adddf3>
 8000166:	bf00      	nop

08000168 <__aeabi_dsub>:
 8000168:	f083 4300 	eor.w	r3, r3, #2147483648	@ 0x80000000

0800016c <__adddf3>:
 800016c:	b530      	push	{r4, r5, lr}
 800016e:	ea4f 0441 	mov.w	r4, r1, lsl #1
 8000172:	ea4f 0543 	mov.w	r5, r3, lsl #1
 8000176:	ea94 0f05 	teq	r4, r5
 800017a:	bf08      	it	eq
 800017c:	ea90 0f02 	teqeq	r0, r2
 8000180:	bf1f      	itttt	ne
 8000182:	ea54 0c00 	orrsne.w	ip, r4, r0
 8000186:	ea55 0c02 	orrsne.w	ip, r5, r2
 800018a:	ea7f 5c64 	mvnsne.w	ip, r4, asr #21
 800018e:	ea7f 5c65 	mvnsne.w	ip, r5, asr #21
 8000192:	f000 80e2 	beq.w	800035a <__adddf3+0x1ee>
 8000196:	ea4f 5454 	mov.w	r4, r4, lsr #21
 800019a:	ebd4 5555 	rsbs	r5, r4, r5, lsr #21
 800019e:	bfb8      	it	lt
 80001a0:	426d      	neglt	r5, r5
 80001a2:	dd0c      	ble.n	80001be <__adddf3+0x52>
 80001a4:	442c      	add	r4, r5
 80001a6:	ea80 0202 	eor.w	r2, r0, r2
 80001aa:	ea81 0303 	eor.w	r3, r1, r3
 80001ae:	ea82 0000 	eor.w	r0, r2, r0
 80001b2:	ea83 0101 	eor.w	r1, r3, r1
 80001b6:	ea80 0202 	eor.w	r2, r0, r2
 80001ba:	ea81 0303 	eor.w	r3, r1, r3
 80001be:	2d36      	cmp	r5, #54	@ 0x36
 80001c0:	bf88      	it	hi
 80001c2:	bd30      	pophi	{r4, r5, pc}
 80001c4:	f011 4f00 	tst.w	r1, #2147483648	@ 0x80000000
 80001c8:	ea4f 3101 	mov.w	r1, r1, lsl #12
 80001cc:	f44f 1c80 	mov.w	ip, #1048576	@ 0x100000
 80001d0:	ea4c 3111 	orr.w	r1, ip, r1, lsr #12
 80001d4:	d002      	beq.n	80001dc <__adddf3+0x70>
 80001d6:	4240      	negs	r0, r0
 80001d8:	eb61 0141 	sbc.w	r1, r1, r1, lsl #1
 80001dc:	f013 4f00 	tst.w	r3, #2147483648	@ 0x80000000
 80001e0:	ea4f 3303 	mov.w	r3, r3, lsl #12
 80001e4:	ea4c 3313 	orr.w	r3, ip, r3, lsr #12
 80001e8:	d002      	beq.n	80001f0 <__adddf3+0x84>
 80001ea:	4252      	negs	r2, r2
 80001ec:	eb63 0343 	sbc.w	r3, r3, r3, lsl #1
 80001f0:	ea94 0f05 	teq	r4, r5
 80001f4:	f000 80a7 	beq.w	8000346 <__adddf3+0x1da>
 80001f8:	f1a4 0401 	sub.w	r4, r4, #1
 80001fc:	f1d5 0e20 	rsbs	lr, r5, #32
 8000200:	db0d      	blt.n	800021e <__adddf3+0xb2>
 8000202:	fa02 fc0e 	lsl.w	ip, r2, lr
 8000206:	fa22 f205 	lsr.w	r2, r2, r5
 800020a:	1880      	adds	r0, r0, r2
 800020c:	f141 0100 	adc.w	r1, r1, #0
 8000210:	fa03 f20e 	lsl.w	r2, r3, lr
 8000214:	1880      	adds	r0, r0, r2
 8000216:	fa43 f305 	asr.w	r3, r3, r5
 800021a:	4159      	adcs	r1, r3
 800021c:	e00e      	b.n	800023c <__adddf3+0xd0>
 800021e:	f1a5 0520 	sub.w	r5, r5, #32
 8000222:	f10e 0e20 	add.w	lr, lr, #32
 8000226:	2a01      	cmp	r2, #1
 8000228:	fa03 fc0e 	lsl.w	ip, r3, lr
 800022c:	bf28      	it	cs
 800022e:	f04c 0c02 	orrcs.w	ip, ip, #2
 8000232:	fa43 f305 	asr.w	r3, r3, r5
 8000236:	18c0      	adds	r0, r0, r3
 8000238:	eb51 71e3 	adcs.w	r1, r1, r3, asr #31
 800023c:	f001 4500 	and.w	r5, r1, #2147483648	@ 0x80000000
 8000240:	d507      	bpl.n	8000252 <__adddf3+0xe6>
 8000242:	f04f 0e00 	mov.w	lr, #0
 8000246:	f1dc 0c00 	rsbs	ip, ip, #0
 800024a:	eb7e 0000 	sbcs.w	r0, lr, r0
 800024e:	eb6e 0101 	sbc.w	r1, lr, r1
 8000252:	f5b1 1f80 	cmp.w	r1, #1048576	@ 0x100000
 8000256:	d31b      	bcc.n	8000290 <__adddf3+0x124>
 8000258:	f5b1 1f00 	cmp.w	r1, #2097152	@ 0x200000
 800025c:	d30c      	bcc.n	8000278 <__adddf3+0x10c>
 800025e:	0849      	lsrs	r1, r1, #1
 8000260:	ea5f 0030 	movs.w	r0, r0, rrx
 8000264:	ea4f 0c3c 	mov.w	ip, ip, rrx
 8000268:	f104 0401 	add.w	r4, r4, #1
 800026c:	ea4f 5244 	mov.w	r2, r4, lsl #21
 8000270:	f512 0f80 	cmn.w	r2, #4194304	@ 0x400000
 8000274:	f080 809a 	bcs.w	80003ac <__adddf3+0x240>
 8000278:	f1bc 4f00 	cmp.w	ip, #2147483648	@ 0x80000000
 800027c:	bf08      	it	eq
 800027e:	ea5f 0c50 	movseq.w	ip, r0, lsr #1
 8000282:	f150 0000 	adcs.w	r0, r0, #0
 8000286:	eb41 5104 	adc.w	r1, r1, r4, lsl #20
 800028a:	ea41 0105 	orr.w	r1, r1, r5
 800028e:	bd30      	pop	{r4, r5, pc}
 8000290:	ea5f 0c4c 	movs.w	ip, ip, lsl #1
 8000294:	4140      	adcs	r0, r0
 8000296:	eb41 0101 	adc.w	r1, r1, r1
 800029a:	3c01      	subs	r4, #1
 800029c:	bf28      	it	cs
 800029e:	f5b1 1f80 	cmpcs.w	r1, #1048576	@ 0x100000
 80002a2:	d2e9      	bcs.n	8000278 <__adddf3+0x10c>
 80002a4:	f091 0f00 	teq	r1, #0
 80002a8:	bf04      	itt	eq
 80002aa:	4601      	moveq	r1, r0
 80002ac:	2000      	moveq	r0, #0
 80002ae:	fab1 f381 	clz	r3, r1
 80002b2:	bf08      	it	eq
 80002b4:	3320      	addeq	r3, #32
 80002b6:	f1a3 030b 	sub.w	r3, r3, #11
 80002ba:	f1b3 0220 	subs.w	r2, r3, #32
 80002be:	da0c      	bge.n	80002da <__adddf3+0x16e>
 80002c0:	320c      	adds	r2, #12
 80002c2:	dd08      	ble.n	80002d6 <__adddf3+0x16a>
 80002c4:	f102 0c14 	add.w	ip, r2, #20
 80002c8:	f1c2 020c 	rsb	r2, r2, #12
 80002cc:	fa01 f00c 	lsl.w	r0, r1, ip
 80002d0:	fa21 f102 	lsr.w	r1, r1, r2
 80002d4:	e00c      	b.n	80002f0 <__adddf3+0x184>
 80002d6:	f102 0214 	add.w	r2, r2, #20
 80002da:	bfd8      	it	le
 80002dc:	f1c2 0c20 	rsble	ip, r2, #32
 80002e0:	fa01 f102 	lsl.w	r1, r1, r2
 80002e4:	fa20 fc0c 	lsr.w	ip, r0, ip
 80002e8:	bfdc      	itt	le
 80002ea:	ea41 010c 	orrle.w	r1, r1, ip
 80002ee:	4090      	lslle	r0, r2
 80002f0:	1ae4      	subs	r4, r4, r3
 80002f2:	bfa2      	ittt	ge
 80002f4:	eb01 5104 	addge.w	r1, r1, r4, lsl #20
 80002f8:	4329      	orrge	r1, r5
 80002fa:	bd30      	popge	{r4, r5, pc}
 80002fc:	ea6f 0404 	mvn.w	r4, r4
 8000300:	3c1f      	subs	r4, #31
 8000302:	da1c      	bge.n	800033e <__adddf3+0x1d2>
 8000304:	340c      	adds	r4, #12
 8000306:	dc0e      	bgt.n	8000326 <__adddf3+0x1ba>
 8000308:	f104 0414 	add.w	r4, r4, #20
 800030c:	f1c4 0220 	rsb	r2, r4, #32
 8000310:	fa20 f004 	lsr.w	r0, r0, r4
 8000314:	fa01 f302 	lsl.w	r3, r1, r2
 8000318:	ea40 0003 	orr.w	r0, r0, r3
 800031c:	fa21 f304 	lsr.w	r3, r1, r4
 8000320:	ea45 0103 	orr.w	r1, r5, r3
 8000324:	bd30      	pop	{r4, r5, pc}
 8000326:	f1c4 040c 	rsb	r4, r4, #12
 800032a:	f1c4 0220 	rsb	r2, r4, #32
 800032e:	fa20 f002 	lsr.w	r0, r0, r2
 8000332:	fa01 f304 	lsl.w	r3, r1, r4
 8000336:	ea40 0003 	orr.w	r0, r0, r3
 800033a:	4629      	mov	r1, r5
 800033c:	bd30      	pop	{r4, r5, pc}
 800033e:	fa21 f004 	lsr.w	r0, r1, r4
 8000342:	4629      	mov	r1, r5
 8000344:	bd30      	pop	{r4, r5, pc}
 8000346:	f094 0f00 	teq	r4, #0
 800034a:	f483 1380 	eor.w	r3, r3, #1048576	@ 0x100000
 800034e:	bf06      	itte	eq
 8000350:	f481 1180 	eoreq.w	r1, r1, #1048576	@ 0x100000
 8000354:	3401      	addeq	r4, #1
 8000356:	3d01      	subne	r5, #1
 8000358:	e74e      	b.n	80001f8 <__adddf3+0x8c>
 800035a:	ea7f 5c64 	mvns.w	ip, r4, asr #21
 800035e:	bf18      	it	ne
 8000360:	ea7f 5c65 	mvnsne.w	ip, r5, asr #21
 8000364:	d029      	beq.n	80003ba <__adddf3+0x24e>
 8000366:	ea94 0f05 	teq	r4, r5
 800036a:	bf08      	it	eq
 800036c:	ea90 0f02 	teqeq	r0, r2
 8000370:	d005      	beq.n	800037e <__adddf3+0x212>
 8000372:	ea54 0c00 	orrs.w	ip, r4, r0
 8000376:	bf04      	itt	eq
 8000378:	4619      	moveq	r1, r3
 800037a:	4610      	moveq	r0, r2
 800037c:	bd30      	pop	{r4, r5, pc}
 800037e:	ea91 0f03 	teq	r1, r3
 8000382:	bf1e      	ittt	ne
 8000384:	2100      	movne	r1, #0
 8000386:	2000      	movne	r0, #0
 8000388:	bd30      	popne	{r4, r5, pc}
 800038a:	ea5f 5c54 	movs.w	ip, r4, lsr #21
 800038e:	d105      	bne.n	800039c <__adddf3+0x230>
 8000390:	0040      	lsls	r0, r0, #1
 8000392:	4149      	adcs	r1, r1
 8000394:	bf28      	it	cs
 8000396:	f041 4100 	orrcs.w	r1, r1, #2147483648	@ 0x80000000
 800039a:	bd30      	pop	{r4, r5, pc}
 800039c:	f514 0480 	adds.w	r4, r4, #4194304	@ 0x400000
 80003a0:	bf3c      	itt	cc
 80003a2:	f501 1180 	addcc.w	r1, r1, #1048576	@ 0x100000
 80003a6:	bd30      	popcc	{r4, r5, pc}
 80003a8:	f001 4500 	and.w	r5, r1, #2147483648	@ 0x80000000
 80003ac:	f045 41fe 	orr.w	r1, r5, #2130706432	@ 0x7f000000
 80003b0:	f441 0170 	orr.w	r1, r1, #15728640	@ 0xf00000
 80003b4:	f04f 0000 	mov.w	r0, #0
 80003b8:	bd30      	pop	{r4, r5, pc}
 80003ba:	ea7f 5c64 	mvns.w	ip, r4, asr #21
 80003be:	bf1a      	itte	ne
 80003c0:	4619      	movne	r1, r3
 80003c2:	4610      	movne	r0, r2
 80003c4:	ea7f 5c65 	mvnseq.w	ip, r5, asr #21
 80003c8:	bf1c      	itt	ne
 80003ca:	460b      	movne	r3, r1
 80003cc:	4602      	movne	r2, r0
 80003ce:	ea50 3401 	orrs.w	r4, r0, r1, lsl #12
 80003d2:	bf06      	itte	eq
 80003d4:	ea52 3503 	orrseq.w	r5, r2, r3, lsl #12
 80003d8:	ea91 0f03 	teqeq	r1, r3
 80003dc:	f441 2100 	orrne.w	r1, r1, #524288	@ 0x80000
 80003e0:	bd30      	pop	{r4, r5, pc}
 80003e2:	bf00      	nop

080003e4 <__aeabi_ui2d>:
 80003e4:	f090 0f00 	teq	r0, #0
 80003e8:	bf04      	itt	eq
 80003ea:	2100      	moveq	r1, #0
 80003ec:	4770      	bxeq	lr
 80003ee:	b530      	push	{r4, r5, lr}
 80003f0:	f44f 6480 	mov.w	r4, #1024	@ 0x400
 80003f4:	f104 0432 	add.w	r4, r4, #50	@ 0x32
 80003f8:	f04f 0500 	mov.w	r5, #0
 80003fc:	f04f 0100 	mov.w	r1, #0
 8000400:	e750      	b.n	80002a4 <__adddf3+0x138>
 8000402:	bf00      	nop

08000404 <__aeabi_i2d>:
 8000404:	f090 0f00 	teq	r0, #0
 8000408:	bf04      	itt	eq
 800040a:	2100      	moveq	r1, #0
 800040c:	4770      	bxeq	lr
 800040e:	b530      	push	{r4, r5, lr}
 8000410:	f44f 6480 	mov.w	r4, #1024	@ 0x400
 8000414:	f104 0432 	add.w	r4, r4, #50	@ 0x32
 8000418:	f010 4500 	ands.w	r5, r0, #2147483648	@ 0x80000000
 800041c:	bf48      	it	mi
 800041e:	4240      	negmi	r0, r0
 8000420:	f04f 0100 	mov.w	r1, #0
 8000424:	e73e      	b.n	80002a4 <__adddf3+0x138>
 8000426:	bf00      	nop

08000428 <__aeabi_f2d>:
 8000428:	0042      	lsls	r2, r0, #1
 800042a:	ea4f 01e2 	mov.w	r1, r2, asr #3
 800042e:	ea4f 0131 	mov.w	r1, r1, rrx
 8000432:	ea4f 7002 	mov.w	r0, r2, lsl #28
 8000436:	bf1f      	itttt	ne
 8000438:	f012 437f 	andsne.w	r3, r2, #4278190080	@ 0xff000000
 800043c:	f093 4f7f 	teqne	r3, #4278190080	@ 0xff000000
 8000440:	f081 5160 	eorne.w	r1, r1, #939524096	@ 0x38000000
 8000444:	4770      	bxne	lr
 8000446:	f032 427f 	bics.w	r2, r2, #4278190080	@ 0xff000000
 800044a:	bf08      	it	eq
 800044c:	4770      	bxeq	lr
 800044e:	f093 4f7f 	teq	r3, #4278190080	@ 0xff000000
 8000452:	bf04      	itt	eq
 8000454:	f441 2100 	orreq.w	r1, r1, #524288	@ 0x80000
 8000458:	4770      	bxeq	lr
 800045a:	b530      	push	{r4, r5, lr}
 800045c:	f44f 7460 	mov.w	r4, #896	@ 0x380
 8000460:	f001 4500 	and.w	r5, r1, #2147483648	@ 0x80000000
 8000464:	f021 4100 	bic.w	r1, r1, #2147483648	@ 0x80000000
 8000468:	e71c      	b.n	80002a4 <__adddf3+0x138>
 800046a:	bf00      	nop

0800046c <__aeabi_ul2d>:
 800046c:	ea50 0201 	orrs.w	r2, r0, r1
 8000470:	bf08      	it	eq
 8000472:	4770      	bxeq	lr
 8000474:	b530      	push	{r4, r5, lr}
 8000476:	f04f 0500 	mov.w	r5, #0
 800047a:	e00a      	b.n	8000492 <__aeabi_l2d+0x16>

0800047c <__aeabi_l2d>:
 800047c:	ea50 0201 	orrs.w	r2, r0, r1
 8000480:	bf08      	it	eq
 8000482:	4770      	bxeq	lr
 8000484:	b530      	push	{r4, r5, lr}
 8000486:	f011 4500 	ands.w	r5, r1, #2147483648	@ 0x80000000
 800048a:	d502      	bpl.n	8000492 <__aeabi_l2d+0x16>
 800048c:	4240      	negs	r0, r0
 800048e:	eb61 0141 	sbc.w	r1, r1, r1, lsl #1
 8000492:	f44f 6480 	mov.w	r4, #1024	@ 0x400
 8000496:	f104 0432 	add.w	r4, r4, #50	@ 0x32
 800049a:	ea5f 5c91 	movs.w	ip, r1, lsr #22
 800049e:	f43f aed8 	beq.w	8000252 <__adddf3+0xe6>
 80004a2:	f04f 0203 	mov.w	r2, #3
 80004a6:	ea5f 0cdc 	movs.w	ip, ip, lsr #3
 80004aa:	bf18      	it	ne
 80004ac:	3203      	addne	r2, #3
 80004ae:	ea5f 0cdc 	movs.w	ip, ip, lsr #3
 80004b2:	bf18      	it	ne
 80004b4:	3203      	addne	r2, #3
 80004b6:	eb02 02dc 	add.w	r2, r2, ip, lsr #3
 80004ba:	f1c2 0320 	rsb	r3, r2, #32
 80004be:	fa00 fc03 	lsl.w	ip, r0, r3
 80004c2:	fa20 f002 	lsr.w	r0, r0, r2
 80004c6:	fa01 fe03 	lsl.w	lr, r1, r3
 80004ca:	ea40 000e 	orr.w	r0, r0, lr
 80004ce:	fa21 f102 	lsr.w	r1, r1, r2
 80004d2:	4414      	add	r4, r2
 80004d4:	e6bd      	b.n	8000252 <__adddf3+0xe6>
 80004d6:	bf00      	nop

080004d8 <__aeabi_dmul>:
 80004d8:	b570      	push	{r4, r5, r6, lr}
 80004da:	f04f 0cff 	mov.w	ip, #255	@ 0xff
 80004de:	f44c 6ce0 	orr.w	ip, ip, #1792	@ 0x700
 80004e2:	ea1c 5411 	ands.w	r4, ip, r1, lsr #20
 80004e6:	bf1d      	ittte	ne
 80004e8:	ea1c 5513 	andsne.w	r5, ip, r3, lsr #20
 80004ec:	ea94 0f0c 	teqne	r4, ip
 80004f0:	ea95 0f0c 	teqne	r5, ip
 80004f4:	f000 f8de 	bleq	80006b4 <__aeabi_dmul+0x1dc>
 80004f8:	442c      	add	r4, r5
 80004fa:	ea81 0603 	eor.w	r6, r1, r3
 80004fe:	ea21 514c 	bic.w	r1, r1, ip, lsl #21
 8000502:	ea23 534c 	bic.w	r3, r3, ip, lsl #21
 8000506:	ea50 3501 	orrs.w	r5, r0, r1, lsl #12
 800050a:	bf18      	it	ne
 800050c:	ea52 3503 	orrsne.w	r5, r2, r3, lsl #12
 8000510:	f441 1180 	orr.w	r1, r1, #1048576	@ 0x100000
 8000514:	f443 1380 	orr.w	r3, r3, #1048576	@ 0x100000
 8000518:	d038      	beq.n	800058c <__aeabi_dmul+0xb4>
 800051a:	fba0 ce02 	umull	ip, lr, r0, r2
 800051e:	f04f 0500 	mov.w	r5, #0
 8000522:	fbe1 e502 	umlal	lr, r5, r1, r2
 8000526:	f006 4200 	and.w	r2, r6, #2147483648	@ 0x80000000
 800052a:	fbe0 e503 	umlal	lr, r5, r0, r3
 800052e:	f04f 0600 	mov.w	r6, #0
 8000532:	fbe1 5603 	umlal	r5, r6, r1, r3
 8000536:	f09c 0f00 	teq	ip, #0
 800053a:	bf18      	it	ne
 800053c:	f04e 0e01 	orrne.w	lr, lr, #1
 8000540:	f1a4 04ff 	sub.w	r4, r4, #255	@ 0xff
 8000544:	f5b6 7f00 	cmp.w	r6, #512	@ 0x200
 8000548:	f564 7440 	sbc.w	r4, r4, #768	@ 0x300
 800054c:	d204      	bcs.n	8000558 <__aeabi_dmul+0x80>
 800054e:	ea5f 0e4e 	movs.w	lr, lr, lsl #1
 8000552:	416d      	adcs	r5, r5
 8000554:	eb46 0606 	adc.w	r6, r6, r6
 8000558:	ea42 21c6 	orr.w	r1, r2, r6, lsl #11
 800055c:	ea41 5155 	orr.w	r1, r1, r5, lsr #21
 8000560:	ea4f 20c5 	mov.w	r0, r5, lsl #11
 8000564:	ea40 505e 	orr.w	r0, r0, lr, lsr #21
 8000568:	ea4f 2ece 	mov.w	lr, lr, lsl #11
 800056c:	f1b4 0cfd 	subs.w	ip, r4, #253	@ 0xfd
 8000570:	bf88      	it	hi
 8000572:	f5bc 6fe0 	cmphi.w	ip, #1792	@ 0x700
 8000576:	d81e      	bhi.n	80005b6 <__aeabi_dmul+0xde>
 8000578:	f1be 4f00 	cmp.w	lr, #2147483648	@ 0x80000000
 800057c:	bf08      	it	eq
 800057e:	ea5f 0e50 	movseq.w	lr, r0, lsr #1
 8000582:	f150 0000 	adcs.w	r0, r0, #0
 8000586:	eb41 5104 	adc.w	r1, r1, r4, lsl #20
 800058a:	bd70      	pop	{r4, r5, r6, pc}
 800058c:	f006 4600 	and.w	r6, r6, #2147483648	@ 0x80000000
 8000590:	ea46 0101 	orr.w	r1, r6, r1
 8000594:	ea40 0002 	orr.w	r0, r0, r2
 8000598:	ea81 0103 	eor.w	r1, r1, r3
 800059c:	ebb4 045c 	subs.w	r4, r4, ip, lsr #1
 80005a0:	bfc2      	ittt	gt
 80005a2:	ebd4 050c 	rsbsgt	r5, r4, ip
 80005a6:	ea41 5104 	orrgt.w	r1, r1, r4, lsl #20
 80005aa:	bd70      	popgt	{r4, r5, r6, pc}
 80005ac:	f441 1180 	orr.w	r1, r1, #1048576	@ 0x100000
 80005b0:	f04f 0e00 	mov.w	lr, #0
 80005b4:	3c01      	subs	r4, #1
 80005b6:	f300 80ab 	bgt.w	8000710 <__aeabi_dmul+0x238>
 80005ba:	f114 0f36 	cmn.w	r4, #54	@ 0x36
 80005be:	bfde      	ittt	le
 80005c0:	2000      	movle	r0, #0
 80005c2:	f001 4100 	andle.w	r1, r1, #2147483648	@ 0x80000000
 80005c6:	bd70      	pople	{r4, r5, r6, pc}
 80005c8:	f1c4 0400 	rsb	r4, r4, #0
 80005cc:	3c20      	subs	r4, #32
 80005ce:	da35      	bge.n	800063c <__aeabi_dmul+0x164>
 80005d0:	340c      	adds	r4, #12
 80005d2:	dc1b      	bgt.n	800060c <__aeabi_dmul+0x134>
 80005d4:	f104 0414 	add.w	r4, r4, #20
 80005d8:	f1c4 0520 	rsb	r5, r4, #32
 80005dc:	fa00 f305 	lsl.w	r3, r0, r5
 80005e0:	fa20 f004 	lsr.w	r0, r0, r4
 80005e4:	fa01 f205 	lsl.w	r2, r1, r5
 80005e8:	ea40 0002 	orr.w	r0, r0, r2
 80005ec:	f001 4200 	and.w	r2, r1, #2147483648	@ 0x80000000
 80005f0:	f021 4100 	bic.w	r1, r1, #2147483648	@ 0x80000000
 80005f4:	eb10 70d3 	adds.w	r0, r0, r3, lsr #31
 80005f8:	fa21 f604 	lsr.w	r6, r1, r4
 80005fc:	eb42 0106 	adc.w	r1, r2, r6
 8000600:	ea5e 0e43 	orrs.w	lr, lr, r3, lsl #1
 8000604:	bf08      	it	eq
 8000606:	ea20 70d3 	biceq.w	r0, r0, r3, lsr #31
 800060a:	bd70      	pop	{r4, r5, r6, pc}
 800060c:	f1c4 040c 	rsb	r4, r4, #12
 8000610:	f1c4 0520 	rsb	r5, r4, #32
 8000614:	fa00 f304 	lsl.w	r3, r0, r4
 8000618:	fa20 f005 	lsr.w	r0, r0, r5
 800061c:	fa01 f204 	lsl.w	r2, r1, r4
 8000620:	ea40 0002 	orr.w	r0, r0, r2
 8000624:	f001 4100 	and.w	r1, r1, #2147483648	@ 0x80000000
 8000628:	eb10 70d3 	adds.w	r0, r0, r3, lsr #31
 800062c:	f141 0100 	adc.w	r1, r1, #0
 8000630:	ea5e 0e43 	orrs.w	lr, lr, r3, lsl #1
 8000634:	bf08      	it	eq
 8000636:	ea20 70d3 	biceq.w	r0, r0, r3, lsr #31
 800063a:	bd70      	pop	{r4, r5, r6, pc}
 800063c:	f1c4 0520 	rsb	r5, r4, #32
 8000640:	fa00 f205 	lsl.w	r2, r0, r5
 8000644:	ea4e 0e02 	orr.w	lr, lr, r2
 8000648:	fa20 f304 	lsr.w	r3, r0, r4
 800064c:	fa01 f205 	lsl.w	r2, r1, r5
 8000650:	ea43 0302 	orr.w	r3, r3, r2
 8000654:	fa21 f004 	lsr.w	r0, r1, r4
 8000658:	f001 4100 	and.w	r1, r1, #2147483648	@ 0x80000000
 800065c:	fa21 f204 	lsr.w	r2, r1, r4
 8000660:	ea20 0002 	bic.w	r0, r0, r2
 8000664:	eb00 70d3 	add.w	r0, r0, r3, lsr #31
 8000668:	ea5e 0e43 	orrs.w	lr, lr, r3, lsl #1
 800066c:	bf08      	it	eq
 800066e:	ea20 70d3 	biceq.w	r0, r0, r3, lsr #31
 8000672:	bd70      	pop	{r4, r5, r6, pc}
 8000674:	f094 0f00 	teq	r4, #0
 8000678:	d10f      	bne.n	800069a <__aeabi_dmul+0x1c2>
 800067a:	f001 4600 	and.w	r6, r1, #2147483648	@ 0x80000000
 800067e:	0040      	lsls	r0, r0, #1
 8000680:	eb41 0101 	adc.w	r1, r1, r1
 8000684:	f411 1f80 	tst.w	r1, #1048576	@ 0x100000
 8000688:	bf08      	it	eq
 800068a:	3c01      	subeq	r4, #1
 800068c:	d0f7      	beq.n	800067e <__aeabi_dmul+0x1a6>
 800068e:	ea41 0106 	orr.w	r1, r1, r6
 8000692:	f095 0f00 	teq	r5, #0
 8000696:	bf18      	it	ne
 8000698:	4770      	bxne	lr
 800069a:	f003 4600 	and.w	r6, r3, #2147483648	@ 0x80000000
 800069e:	0052      	lsls	r2, r2, #1
 80006a0:	eb43 0303 	adc.w	r3, r3, r3
 80006a4:	f413 1f80 	tst.w	r3, #1048576	@ 0x100000
 80006a8:	bf08      	it	eq
 80006aa:	3d01      	subeq	r5, #1
 80006ac:	d0f7      	beq.n	800069e <__aeabi_dmul+0x1c6>
 80006ae:	ea43 0306 	orr.w	r3, r3, r6
 80006b2:	4770      	bx	lr
 80006b4:	ea94 0f0c 	teq	r4, ip
 80006b8:	ea0c 5513 	and.w	r5, ip, r3, lsr #20
 80006bc:	bf18      	it	ne
 80006be:	ea95 0f0c 	teqne	r5, ip
 80006c2:	d00c      	beq.n	80006de <__aeabi_dmul+0x206>
 80006c4:	ea50 0641 	orrs.w	r6, r0, r1, lsl #1
 80006c8:	bf18      	it	ne
 80006ca:	ea52 0643 	orrsne.w	r6, r2, r3, lsl #1
 80006ce:	d1d1      	bne.n	8000674 <__aeabi_dmul+0x19c>
 80006d0:	ea81 0103 	eor.w	r1, r1, r3
 80006d4:	f001 4100 	and.w	r1, r1, #2147483648	@ 0x80000000
 80006d8:	f04f 0000 	mov.w	r0, #0
 80006dc:	bd70      	pop	{r4, r5, r6, pc}
 80006de:	ea50 0641 	orrs.w	r6, r0, r1, lsl #1
 80006e2:	bf06      	itte	eq
 80006e4:	4610      	moveq	r0, r2
 80006e6:	4619      	moveq	r1, r3
 80006e8:	ea52 0643 	orrsne.w	r6, r2, r3, lsl #1
 80006ec:	d019      	beq.n	8000722 <__aeabi_dmul+0x24a>
 80006ee:	ea94 0f0c 	teq	r4, ip
 80006f2:	d102      	bne.n	80006fa <__aeabi_dmul+0x222>
 80006f4:	ea50 3601 	orrs.w	r6, r0, r1, lsl #12
 80006f8:	d113      	bne.n	8000722 <__aeabi_dmul+0x24a>
 80006fa:	ea95 0f0c 	teq	r5, ip
 80006fe:	d105      	bne.n	800070c <__aeabi_dmul+0x234>
 8000700:	ea52 3603 	orrs.w	r6, r2, r3, lsl #12
 8000704:	bf1c      	itt	ne
 8000706:	4610      	movne	r0, r2
 8000708:	4619      	movne	r1, r3
 800070a:	d10a      	bne.n	8000722 <__aeabi_dmul+0x24a>
 800070c:	ea81 0103 	eor.w	r1, r1, r3
 8000710:	f001 4100 	and.w	r1, r1, #2147483648	@ 0x80000000
 8000714:	f041 41fe 	orr.w	r1, r1, #2130706432	@ 0x7f000000
 8000718:	f441 0170 	orr.w	r1, r1, #15728640	@ 0xf00000
 800071c:	f04f 0000 	mov.w	r0, #0
 8000720:	bd70      	pop	{r4, r5, r6, pc}
 8000722:	f041 41fe 	orr.w	r1, r1, #2130706432	@ 0x7f000000
 8000726:	f441 0178 	orr.w	r1, r1, #16252928	@ 0xf80000
 800072a:	bd70      	pop	{r4, r5, r6, pc}

0800072c <__aeabi_ddiv>:
 800072c:	b570      	push	{r4, r5, r6, lr}
 800072e:	f04f 0cff 	mov.w	ip, #255	@ 0xff
 8000732:	f44c 6ce0 	orr.w	ip, ip, #1792	@ 0x700
 8000736:	ea1c 5411 	ands.w	r4, ip, r1, lsr #20
 800073a:	bf1d      	ittte	ne
 800073c:	ea1c 5513 	andsne.w	r5, ip, r3, lsr #20
 8000740:	ea94 0f0c 	teqne	r4, ip
 8000744:	ea95 0f0c 	teqne	r5, ip
 8000748:	f000 f8a7 	bleq	800089a <__aeabi_ddiv+0x16e>
 800074c:	eba4 0405 	sub.w	r4, r4, r5
 8000750:	ea81 0e03 	eor.w	lr, r1, r3
 8000754:	ea52 3503 	orrs.w	r5, r2, r3, lsl #12
 8000758:	ea4f 3101 	mov.w	r1, r1, lsl #12
 800075c:	f000 8088 	beq.w	8000870 <__aeabi_ddiv+0x144>
 8000760:	ea4f 3303 	mov.w	r3, r3, lsl #12
 8000764:	f04f 5580 	mov.w	r5, #268435456	@ 0x10000000
 8000768:	ea45 1313 	orr.w	r3, r5, r3, lsr #4
 800076c:	ea43 6312 	orr.w	r3, r3, r2, lsr #24
 8000770:	ea4f 2202 	mov.w	r2, r2, lsl #8
 8000774:	ea45 1511 	orr.w	r5, r5, r1, lsr #4
 8000778:	ea45 6510 	orr.w	r5, r5, r0, lsr #24
 800077c:	ea4f 2600 	mov.w	r6, r0, lsl #8
 8000780:	f00e 4100 	and.w	r1, lr, #2147483648	@ 0x80000000
 8000784:	429d      	cmp	r5, r3
 8000786:	bf08      	it	eq
 8000788:	4296      	cmpeq	r6, r2
 800078a:	f144 04fd 	adc.w	r4, r4, #253	@ 0xfd
 800078e:	f504 7440 	add.w	r4, r4, #768	@ 0x300
 8000792:	d202      	bcs.n	800079a <__aeabi_ddiv+0x6e>
 8000794:	085b      	lsrs	r3, r3, #1
 8000796:	ea4f 0232 	mov.w	r2, r2, rrx
 800079a:	1ab6      	subs	r6, r6, r2
 800079c:	eb65 0503 	sbc.w	r5, r5, r3
 80007a0:	085b      	lsrs	r3, r3, #1
 80007a2:	ea4f 0232 	mov.w	r2, r2, rrx
 80007a6:	f44f 1080 	mov.w	r0, #1048576	@ 0x100000
 80007aa:	f44f 2c00 	mov.w	ip, #524288	@ 0x80000
 80007ae:	ebb6 0e02 	subs.w	lr, r6, r2
 80007b2:	eb75 0e03 	sbcs.w	lr, r5, r3
 80007b6:	bf22      	ittt	cs
 80007b8:	1ab6      	subcs	r6, r6, r2
 80007ba:	4675      	movcs	r5, lr
 80007bc:	ea40 000c 	orrcs.w	r0, r0, ip
 80007c0:	085b      	lsrs	r3, r3, #1
 80007c2:	ea4f 0232 	mov.w	r2, r2, rrx
 80007c6:	ebb6 0e02 	subs.w	lr, r6, r2
 80007ca:	eb75 0e03 	sbcs.w	lr, r5, r3
 80007ce:	bf22      	ittt	cs
 80007d0:	1ab6      	subcs	r6, r6, r2
 80007d2:	4675      	movcs	r5, lr
 80007d4:	ea40 005c 	orrcs.w	r0, r0, ip, lsr #1
 80007d8:	085b      	lsrs	r3, r3, #1
 80007da:	ea4f 0232 	mov.w	r2, r2, rrx
 80007de:	ebb6 0e02 	subs.w	lr, r6, r2
 80007e2:	eb75 0e03 	sbcs.w	lr, r5, r3
 80007e6:	bf22      	ittt	cs
 80007e8:	1ab6      	subcs	r6, r6, r2
 80007ea:	4675      	movcs	r5, lr
 80007ec:	ea40 009c 	orrcs.w	r0, r0, ip, lsr #2
 80007f0:	085b      	lsrs	r3, r3, #1
 80007f2:	ea4f 0232 	mov.w	r2, r2, rrx
 80007f6:	ebb6 0e02 	subs.w	lr, r6, r2
 80007fa:	eb75 0e03 	sbcs.w	lr, r5, r3
 80007fe:	bf22      	ittt	cs
 8000800:	1ab6      	subcs	r6, r6, r2
 8000802:	4675      	movcs	r5, lr
 8000804:	ea40 00dc 	orrcs.w	r0, r0, ip, lsr #3
 8000808:	ea55 0e06 	orrs.w	lr, r5, r6
 800080c:	d018      	beq.n	8000840 <__aeabi_ddiv+0x114>
 800080e:	ea4f 1505 	mov.w	r5, r5, lsl #4
 8000812:	ea45 7516 	orr.w	r5, r5, r6, lsr #28
 8000816:	ea4f 1606 	mov.w	r6, r6, lsl #4
 800081a:	ea4f 03c3 	mov.w	r3, r3, lsl #3
 800081e:	ea43 7352 	orr.w	r3, r3, r2, lsr #29
 8000822:	ea4f 02c2 	mov.w	r2, r2, lsl #3
 8000826:	ea5f 1c1c 	movs.w	ip, ip, lsr #4
 800082a:	d1c0      	bne.n	80007ae <__aeabi_ddiv+0x82>
 800082c:	f411 1f80 	tst.w	r1, #1048576	@ 0x100000
 8000830:	d10b      	bne.n	800084a <__aeabi_ddiv+0x11e>
 8000832:	ea41 0100 	orr.w	r1, r1, r0
 8000836:	f04f 0000 	mov.w	r0, #0
 800083a:	f04f 4c00 	mov.w	ip, #2147483648	@ 0x80000000
 800083e:	e7b6      	b.n	80007ae <__aeabi_ddiv+0x82>
 8000840:	f411 1f80 	tst.w	r1, #1048576	@ 0x100000
 8000844:	bf04      	itt	eq
 8000846:	4301      	orreq	r1, r0
 8000848:	2000      	moveq	r0, #0
 800084a:	f1b4 0cfd 	subs.w	ip, r4, #253	@ 0xfd
 800084e:	bf88      	it	hi
 8000850:	f5bc 6fe0 	cmphi.w	ip, #1792	@ 0x700
 8000854:	f63f aeaf 	bhi.w	80005b6 <__aeabi_dmul+0xde>
 8000858:	ebb5 0c03 	subs.w	ip, r5, r3
 800085c:	bf04      	itt	eq
 800085e:	ebb6 0c02 	subseq.w	ip, r6, r2
 8000862:	ea5f 0c50 	movseq.w	ip, r0, lsr #1
 8000866:	f150 0000 	adcs.w	r0, r0, #0
 800086a:	eb41 5104 	adc.w	r1, r1, r4, lsl #20
 800086e:	bd70      	pop	{r4, r5, r6, pc}
 8000870:	f00e 4e00 	and.w	lr, lr, #2147483648	@ 0x80000000
 8000874:	ea4e 3111 	orr.w	r1, lr, r1, lsr #12
 8000878:	eb14 045c 	adds.w	r4, r4, ip, lsr #1
 800087c:	bfc2      	ittt	gt
 800087e:	ebd4 050c 	rsbsgt	r5, r4, ip
 8000882:	ea41 5104 	orrgt.w	r1, r1, r4, lsl #20
 8000886:	bd70      	popgt	{r4, r5, r6, pc}
 8000888:	f441 1180 	orr.w	r1, r1, #1048576	@ 0x100000
 800088c:	f04f 0e00 	mov.w	lr, #0
 8000890:	3c01      	subs	r4, #1
 8000892:	e690      	b.n	80005b6 <__aeabi_dmul+0xde>
 8000894:	ea45 0e06 	orr.w	lr, r5, r6
 8000898:	e68d      	b.n	80005b6 <__aeabi_dmul+0xde>
 800089a:	ea0c 5513 	and.w	r5, ip, r3, lsr #20
 800089e:	ea94 0f0c 	teq	r4, ip
 80008a2:	bf08      	it	eq
 80008a4:	ea95 0f0c 	teqeq	r5, ip
 80008a8:	f43f af3b 	beq.w	8000722 <__aeabi_dmul+0x24a>
 80008ac:	ea94 0f0c 	teq	r4, ip
 80008b0:	d10a      	bne.n	80008c8 <__aeabi_ddiv+0x19c>
 80008b2:	ea50 3401 	orrs.w	r4, r0, r1, lsl #12
 80008b6:	f47f af34 	bne.w	8000722 <__aeabi_dmul+0x24a>
 80008ba:	ea95 0f0c 	teq	r5, ip
 80008be:	f47f af25 	bne.w	800070c <__aeabi_dmul+0x234>
 80008c2:	4610      	mov	r0, r2
 80008c4:	4619      	mov	r1, r3
 80008c6:	e72c      	b.n	8000722 <__aeabi_dmul+0x24a>
 80008c8:	ea95 0f0c 	teq	r5, ip
 80008cc:	d106      	bne.n	80008dc <__aeabi_ddiv+0x1b0>
 80008ce:	ea52 3503 	orrs.w	r5, r2, r3, lsl #12
 80008d2:	f43f aefd 	beq.w	80006d0 <__aeabi_dmul+0x1f8>
 80008d6:	4610      	mov	r0, r2
 80008d8:	4619      	mov	r1, r3
 80008da:	e722      	b.n	8000722 <__aeabi_dmul+0x24a>
 80008dc:	ea50 0641 	orrs.w	r6, r0, r1, lsl #1
 80008e0:	bf18      	it	ne
 80008e2:	ea52 0643 	orrsne.w	r6, r2, r3, lsl #1
 80008e6:	f47f aec5 	bne.w	8000674 <__aeabi_dmul+0x19c>
 80008ea:	ea50 0441 	orrs.w	r4, r0, r1, lsl #1
 80008ee:	f47f af0d 	bne.w	800070c <__aeabi_dmul+0x234>
 80008f2:	ea52 0543 	orrs.w	r5, r2, r3, lsl #1
 80008f6:	f47f aeeb 	bne.w	80006d0 <__aeabi_dmul+0x1f8>
 80008fa:	e712      	b.n	8000722 <__aeabi_dmul+0x24a>

080008fc <__gedf2>:
 80008fc:	f04f 3cff 	mov.w	ip, #4294967295
 8000900:	e006      	b.n	8000910 <__cmpdf2+0x4>
 8000902:	bf00      	nop

08000904 <__ledf2>:
 8000904:	f04f 0c01 	mov.w	ip, #1
 8000908:	e002      	b.n	8000910 <__cmpdf2+0x4>
 800090a:	bf00      	nop

0800090c <__cmpdf2>:
 800090c:	f04f 0c01 	mov.w	ip, #1
 8000910:	f84d cd04 	str.w	ip, [sp, #-4]!
 8000914:	ea4f 0c41 	mov.w	ip, r1, lsl #1
 8000918:	ea7f 5c6c 	mvns.w	ip, ip, asr #21
 800091c:	ea4f 0c43 	mov.w	ip, r3, lsl #1
 8000920:	bf18      	it	ne
 8000922:	ea7f 5c6c 	mvnsne.w	ip, ip, asr #21
 8000926:	d01b      	beq.n	8000960 <__cmpdf2+0x54>
 8000928:	b001      	add	sp, #4
 800092a:	ea50 0c41 	orrs.w	ip, r0, r1, lsl #1
 800092e:	bf0c      	ite	eq
 8000930:	ea52 0c43 	orrseq.w	ip, r2, r3, lsl #1
 8000934:	ea91 0f03 	teqne	r1, r3
 8000938:	bf02      	ittt	eq
 800093a:	ea90 0f02 	teqeq	r0, r2
 800093e:	2000      	moveq	r0, #0
 8000940:	4770      	bxeq	lr
 8000942:	f110 0f00 	cmn.w	r0, #0
 8000946:	ea91 0f03 	teq	r1, r3
 800094a:	bf58      	it	pl
 800094c:	4299      	cmppl	r1, r3
 800094e:	bf08      	it	eq
 8000950:	4290      	cmpeq	r0, r2
 8000952:	bf2c      	ite	cs
 8000954:	17d8      	asrcs	r0, r3, #31
 8000956:	ea6f 70e3 	mvncc.w	r0, r3, asr #31
 800095a:	f040 0001 	orr.w	r0, r0, #1
 800095e:	4770      	bx	lr
 8000960:	ea4f 0c41 	mov.w	ip, r1, lsl #1
 8000964:	ea7f 5c6c 	mvns.w	ip, ip, asr #21
 8000968:	d102      	bne.n	8000970 <__cmpdf2+0x64>
 800096a:	ea50 3c01 	orrs.w	ip, r0, r1, lsl #12
 800096e:	d107      	bne.n	8000980 <__cmpdf2+0x74>
 8000970:	ea4f 0c43 	mov.w	ip, r3, lsl #1
 8000974:	ea7f 5c6c 	mvns.w	ip, ip, asr #21
 8000978:	d1d6      	bne.n	8000928 <__cmpdf2+0x1c>
 800097a:	ea52 3c03 	orrs.w	ip, r2, r3, lsl #12
 800097e:	d0d3      	beq.n	8000928 <__cmpdf2+0x1c>
 8000980:	f85d 0b04 	ldr.w	r0, [sp], #4
 8000984:	4770      	bx	lr
 8000986:	bf00      	nop

08000988 <__aeabi_cdrcmple>:
 8000988:	4684      	mov	ip, r0
 800098a:	4610      	mov	r0, r2
 800098c:	4662      	mov	r2, ip
 800098e:	468c      	mov	ip, r1
 8000990:	4619      	mov	r1, r3
 8000992:	4663      	mov	r3, ip
 8000994:	e000      	b.n	8000998 <__aeabi_cdcmpeq>
 8000996:	bf00      	nop

08000998 <__aeabi_cdcmpeq>:
 8000998:	b501      	push	{r0, lr}
 800099a:	f7ff ffb7 	bl	800090c <__cmpdf2>
 800099e:	2800      	cmp	r0, #0
 80009a0:	bf48      	it	mi
 80009a2:	f110 0f00 	cmnmi.w	r0, #0
 80009a6:	bd01      	pop	{r0, pc}

080009a8 <__aeabi_dcmpeq>:
 80009a8:	f84d ed08 	str.w	lr, [sp, #-8]!
 80009ac:	f7ff fff4 	bl	8000998 <__aeabi_cdcmpeq>
 80009b0:	bf0c      	ite	eq
 80009b2:	2001      	moveq	r0, #1
 80009b4:	2000      	movne	r0, #0
 80009b6:	f85d fb08 	ldr.w	pc, [sp], #8
 80009ba:	bf00      	nop

080009bc <__aeabi_dcmplt>:
 80009bc:	f84d ed08 	str.w	lr, [sp, #-8]!
 80009c0:	f7ff ffea 	bl	8000998 <__aeabi_cdcmpeq>
 80009c4:	bf34      	ite	cc
 80009c6:	2001      	movcc	r0, #1
 80009c8:	2000      	movcs	r0, #0
 80009ca:	f85d fb08 	ldr.w	pc, [sp], #8
 80009ce:	bf00      	nop

080009d0 <__aeabi_dcmple>:
 80009d0:	f84d ed08 	str.w	lr, [sp, #-8]!
 80009d4:	f7ff ffe0 	bl	8000998 <__aeabi_cdcmpeq>
 80009d8:	bf94      	ite	ls
 80009da:	2001      	movls	r0, #1
 80009dc:	2000      	movhi	r0, #0
 80009de:	f85d fb08 	ldr.w	pc, [sp], #8
 80009e2:	bf00      	nop

080009e4 <__aeabi_dcmpge>:
 80009e4:	f84d ed08 	str.w	lr, [sp, #-8]!
 80009e8:	f7ff ffce 	bl	8000988 <__aeabi_cdrcmple>
 80009ec:	bf94      	ite	ls
 80009ee:	2001      	movls	r0, #1
 80009f0:	2000      	movhi	r0, #0
 80009f2:	f85d fb08 	ldr.w	pc, [sp], #8
 80009f6:	bf00      	nop

080009f8 <__aeabi_dcmpgt>:
 80009f8:	f84d ed08 	str.w	lr, [sp, #-8]!
 80009fc:	f7ff ffc4 	bl	8000988 <__aeabi_cdrcmple>
 8000a00:	bf34      	ite	cc
 8000a02:	2001      	movcc	r0, #1
 8000a04:	2000      	movcs	r0, #0
 8000a06:	f85d fb08 	ldr.w	pc, [sp], #8
 8000a0a:	bf00      	nop

08000a0c <__aeabi_dcmpun>:
 8000a0c:	ea4f 0c41 	mov.w	ip, r1, lsl #1
 8000a10:	ea7f 5c6c 	mvns.w	ip, ip, asr #21
 8000a14:	d102      	bne.n	8000a1c <__aeabi_dcmpun+0x10>
 8000a16:	ea50 3c01 	orrs.w	ip, r0, r1, lsl #12
 8000a1a:	d10a      	bne.n	8000a32 <__aeabi_dcmpun+0x26>
 8000a1c:	ea4f 0c43 	mov.w	ip, r3, lsl #1
 8000a20:	ea7f 5c6c 	mvns.w	ip, ip, asr #21
 8000a24:	d102      	bne.n	8000a2c <__aeabi_dcmpun+0x20>
 8000a26:	ea52 3c03 	orrs.w	ip, r2, r3, lsl #12
 8000a2a:	d102      	bne.n	8000a32 <__aeabi_dcmpun+0x26>
 8000a2c:	f04f 0000 	mov.w	r0, #0
 8000a30:	4770      	bx	lr
 8000a32:	f04f 0001 	mov.w	r0, #1
 8000a36:	4770      	bx	lr

08000a38 <__aeabi_d2iz>:
 8000a38:	ea4f 0241 	mov.w	r2, r1, lsl #1
 8000a3c:	f512 1200 	adds.w	r2, r2, #2097152	@ 0x200000
 8000a40:	d215      	bcs.n	8000a6e <__aeabi_d2iz+0x36>
 8000a42:	d511      	bpl.n	8000a68 <__aeabi_d2iz+0x30>
 8000a44:	f46f 7378 	mvn.w	r3, #992	@ 0x3e0
 8000a48:	ebb3 5262 	subs.w	r2, r3, r2, asr #21
 8000a4c:	d912      	bls.n	8000a74 <__aeabi_d2iz+0x3c>
 8000a4e:	ea4f 23c1 	mov.w	r3, r1, lsl #11
 8000a52:	f043 4300 	orr.w	r3, r3, #2147483648	@ 0x80000000
 8000a56:	ea43 5350 	orr.w	r3, r3, r0, lsr #21
 8000a5a:	f011 4f00 	tst.w	r1, #2147483648	@ 0x80000000
 8000a5e:	fa23 f002 	lsr.w	r0, r3, r2
 8000a62:	bf18      	it	ne
 8000a64:	4240      	negne	r0, r0
 8000a66:	4770      	bx	lr
 8000a68:	f04f 0000 	mov.w	r0, #0
 8000a6c:	4770      	bx	lr
 8000a6e:	ea50 3001 	orrs.w	r0, r0, r1, lsl #12
 8000a72:	d105      	bne.n	8000a80 <__aeabi_d2iz+0x48>
 8000a74:	f011 4000 	ands.w	r0, r1, #2147483648	@ 0x80000000
 8000a78:	bf08      	it	eq
 8000a7a:	f06f 4000 	mvneq.w	r0, #2147483648	@ 0x80000000
 8000a7e:	4770      	bx	lr
 8000a80:	f04f 0000 	mov.w	r0, #0
 8000a84:	4770      	bx	lr
 8000a86:	bf00      	nop

08000a88 <MS4525DO_Initialize>:
 8000a88:	2300      	movs	r3, #0
 8000a8a:	2200      	movs	r2, #0
 8000a8c:	7103      	strb	r3, [r0, #4]
 8000a8e:	80c3      	strh	r3, [r0, #6]
 8000a90:	8103      	strh	r3, [r0, #8]
 8000a92:	2300      	movs	r3, #0
 8000a94:	6001      	str	r1, [r0, #0]
 8000a96:	e9c0 2304 	strd	r2, r3, [r0, #16]
 8000a9a:	e9c0 2306 	strd	r2, r3, [r0, #24]
 8000a9e:	e9c0 2308 	strd	r2, r3, [r0, #32]
 8000aa2:	e9c0 230a 	strd	r2, r3, [r0, #40]	@ 0x28
 8000aa6:	4770      	bx	lr

08000aa8 <calibrate_airspeed_LUT>:
 8000aa8:	f242 038d 	movw	r3, #8333	@ 0x208d
 8000aac:	4298      	cmp	r0, r3
 8000aae:	d020      	beq.n	8000af2 <calibrate_airspeed_LUT+0x4a>
 8000ab0:	d80f      	bhi.n	8000ad2 <calibrate_airspeed_LUT+0x2a>
 8000ab2:	f242 0346 	movw	r3, #8262	@ 0x2046
 8000ab6:	4298      	cmp	r0, r3
 8000ab8:	d01e      	beq.n	8000af8 <calibrate_airspeed_LUT+0x50>
 8000aba:	f242 0366 	movw	r3, #8294	@ 0x2066
 8000abe:	4298      	cmp	r0, r3
 8000ac0:	d01e      	beq.n	8000b00 <calibrate_airspeed_LUT+0x58>
 8000ac2:	f242 0327 	movw	r3, #8231	@ 0x2027
 8000ac6:	4298      	cmp	r0, r3
 8000ac8:	d11e      	bne.n	8000b08 <calibrate_airspeed_LUT+0x60>
 8000aca:	a115      	add	r1, pc, #84	@ (adr r1, 8000b20 <calibrate_airspeed_LUT+0x78>)
 8000acc:	e9d1 0100 	ldrd	r0, r1, [r1]
 8000ad0:	4770      	bx	lr
 8000ad2:	f242 03e3 	movw	r3, #8419	@ 0x20e3
 8000ad6:	4298      	cmp	r0, r3
 8000ad8:	d019      	beq.n	8000b0e <calibrate_airspeed_LUT+0x66>
 8000ada:	f242 130f 	movw	r3, #8463	@ 0x210f
 8000ade:	4298      	cmp	r0, r3
 8000ae0:	d019      	beq.n	8000b16 <calibrate_airspeed_LUT+0x6e>
 8000ae2:	f242 03d9 	movw	r3, #8409	@ 0x20d9
 8000ae6:	4298      	cmp	r0, r3
 8000ae8:	f04f 0000 	mov.w	r0, #0
 8000aec:	d10d      	bne.n	8000b0a <calibrate_airspeed_LUT+0x62>
 8000aee:	4916      	ldr	r1, [pc, #88]	@ (8000b48 <calibrate_airspeed_LUT+0xa0>)
 8000af0:	4770      	bx	lr
 8000af2:	2000      	movs	r0, #0
 8000af4:	4915      	ldr	r1, [pc, #84]	@ (8000b4c <calibrate_airspeed_LUT+0xa4>)
 8000af6:	4770      	bx	lr
 8000af8:	a10b      	add	r1, pc, #44	@ (adr r1, 8000b28 <calibrate_airspeed_LUT+0x80>)
 8000afa:	e9d1 0100 	ldrd	r0, r1, [r1]
 8000afe:	4770      	bx	lr
 8000b00:	a10b      	add	r1, pc, #44	@ (adr r1, 8000b30 <calibrate_airspeed_LUT+0x88>)
 8000b02:	e9d1 0100 	ldrd	r0, r1, [r1]
 8000b06:	4770      	bx	lr
 8000b08:	2000      	movs	r0, #0
 8000b0a:	2100      	movs	r1, #0
 8000b0c:	4770      	bx	lr
 8000b0e:	a10a      	add	r1, pc, #40	@ (adr r1, 8000b38 <calibrate_airspeed_LUT+0x90>)
 8000b10:	e9d1 0100 	ldrd	r0, r1, [r1]
 8000b14:	4770      	bx	lr
 8000b16:	a10a      	add	r1, pc, #40	@ (adr r1, 8000b40 <calibrate_airspeed_LUT+0x98>)
 8000b18:	e9d1 0100 	ldrd	r0, r1, [r1]
 8000b1c:	4770      	bx	lr
 8000b1e:	bf00      	nop
 8000b20:	66666666 	.word	0x66666666
 8000b24:	3ff26666 	.word	0x3ff26666
 8000b28:	cccccccd 	.word	0xcccccccd
 8000b2c:	4012cccc 	.word	0x4012cccc
 8000b30:	9999999a 	.word	0x9999999a
 8000b34:	40211999 	.word	0x40211999
 8000b38:	cccccccd 	.word	0xcccccccd
 8000b3c:	40344ccc 	.word	0x40344ccc
 8000b40:	cccccccd 	.word	0xcccccccd
 8000b44:	4038cccc 	.word	0x4038cccc
 8000b48:	40304000 	.word	0x40304000
 8000b4c:	40280000 	.word	0x40280000

08000b50 <calibrate_airspeed>:
 8000b50:	b510      	push	{r4, lr}
 8000b52:	f242 140f 	movw	r4, #8463	@ 0x210f
 8000b56:	42a0      	cmp	r0, r4
 8000b58:	d81a      	bhi.n	8000b90 <calibrate_airspeed+0x40>
 8000b5a:	f5a0 5300 	sub.w	r3, r0, #8192	@ 0x2000
 8000b5e:	f1a3 0220 	sub.w	r2, r3, #32
 8000b62:	b292      	uxth	r2, r2
 8000b64:	2a06      	cmp	r2, #6
 8000b66:	d816      	bhi.n	8000b96 <calibrate_airspeed+0x46>
 8000b68:	f1a3 001f 	sub.w	r0, r3, #31
 8000b6c:	f7ff fc4a 	bl	8000404 <__aeabi_i2d>
 8000b70:	a34d      	add	r3, pc, #308	@ (adr r3, 8000ca8 <calibrate_airspeed+0x158>)
 8000b72:	e9d3 2300 	ldrd	r2, r3, [r3]
 8000b76:	f7ff fcaf 	bl	80004d8 <__aeabi_dmul>
 8000b7a:	2200      	movs	r2, #0
 8000b7c:	f04f 537f 	mov.w	r3, #1069547520	@ 0x3fc00000
 8000b80:	f7ff fcaa 	bl	80004d8 <__aeabi_dmul>
 8000b84:	2200      	movs	r2, #0
 8000b86:	2300      	movs	r3, #0
 8000b88:	f7ff faf0 	bl	800016c <__adddf3>
 8000b8c:	4602      	mov	r2, r0
 8000b8e:	460b      	mov	r3, r1
 8000b90:	4610      	mov	r0, r2
 8000b92:	4619      	mov	r1, r3
 8000b94:	bd10      	pop	{r4, pc}
 8000b96:	f1a3 0228 	sub.w	r2, r3, #40	@ 0x28
 8000b9a:	b292      	uxth	r2, r2
 8000b9c:	2a1d      	cmp	r2, #29
 8000b9e:	d810      	bhi.n	8000bc2 <calibrate_airspeed+0x72>
 8000ba0:	f1a3 0027 	sub.w	r0, r3, #39	@ 0x27
 8000ba4:	f7ff fc2e 	bl	8000404 <__aeabi_i2d>
 8000ba8:	a341      	add	r3, pc, #260	@ (adr r3, 8000cb0 <calibrate_airspeed+0x160>)
 8000baa:	e9d3 2300 	ldrd	r2, r3, [r3]
 8000bae:	f7ff fc93 	bl	80004d8 <__aeabi_dmul>
 8000bb2:	2200      	movs	r2, #0
 8000bb4:	4b4c      	ldr	r3, [pc, #304]	@ (8000ce8 <calibrate_airspeed+0x198>)
 8000bb6:	f7ff fdb9 	bl	800072c <__aeabi_ddiv>
 8000bba:	a33b      	add	r3, pc, #236	@ (adr r3, 8000ca8 <calibrate_airspeed+0x158>)
 8000bbc:	e9d3 2300 	ldrd	r2, r3, [r3]
 8000bc0:	e7e2      	b.n	8000b88 <calibrate_airspeed+0x38>
 8000bc2:	f5a0 5301 	sub.w	r3, r0, #8256	@ 0x2040
 8000bc6:	1fda      	subs	r2, r3, #7
 8000bc8:	b292      	uxth	r2, r2
 8000bca:	2a1e      	cmp	r2, #30
 8000bcc:	d80f      	bhi.n	8000bee <calibrate_airspeed+0x9e>
 8000bce:	1f98      	subs	r0, r3, #6
 8000bd0:	f7ff fc18 	bl	8000404 <__aeabi_i2d>
 8000bd4:	a338      	add	r3, pc, #224	@ (adr r3, 8000cb8 <calibrate_airspeed+0x168>)
 8000bd6:	e9d3 2300 	ldrd	r2, r3, [r3]
 8000bda:	f7ff fc7d 	bl	80004d8 <__aeabi_dmul>
 8000bde:	2200      	movs	r2, #0
 8000be0:	4b42      	ldr	r3, [pc, #264]	@ (8000cec <calibrate_airspeed+0x19c>)
 8000be2:	f7ff fc79 	bl	80004d8 <__aeabi_dmul>
 8000be6:	a336      	add	r3, pc, #216	@ (adr r3, 8000cc0 <calibrate_airspeed+0x170>)
 8000be8:	e9d3 2300 	ldrd	r2, r3, [r3]
 8000bec:	e7cc      	b.n	8000b88 <calibrate_airspeed+0x38>
 8000bee:	f1a3 0227 	sub.w	r2, r3, #39	@ 0x27
 8000bf2:	b292      	uxth	r2, r2
 8000bf4:	2a25      	cmp	r2, #37	@ 0x25
 8000bf6:	d810      	bhi.n	8000c1a <calibrate_airspeed+0xca>
 8000bf8:	f1a3 0026 	sub.w	r0, r3, #38	@ 0x26
 8000bfc:	f7ff fc02 	bl	8000404 <__aeabi_i2d>
 8000c00:	a331      	add	r3, pc, #196	@ (adr r3, 8000cc8 <calibrate_airspeed+0x178>)
 8000c02:	e9d3 2300 	ldrd	r2, r3, [r3]
 8000c06:	f7ff fc67 	bl	80004d8 <__aeabi_dmul>
 8000c0a:	2200      	movs	r2, #0
 8000c0c:	4b38      	ldr	r3, [pc, #224]	@ (8000cf0 <calibrate_airspeed+0x1a0>)
 8000c0e:	f7ff fd8d 	bl	800072c <__aeabi_ddiv>
 8000c12:	a32f      	add	r3, pc, #188	@ (adr r3, 8000cd0 <calibrate_airspeed+0x180>)
 8000c14:	e9d3 2300 	ldrd	r2, r3, [r3]
 8000c18:	e7b6      	b.n	8000b88 <calibrate_airspeed+0x38>
 8000c1a:	f5a0 5202 	sub.w	r2, r0, #8320	@ 0x2080
 8000c1e:	f1a2 030e 	sub.w	r3, r2, #14
 8000c22:	b29b      	uxth	r3, r3
 8000c24:	2b4a      	cmp	r3, #74	@ 0x4a
 8000c26:	d80e      	bhi.n	8000c46 <calibrate_airspeed+0xf6>
 8000c28:	f1a2 000d 	sub.w	r0, r2, #13
 8000c2c:	f7ff fbea 	bl	8000404 <__aeabi_i2d>
 8000c30:	2200      	movs	r2, #0
 8000c32:	4b30      	ldr	r3, [pc, #192]	@ (8000cf4 <calibrate_airspeed+0x1a4>)
 8000c34:	f7ff fc50 	bl	80004d8 <__aeabi_dmul>
 8000c38:	2200      	movs	r2, #0
 8000c3a:	4b2f      	ldr	r3, [pc, #188]	@ (8000cf8 <calibrate_airspeed+0x1a8>)
 8000c3c:	f7ff fd76 	bl	800072c <__aeabi_ddiv>
 8000c40:	2200      	movs	r2, #0
 8000c42:	4b2e      	ldr	r3, [pc, #184]	@ (8000cfc <calibrate_airspeed+0x1ac>)
 8000c44:	e7a0      	b.n	8000b88 <calibrate_airspeed+0x38>
 8000c46:	f5a0 5103 	sub.w	r1, r0, #8384	@ 0x20c0
 8000c4a:	f1a1 031a 	sub.w	r3, r1, #26
 8000c4e:	b29b      	uxth	r3, r3
 8000c50:	2b08      	cmp	r3, #8
 8000c52:	d80f      	bhi.n	8000c74 <calibrate_airspeed+0x124>
 8000c54:	f1a1 0019 	sub.w	r0, r1, #25
 8000c58:	f7ff fbd4 	bl	8000404 <__aeabi_i2d>
 8000c5c:	a31e      	add	r3, pc, #120	@ (adr r3, 8000cd8 <calibrate_airspeed+0x188>)
 8000c5e:	e9d3 2300 	ldrd	r2, r3, [r3]
 8000c62:	f7ff fc39 	bl	80004d8 <__aeabi_dmul>
 8000c66:	2200      	movs	r2, #0
 8000c68:	4b25      	ldr	r3, [pc, #148]	@ (8000d00 <calibrate_airspeed+0x1b0>)
 8000c6a:	f7ff fd5f 	bl	800072c <__aeabi_ddiv>
 8000c6e:	2200      	movs	r2, #0
 8000c70:	4b24      	ldr	r3, [pc, #144]	@ (8000d04 <calibrate_airspeed+0x1b4>)
 8000c72:	e789      	b.n	8000b88 <calibrate_airspeed+0x38>
 8000c74:	f1a1 0324 	sub.w	r3, r1, #36	@ 0x24
 8000c78:	b29b      	uxth	r3, r3
 8000c7a:	2b2a      	cmp	r3, #42	@ 0x2a
 8000c7c:	d80f      	bhi.n	8000c9e <calibrate_airspeed+0x14e>
 8000c7e:	f1a1 0023 	sub.w	r0, r1, #35	@ 0x23
 8000c82:	f7ff fbbf 	bl	8000404 <__aeabi_i2d>
 8000c86:	2200      	movs	r2, #0
 8000c88:	4b1f      	ldr	r3, [pc, #124]	@ (8000d08 <calibrate_airspeed+0x1b8>)
 8000c8a:	f7ff fc25 	bl	80004d8 <__aeabi_dmul>
 8000c8e:	2200      	movs	r2, #0
 8000c90:	4b1e      	ldr	r3, [pc, #120]	@ (8000d0c <calibrate_airspeed+0x1bc>)
 8000c92:	f7ff fd4b 	bl	800072c <__aeabi_ddiv>
 8000c96:	a312      	add	r3, pc, #72	@ (adr r3, 8000ce0 <calibrate_airspeed+0x190>)
 8000c98:	e9d3 2300 	ldrd	r2, r3, [r3]
 8000c9c:	e774      	b.n	8000b88 <calibrate_airspeed+0x38>
 8000c9e:	e8bd 4010 	ldmia.w	sp!, {r4, lr}
 8000ca2:	f7ff bf01 	b.w	8000aa8 <calibrate_airspeed_LUT>
 8000ca6:	bf00      	nop
 8000ca8:	66666666 	.word	0x66666666
 8000cac:	3ff26666 	.word	0x3ff26666
 8000cb0:	66666667 	.word	0x66666667
 8000cb4:	400c6666 	.word	0x400c6666
 8000cb8:	ccccccce 	.word	0xccccccce
 8000cbc:	400ecccc 	.word	0x400ecccc
 8000cc0:	cccccccd 	.word	0xcccccccd
 8000cc4:	4012cccc 	.word	0x4012cccc
 8000cc8:	99999998 	.word	0x99999998
 8000ccc:	400b9999 	.word	0x400b9999
 8000cd0:	9999999a 	.word	0x9999999a
 8000cd4:	40211999 	.word	0x40211999
 8000cd8:	33333334 	.word	0x33333334
 8000cdc:	40103333 	.word	0x40103333
 8000ce0:	cccccccd 	.word	0xcccccccd
 8000ce4:	40344ccc 	.word	0x40344ccc
 8000ce8:	403f0000 	.word	0x403f0000
 8000cec:	3fa00000 	.word	0x3fa00000
 8000cf0:	40438000 	.word	0x40438000
 8000cf4:	40110000 	.word	0x40110000
 8000cf8:	40530000 	.word	0x40530000
 8000cfc:	40280000 	.word	0x40280000
 8000d00:	40240000 	.word	0x40240000
 8000d04:	40304000 	.word	0x40304000
 8000d08:	40120000 	.word	0x40120000
 8000d0c:	40460000 	.word	0x40460000

08000d10 <read_MS4525DO>:
 8000d10:	e92d 41ff 	stmdb	sp!, {r0, r1, r2, r3, r4, r5, r6, r7, r8, lr}
 8000d14:	f04f 33ff 	mov.w	r3, #4294967295
 8000d18:	9300      	str	r3, [sp, #0]
 8000d1a:	4604      	mov	r4, r0
 8000d1c:	2304      	movs	r3, #4
 8000d1e:	218c      	movs	r1, #140	@ 0x8c
 8000d20:	aa03      	add	r2, sp, #12
 8000d22:	6800      	ldr	r0, [r0, #0]
 8000d24:	f001 fd6c 	bl	8002800 <HAL_I2C_Master_Receive>
 8000d28:	f89d 300c 	ldrb.w	r3, [sp, #12]
 8000d2c:	f89d 500d 	ldrb.w	r5, [sp, #13]
 8000d30:	099a      	lsrs	r2, r3, #6
 8000d32:	1e51      	subs	r1, r2, #1
 8000d34:	2902      	cmp	r1, #2
 8000d36:	bf88      	it	hi
 8000d38:	2200      	movhi	r2, #0
 8000d3a:	021b      	lsls	r3, r3, #8
 8000d3c:	f403 537c 	and.w	r3, r3, #16128	@ 0x3f00
 8000d40:	f89d 800f 	ldrb.w	r8, [sp, #15]
 8000d44:	441d      	add	r5, r3
 8000d46:	f89d 300e 	ldrb.w	r3, [sp, #14]
 8000d4a:	ea4f 1858 	mov.w	r8, r8, lsr #5
 8000d4e:	eb08 08c3 	add.w	r8, r8, r3, lsl #3
 8000d52:	7122      	strb	r2, [r4, #4]
 8000d54:	4628      	mov	r0, r5
 8000d56:	80e5      	strh	r5, [r4, #6]
 8000d58:	f8a4 8008 	strh.w	r8, [r4, #8]
 8000d5c:	f7ff fb42 	bl	80003e4 <__aeabi_ui2d>
 8000d60:	a33b      	add	r3, pc, #236	@ (adr r3, 8000e50 <read_MS4525DO+0x140>)
 8000d62:	e9d3 2300 	ldrd	r2, r3, [r3]
 8000d66:	f7ff f9ff 	bl	8000168 <__aeabi_dsub>
 8000d6a:	4602      	mov	r2, r0
 8000d6c:	460b      	mov	r3, r1
 8000d6e:	f7ff f9fd 	bl	800016c <__adddf3>
 8000d72:	a339      	add	r3, pc, #228	@ (adr r3, 8000e58 <read_MS4525DO+0x148>)
 8000d74:	e9d3 2300 	ldrd	r2, r3, [r3]
 8000d78:	f7ff fcd8 	bl	800072c <__aeabi_ddiv>
 8000d7c:	2200      	movs	r2, #0
 8000d7e:	4b3e      	ldr	r3, [pc, #248]	@ (8000e78 <read_MS4525DO+0x168>)
 8000d80:	f7ff f9f2 	bl	8000168 <__aeabi_dsub>
 8000d84:	4606      	mov	r6, r0
 8000d86:	460f      	mov	r7, r1
 8000d88:	4640      	mov	r0, r8
 8000d8a:	e9c4 6704 	strd	r6, r7, [r4, #16]
 8000d8e:	f7ff fb29 	bl	80003e4 <__aeabi_ui2d>
 8000d92:	2200      	movs	r2, #0
 8000d94:	4b39      	ldr	r3, [pc, #228]	@ (8000e7c <read_MS4525DO+0x16c>)
 8000d96:	f7ff fb9f 	bl	80004d8 <__aeabi_dmul>
 8000d9a:	a331      	add	r3, pc, #196	@ (adr r3, 8000e60 <read_MS4525DO+0x150>)
 8000d9c:	e9d3 2300 	ldrd	r2, r3, [r3]
 8000da0:	f7ff fcc4 	bl	800072c <__aeabi_ddiv>
 8000da4:	2200      	movs	r2, #0
 8000da6:	4b36      	ldr	r3, [pc, #216]	@ (8000e80 <read_MS4525DO+0x170>)
 8000da8:	f7ff f9de 	bl	8000168 <__aeabi_dsub>
 8000dac:	2200      	movs	r2, #0
 8000dae:	e9c4 0106 	strd	r0, r1, [r4, #24]
 8000db2:	2300      	movs	r3, #0
 8000db4:	4630      	mov	r0, r6
 8000db6:	4639      	mov	r1, r7
 8000db8:	f7ff fe14 	bl	80009e4 <__aeabi_dcmpge>
 8000dbc:	b360      	cbz	r0, 8000e18 <read_MS4525DO+0x108>
 8000dbe:	a32a      	add	r3, pc, #168	@ (adr r3, 8000e68 <read_MS4525DO+0x158>)
 8000dc0:	e9d3 2300 	ldrd	r2, r3, [r3]
 8000dc4:	4630      	mov	r0, r6
 8000dc6:	4639      	mov	r1, r7
 8000dc8:	f7ff fb86 	bl	80004d8 <__aeabi_dmul>
 8000dcc:	a328      	add	r3, pc, #160	@ (adr r3, 8000e70 <read_MS4525DO+0x160>)
 8000dce:	e9d3 2300 	ldrd	r2, r3, [r3]
 8000dd2:	f7ff fcab 	bl	800072c <__aeabi_ddiv>
 8000dd6:	f005 fb25 	bl	8006424 <sqrt>
 8000dda:	4602      	mov	r2, r0
 8000ddc:	460b      	mov	r3, r1
 8000dde:	e9c4 2308 	strd	r2, r3, [r4, #32]
 8000de2:	4628      	mov	r0, r5
 8000de4:	f7ff feb4 	bl	8000b50 <calibrate_airspeed>
 8000de8:	e9c4 010a 	strd	r0, r1, [r4, #40]	@ 0x28
 8000dec:	4629      	mov	r1, r5
 8000dee:	4825      	ldr	r0, [pc, #148]	@ (8000e84 <read_MS4525DO+0x174>)
 8000df0:	f004 fa58 	bl	80052a4 <iprintf>
 8000df4:	e9d4 2304 	ldrd	r2, r3, [r4, #16]
 8000df8:	4823      	ldr	r0, [pc, #140]	@ (8000e88 <read_MS4525DO+0x178>)
 8000dfa:	f004 fa53 	bl	80052a4 <iprintf>
 8000dfe:	e9d4 2308 	ldrd	r2, r3, [r4, #32]
 8000e02:	4821      	ldr	r0, [pc, #132]	@ (8000e88 <read_MS4525DO+0x178>)
 8000e04:	f004 fa4e 	bl	80052a4 <iprintf>
 8000e08:	e9d4 230a 	ldrd	r2, r3, [r4, #40]	@ 0x28
 8000e0c:	481f      	ldr	r0, [pc, #124]	@ (8000e8c <read_MS4525DO+0x17c>)
 8000e0e:	f004 fa49 	bl	80052a4 <iprintf>
 8000e12:	b004      	add	sp, #16
 8000e14:	e8bd 81f0 	ldmia.w	sp!, {r4, r5, r6, r7, r8, pc}
 8000e18:	4639      	mov	r1, r7
 8000e1a:	4630      	mov	r0, r6
 8000e1c:	f7ff fe0c 	bl	8000a38 <__aeabi_d2iz>
 8000e20:	2800      	cmp	r0, #0
 8000e22:	bfb8      	it	lt
 8000e24:	4240      	neglt	r0, r0
 8000e26:	f7ff faed 	bl	8000404 <__aeabi_i2d>
 8000e2a:	a30f      	add	r3, pc, #60	@ (adr r3, 8000e68 <read_MS4525DO+0x158>)
 8000e2c:	e9d3 2300 	ldrd	r2, r3, [r3]
 8000e30:	f7ff fb52 	bl	80004d8 <__aeabi_dmul>
 8000e34:	a30e      	add	r3, pc, #56	@ (adr r3, 8000e70 <read_MS4525DO+0x160>)
 8000e36:	e9d3 2300 	ldrd	r2, r3, [r3]
 8000e3a:	f7ff fc77 	bl	800072c <__aeabi_ddiv>
 8000e3e:	f005 faf1 	bl	8006424 <sqrt>
 8000e42:	4602      	mov	r2, r0
 8000e44:	f101 4300 	add.w	r3, r1, #2147483648	@ 0x80000000
 8000e48:	e7c9      	b.n	8000dde <read_MS4525DO+0xce>
 8000e4a:	bf00      	nop
 8000e4c:	f3af 8000 	nop.w
 8000e50:	33333333 	.word	0x33333333
 8000e54:	40899933 	.word	0x40899933
 8000e58:	9999999a 	.word	0x9999999a
 8000e5c:	40cccc59 	.word	0x40cccc59
 8000e60:	00000000 	.word	0x00000000
 8000e64:	409ffc00 	.word	0x409ffc00
 8000e68:	33333333 	.word	0x33333333
 8000e6c:	40caeeb3 	.word	0x40caeeb3
 8000e70:	9999999a 	.word	0x9999999a
 8000e74:	3ff39999 	.word	0x3ff39999
 8000e78:	3ff00000 	.word	0x3ff00000
 8000e7c:	40690000 	.word	0x40690000
 8000e80:	40490000 	.word	0x40490000
 8000e84:	08006628 	.word	0x08006628
 8000e88:	0800662b 	.word	0x0800662b
 8000e8c:	08006630 	.word	0x08006630

08000e90 <HAL_CAN_RxFifo0MsgPendingCallback>:
 8000e90:	b500      	push	{lr}
 8000e92:	b08b      	sub	sp, #44	@ 0x2c
 8000e94:	2100      	movs	r1, #0
 8000e96:	ab01      	add	r3, sp, #4
 8000e98:	aa03      	add	r2, sp, #12
 8000e9a:	f001 f87a 	bl	8001f92 <HAL_CAN_GetRxMessage>
 8000e9e:	b950      	cbnz	r0, 8000eb6 <HAL_CAN_RxFifo0MsgPendingCallback+0x26>
 8000ea0:	4a06      	ldr	r2, [pc, #24]	@ (8000ebc <HAL_CAN_RxFifo0MsgPendingCallback+0x2c>)
 8000ea2:	ab01      	add	r3, sp, #4
 8000ea4:	cb03      	ldmia	r3!, {r0, r1}
 8000ea6:	4b06      	ldr	r3, [pc, #24]	@ (8000ec0 <HAL_CAN_RxFifo0MsgPendingCallback+0x30>)
 8000ea8:	6010      	str	r0, [r2, #0]
 8000eaa:	6051      	str	r1, [r2, #4]
 8000eac:	9a03      	ldr	r2, [sp, #12]
 8000eae:	601a      	str	r2, [r3, #0]
 8000eb0:	2201      	movs	r2, #1
 8000eb2:	4b04      	ldr	r3, [pc, #16]	@ (8000ec4 <HAL_CAN_RxFifo0MsgPendingCallback+0x34>)
 8000eb4:	701a      	strb	r2, [r3, #0]
 8000eb6:	b00b      	add	sp, #44	@ 0x2c
 8000eb8:	f85d fb04 	ldr.w	pc, [sp], #4
 8000ebc:	200000a0 	.word	0x200000a0
 8000ec0:	2000009c 	.word	0x2000009c
 8000ec4:	200000a8 	.word	0x200000a8

08000ec8 <send_can_message>:
 8000ec8:	f44f 7340 	mov.w	r3, #768	@ 0x300
 8000ecc:	b500      	push	{lr}
 8000ece:	b089      	sub	sp, #36	@ 0x24
 8000ed0:	2108      	movs	r1, #8
 8000ed2:	e9cd 3302 	strd	r3, r3, [sp, #8]
 8000ed6:	2300      	movs	r3, #0
 8000ed8:	4602      	mov	r2, r0
 8000eda:	e9cd 3304 	strd	r3, r3, [sp, #16]
 8000ede:	9106      	str	r1, [sp, #24]
 8000ee0:	f88d 301c 	strb.w	r3, [sp, #28]
 8000ee4:	4806      	ldr	r0, [pc, #24]	@ (8000f00 <send_can_message+0x38>)
 8000ee6:	ab01      	add	r3, sp, #4
 8000ee8:	4469      	add	r1, sp
 8000eea:	f001 f809 	bl	8001f00 <HAL_CAN_AddTxMessage>
 8000eee:	b128      	cbz	r0, 8000efc <send_can_message+0x34>
 8000ef0:	4804      	ldr	r0, [pc, #16]	@ (8000f04 <send_can_message+0x3c>)
 8000ef2:	f004 fa3f 	bl	8005374 <puts>
 8000ef6:	b009      	add	sp, #36	@ 0x24
 8000ef8:	f85d fb04 	ldr.w	pc, [sp], #4
 8000efc:	4802      	ldr	r0, [pc, #8]	@ (8000f08 <send_can_message+0x40>)
 8000efe:	e7f8      	b.n	8000ef2 <send_can_message+0x2a>
 8000f00:	200001a4 	.word	0x200001a4
 8000f04:	08006638 	.word	0x08006638
 8000f08:	0800664b 	.word	0x0800664b

08000f0c <_write>:
 8000f0c:	b510      	push	{r4, lr}
 8000f0e:	4614      	mov	r4, r2
 8000f10:	f04f 33ff 	mov.w	r3, #4294967295
 8000f14:	b292      	uxth	r2, r2
 8000f16:	4802      	ldr	r0, [pc, #8]	@ (8000f20 <_write+0x14>)
 8000f18:	f002 fbe1 	bl	80036de <HAL_UART_Transmit>
 8000f1c:	4620      	mov	r0, r4
 8000f1e:	bd10      	pop	{r4, pc}
 8000f20:	200000b0 	.word	0x200000b0

08000f24 <SPI_TxBuffer>:
 8000f24:	4b05      	ldr	r3, [pc, #20]	@ (8000f3c <SPI_TxBuffer+0x18>)
 8000f26:	460a      	mov	r2, r1
 8000f28:	6819      	ldr	r1, [r3, #0]
 8000f2a:	688b      	ldr	r3, [r1, #8]
 8000f2c:	079b      	lsls	r3, r3, #30
 8000f2e:	d5fc      	bpl.n	8000f2a <SPI_TxBuffer+0x6>
 8000f30:	4601      	mov	r1, r0
 8000f32:	2364      	movs	r3, #100	@ 0x64
 8000f34:	4801      	ldr	r0, [pc, #4]	@ (8000f3c <SPI_TxBuffer+0x18>)
 8000f36:	f002 b95d 	b.w	80031f4 <HAL_SPI_Transmit>
 8000f3a:	bf00      	nop
 8000f3c:	200000f8 	.word	0x200000f8

08000f40 <SPI_TxByte>:
 8000f40:	b507      	push	{r0, r1, r2, lr}
 8000f42:	4b08      	ldr	r3, [pc, #32]	@ (8000f64 <SPI_TxByte+0x24>)
 8000f44:	f88d 0007 	strb.w	r0, [sp, #7]
 8000f48:	681a      	ldr	r2, [r3, #0]
 8000f4a:	6893      	ldr	r3, [r2, #8]
 8000f4c:	079b      	lsls	r3, r3, #30
 8000f4e:	d5fc      	bpl.n	8000f4a <SPI_TxByte+0xa>
 8000f50:	2364      	movs	r3, #100	@ 0x64
 8000f52:	2201      	movs	r2, #1
 8000f54:	f10d 0107 	add.w	r1, sp, #7
 8000f58:	4802      	ldr	r0, [pc, #8]	@ (8000f64 <SPI_TxByte+0x24>)
 8000f5a:	f002 f94b 	bl	80031f4 <HAL_SPI_Transmit>
 8000f5e:	b003      	add	sp, #12
 8000f60:	f85d fb04 	ldr.w	pc, [sp], #4
 8000f64:	200000f8 	.word	0x200000f8

08000f68 <SELECT>:
 8000f68:	b508      	push	{r3, lr}
 8000f6a:	4805      	ldr	r0, [pc, #20]	@ (8000f80 <SELECT+0x18>)
 8000f6c:	2200      	movs	r2, #0
 8000f6e:	2110      	movs	r1, #16
 8000f70:	f001 fae4 	bl	800253c <HAL_GPIO_WritePin>
 8000f74:	e8bd 4008 	ldmia.w	sp!, {r3, lr}
 8000f78:	2001      	movs	r0, #1
 8000f7a:	f000 be99 	b.w	8001cb0 <HAL_Delay>
 8000f7e:	bf00      	nop
 8000f80:	40010800 	.word	0x40010800

08000f84 <DESELECT>:
 8000f84:	b508      	push	{r3, lr}
 8000f86:	4805      	ldr	r0, [pc, #20]	@ (8000f9c <DESELECT+0x18>)
 8000f88:	2201      	movs	r2, #1
 8000f8a:	2110      	movs	r1, #16
 8000f8c:	f001 fad6 	bl	800253c <HAL_GPIO_WritePin>
 8000f90:	e8bd 4008 	ldmia.w	sp!, {r3, lr}
 8000f94:	2001      	movs	r0, #1
 8000f96:	f000 be8b 	b.w	8001cb0 <HAL_Delay>
 8000f9a:	bf00      	nop
 8000f9c:	40010800 	.word	0x40010800

08000fa0 <SPI_RxByte>:
 8000fa0:	b51f      	push	{r0, r1, r2, r3, r4, lr}
 8000fa2:	23ff      	movs	r3, #255	@ 0xff
 8000fa4:	f88d 300e 	strb.w	r3, [sp, #14]
 8000fa8:	4b09      	ldr	r3, [pc, #36]	@ (8000fd0 <SPI_RxByte+0x30>)
 8000faa:	681a      	ldr	r2, [r3, #0]
 8000fac:	6893      	ldr	r3, [r2, #8]
 8000fae:	079b      	lsls	r3, r3, #30
 8000fb0:	d5fc      	bpl.n	8000fac <SPI_RxByte+0xc>
 8000fb2:	2364      	movs	r3, #100	@ 0x64
 8000fb4:	f10d 020f 	add.w	r2, sp, #15
 8000fb8:	9300      	str	r3, [sp, #0]
 8000fba:	f10d 010e 	add.w	r1, sp, #14
 8000fbe:	2301      	movs	r3, #1
 8000fc0:	4803      	ldr	r0, [pc, #12]	@ (8000fd0 <SPI_RxByte+0x30>)
 8000fc2:	f002 f9c7 	bl	8003354 <HAL_SPI_TransmitReceive>
 8000fc6:	f89d 000f 	ldrb.w	r0, [sp, #15]
 8000fca:	b005      	add	sp, #20
 8000fcc:	f85d fb04 	ldr.w	pc, [sp], #4
 8000fd0:	200000f8 	.word	0x200000f8

08000fd4 <SD_PowerOn>:
 8000fd4:	b513      	push	{r0, r1, r4, lr}
 8000fd6:	f7ff ffd5 	bl	8000f84 <DESELECT>
 8000fda:	240a      	movs	r4, #10
 8000fdc:	20ff      	movs	r0, #255	@ 0xff
 8000fde:	f7ff ffaf 	bl	8000f40 <SPI_TxByte>
 8000fe2:	3c01      	subs	r4, #1
 8000fe4:	d1fa      	bne.n	8000fdc <SD_PowerOn+0x8>
 8000fe6:	f7ff ffbf 	bl	8000f68 <SELECT>
 8000fea:	2340      	movs	r3, #64	@ 0x40
 8000fec:	9300      	str	r3, [sp, #0]
 8000fee:	f44f 4315 	mov.w	r3, #38144	@ 0x9500
 8000ff2:	2106      	movs	r1, #6
 8000ff4:	4668      	mov	r0, sp
 8000ff6:	f8ad 3004 	strh.w	r3, [sp, #4]
 8000ffa:	f44f 5400 	mov.w	r4, #8192	@ 0x2000
 8000ffe:	f7ff ff91 	bl	8000f24 <SPI_TxBuffer>
 8001002:	f7ff ffcd 	bl	8000fa0 <SPI_RxByte>
 8001006:	2801      	cmp	r0, #1
 8001008:	d109      	bne.n	800101e <SD_PowerOn+0x4a>
 800100a:	f7ff ffbb 	bl	8000f84 <DESELECT>
 800100e:	20ff      	movs	r0, #255	@ 0xff
 8001010:	f7ff ff96 	bl	8000f40 <SPI_TxByte>
 8001014:	2201      	movs	r2, #1
 8001016:	4b03      	ldr	r3, [pc, #12]	@ (8001024 <SD_PowerOn+0x50>)
 8001018:	701a      	strb	r2, [r3, #0]
 800101a:	b002      	add	sp, #8
 800101c:	bd10      	pop	{r4, pc}
 800101e:	3c01      	subs	r4, #1
 8001020:	d1ef      	bne.n	8001002 <SD_PowerOn+0x2e>
 8001022:	e7f2      	b.n	800100a <SD_PowerOn+0x36>
 8001024:	200000a9 	.word	0x200000a9

08001028 <SD_ReadyWait>:
 8001028:	f44f 73fa 	mov.w	r3, #500	@ 0x1f4
 800102c:	b510      	push	{r4, lr}
 800102e:	4c05      	ldr	r4, [pc, #20]	@ (8001044 <SD_ReadyWait+0x1c>)
 8001030:	8023      	strh	r3, [r4, #0]
 8001032:	f7ff ffb5 	bl	8000fa0 <SPI_RxByte>
 8001036:	28ff      	cmp	r0, #255	@ 0xff
 8001038:	d002      	beq.n	8001040 <SD_ReadyWait+0x18>
 800103a:	8823      	ldrh	r3, [r4, #0]
 800103c:	2b00      	cmp	r3, #0
 800103e:	d1f8      	bne.n	8001032 <SD_ReadyWait+0xa>
 8001040:	bd10      	pop	{r4, pc}
 8001042:	bf00      	nop
 8001044:	200000ac 	.word	0x200000ac

08001048 <SD_TxDataBlock>:
 8001048:	b570      	push	{r4, r5, r6, lr}
 800104a:	4606      	mov	r6, r0
 800104c:	460d      	mov	r5, r1
 800104e:	f7ff ffeb 	bl	8001028 <SD_ReadyWait>
 8001052:	28ff      	cmp	r0, #255	@ 0xff
 8001054:	f04f 0400 	mov.w	r4, #0
 8001058:	d123      	bne.n	80010a2 <SD_TxDataBlock+0x5a>
 800105a:	4628      	mov	r0, r5
 800105c:	f7ff ff70 	bl	8000f40 <SPI_TxByte>
 8001060:	2dfd      	cmp	r5, #253	@ 0xfd
 8001062:	d018      	beq.n	8001096 <SD_TxDataBlock+0x4e>
 8001064:	f44f 7100 	mov.w	r1, #512	@ 0x200
 8001068:	4630      	mov	r0, r6
 800106a:	f7ff ff5b 	bl	8000f24 <SPI_TxBuffer>
 800106e:	2541      	movs	r5, #65	@ 0x41
 8001070:	f7ff ff96 	bl	8000fa0 <SPI_RxByte>
 8001074:	f7ff ff94 	bl	8000fa0 <SPI_RxByte>
 8001078:	f7ff ff92 	bl	8000fa0 <SPI_RxByte>
 800107c:	f000 031f 	and.w	r3, r0, #31
 8001080:	2b05      	cmp	r3, #5
 8001082:	4604      	mov	r4, r0
 8001084:	d003      	beq.n	800108e <SD_TxDataBlock+0x46>
 8001086:	3d01      	subs	r5, #1
 8001088:	f015 05ff 	ands.w	r5, r5, #255	@ 0xff
 800108c:	d1f4      	bne.n	8001078 <SD_TxDataBlock+0x30>
 800108e:	f7ff ff87 	bl	8000fa0 <SPI_RxByte>
 8001092:	2800      	cmp	r0, #0
 8001094:	d0fb      	beq.n	800108e <SD_TxDataBlock+0x46>
 8001096:	f004 041f 	and.w	r4, r4, #31
 800109a:	1f63      	subs	r3, r4, #5
 800109c:	4258      	negs	r0, r3
 800109e:	4158      	adcs	r0, r3
 80010a0:	bd70      	pop	{r4, r5, r6, pc}
 80010a2:	4620      	mov	r0, r4
 80010a4:	e7fc      	b.n	80010a0 <SD_TxDataBlock+0x58>

080010a6 <SD_SendCmd>:
 80010a6:	b538      	push	{r3, r4, r5, lr}
 80010a8:	4604      	mov	r4, r0
 80010aa:	460d      	mov	r5, r1
 80010ac:	f7ff ffbc 	bl	8001028 <SD_ReadyWait>
 80010b0:	28ff      	cmp	r0, #255	@ 0xff
 80010b2:	d128      	bne.n	8001106 <SD_SendCmd+0x60>
 80010b4:	4620      	mov	r0, r4
 80010b6:	f7ff ff43 	bl	8000f40 <SPI_TxByte>
 80010ba:	0e28      	lsrs	r0, r5, #24
 80010bc:	f7ff ff40 	bl	8000f40 <SPI_TxByte>
 80010c0:	f3c5 4007 	ubfx	r0, r5, #16, #8
 80010c4:	f7ff ff3c 	bl	8000f40 <SPI_TxByte>
 80010c8:	f3c5 2007 	ubfx	r0, r5, #8, #8
 80010cc:	f7ff ff38 	bl	8000f40 <SPI_TxByte>
 80010d0:	b2e8      	uxtb	r0, r5
 80010d2:	f7ff ff35 	bl	8000f40 <SPI_TxByte>
 80010d6:	2c40      	cmp	r4, #64	@ 0x40
 80010d8:	d013      	beq.n	8001102 <SD_SendCmd+0x5c>
 80010da:	2c48      	cmp	r4, #72	@ 0x48
 80010dc:	bf14      	ite	ne
 80010de:	2001      	movne	r0, #1
 80010e0:	2087      	moveq	r0, #135	@ 0x87
 80010e2:	f7ff ff2d 	bl	8000f40 <SPI_TxByte>
 80010e6:	2c4c      	cmp	r4, #76	@ 0x4c
 80010e8:	d101      	bne.n	80010ee <SD_SendCmd+0x48>
 80010ea:	f7ff ff59 	bl	8000fa0 <SPI_RxByte>
 80010ee:	240a      	movs	r4, #10
 80010f0:	f7ff ff56 	bl	8000fa0 <SPI_RxByte>
 80010f4:	0603      	lsls	r3, r0, #24
 80010f6:	d503      	bpl.n	8001100 <SD_SendCmd+0x5a>
 80010f8:	3c01      	subs	r4, #1
 80010fa:	f014 04ff 	ands.w	r4, r4, #255	@ 0xff
 80010fe:	d1f7      	bne.n	80010f0 <SD_SendCmd+0x4a>
 8001100:	bd38      	pop	{r3, r4, r5, pc}
 8001102:	2095      	movs	r0, #149	@ 0x95
 8001104:	e7ed      	b.n	80010e2 <SD_SendCmd+0x3c>
 8001106:	20ff      	movs	r0, #255	@ 0xff
 8001108:	e7fa      	b.n	8001100 <SD_SendCmd+0x5a>
	...

0800110c <SD_RxDataBlock>:
 800110c:	23c8      	movs	r3, #200	@ 0xc8
 800110e:	b570      	push	{r4, r5, r6, lr}
 8001110:	4604      	mov	r4, r0
 8001112:	460e      	mov	r6, r1
 8001114:	4d0d      	ldr	r5, [pc, #52]	@ (800114c <SD_RxDataBlock+0x40>)
 8001116:	802b      	strh	r3, [r5, #0]
 8001118:	f7ff ff42 	bl	8000fa0 <SPI_RxByte>
 800111c:	28ff      	cmp	r0, #255	@ 0xff
 800111e:	d103      	bne.n	8001128 <SD_RxDataBlock+0x1c>
 8001120:	8828      	ldrh	r0, [r5, #0]
 8001122:	2800      	cmp	r0, #0
 8001124:	d1f8      	bne.n	8001118 <SD_RxDataBlock+0xc>
 8001126:	bd70      	pop	{r4, r5, r6, pc}
 8001128:	28fe      	cmp	r0, #254	@ 0xfe
 800112a:	d10d      	bne.n	8001148 <SD_RxDataBlock+0x3c>
 800112c:	1e65      	subs	r5, r4, #1
 800112e:	4434      	add	r4, r6
 8001130:	f7ff ff36 	bl	8000fa0 <SPI_RxByte>
 8001134:	f805 0f01 	strb.w	r0, [r5, #1]!
 8001138:	42a5      	cmp	r5, r4
 800113a:	d1f9      	bne.n	8001130 <SD_RxDataBlock+0x24>
 800113c:	f7ff ff30 	bl	8000fa0 <SPI_RxByte>
 8001140:	f7ff ff2e 	bl	8000fa0 <SPI_RxByte>
 8001144:	2001      	movs	r0, #1
 8001146:	e7ee      	b.n	8001126 <SD_RxDataBlock+0x1a>
 8001148:	2000      	movs	r0, #0
 800114a:	e7ec      	b.n	8001126 <SD_RxDataBlock+0x1a>
 800114c:	200000ae 	.word	0x200000ae

08001150 <SD_disk_initialize>:
 8001150:	e92d 41f3 	stmdb	sp!, {r0, r1, r4, r5, r6, r7, r8, lr}
 8001154:	2800      	cmp	r0, #0
 8001156:	f040 809d 	bne.w	8001294 <SD_disk_initialize+0x144>
 800115a:	4e4f      	ldr	r6, [pc, #316]	@ (8001298 <SD_disk_initialize+0x148>)
 800115c:	7835      	ldrb	r5, [r6, #0]
 800115e:	f015 0502 	ands.w	r5, r5, #2
 8001162:	d004      	beq.n	800116e <SD_disk_initialize+0x1e>
 8001164:	7830      	ldrb	r0, [r6, #0]
 8001166:	b2c0      	uxtb	r0, r0
 8001168:	b002      	add	sp, #8
 800116a:	e8bd 81f0 	ldmia.w	sp!, {r4, r5, r6, r7, r8, pc}
 800116e:	f7ff ff31 	bl	8000fd4 <SD_PowerOn>
 8001172:	f7ff fef9 	bl	8000f68 <SELECT>
 8001176:	4629      	mov	r1, r5
 8001178:	2040      	movs	r0, #64	@ 0x40
 800117a:	f7ff ff94 	bl	80010a6 <SD_SendCmd>
 800117e:	2801      	cmp	r0, #1
 8001180:	4604      	mov	r4, r0
 8001182:	d00d      	beq.n	80011a0 <SD_disk_initialize+0x50>
 8001184:	2400      	movs	r4, #0
 8001186:	4b45      	ldr	r3, [pc, #276]	@ (800129c <SD_disk_initialize+0x14c>)
 8001188:	701c      	strb	r4, [r3, #0]
 800118a:	f7ff fefb 	bl	8000f84 <DESELECT>
 800118e:	f7ff ff07 	bl	8000fa0 <SPI_RxByte>
 8001192:	2c00      	cmp	r4, #0
 8001194:	d07b      	beq.n	800128e <SD_disk_initialize+0x13e>
 8001196:	7833      	ldrb	r3, [r6, #0]
 8001198:	f003 03fe 	and.w	r3, r3, #254	@ 0xfe
 800119c:	7033      	strb	r3, [r6, #0]
 800119e:	e7e1      	b.n	8001164 <SD_disk_initialize+0x14>
 80011a0:	f44f 737a 	mov.w	r3, #1000	@ 0x3e8
 80011a4:	4f3e      	ldr	r7, [pc, #248]	@ (80012a0 <SD_disk_initialize+0x150>)
 80011a6:	f44f 71d5 	mov.w	r1, #426	@ 0x1aa
 80011aa:	2048      	movs	r0, #72	@ 0x48
 80011ac:	803b      	strh	r3, [r7, #0]
 80011ae:	f7ff ff7a 	bl	80010a6 <SD_SendCmd>
 80011b2:	2801      	cmp	r0, #1
 80011b4:	d13d      	bne.n	8001232 <SD_disk_initialize+0xe2>
 80011b6:	ad01      	add	r5, sp, #4
 80011b8:	46a8      	mov	r8, r5
 80011ba:	2404      	movs	r4, #4
 80011bc:	f7ff fef0 	bl	8000fa0 <SPI_RxByte>
 80011c0:	3c01      	subs	r4, #1
 80011c2:	f014 04ff 	ands.w	r4, r4, #255	@ 0xff
 80011c6:	f808 0b01 	strb.w	r0, [r8], #1
 80011ca:	d1f7      	bne.n	80011bc <SD_disk_initialize+0x6c>
 80011cc:	f89d 3006 	ldrb.w	r3, [sp, #6]
 80011d0:	2b01      	cmp	r3, #1
 80011d2:	d1d7      	bne.n	8001184 <SD_disk_initialize+0x34>
 80011d4:	f89d 3007 	ldrb.w	r3, [sp, #7]
 80011d8:	2baa      	cmp	r3, #170	@ 0xaa
 80011da:	d1d3      	bne.n	8001184 <SD_disk_initialize+0x34>
 80011dc:	2100      	movs	r1, #0
 80011de:	2077      	movs	r0, #119	@ 0x77
 80011e0:	f7ff ff61 	bl	80010a6 <SD_SendCmd>
 80011e4:	2801      	cmp	r0, #1
 80011e6:	d903      	bls.n	80011f0 <SD_disk_initialize+0xa0>
 80011e8:	883b      	ldrh	r3, [r7, #0]
 80011ea:	2b00      	cmp	r3, #0
 80011ec:	d1f6      	bne.n	80011dc <SD_disk_initialize+0x8c>
 80011ee:	e7c9      	b.n	8001184 <SD_disk_initialize+0x34>
 80011f0:	f04f 4180 	mov.w	r1, #1073741824	@ 0x40000000
 80011f4:	2069      	movs	r0, #105	@ 0x69
 80011f6:	f7ff ff56 	bl	80010a6 <SD_SendCmd>
 80011fa:	4601      	mov	r1, r0
 80011fc:	2800      	cmp	r0, #0
 80011fe:	d1f3      	bne.n	80011e8 <SD_disk_initialize+0x98>
 8001200:	883b      	ldrh	r3, [r7, #0]
 8001202:	2b00      	cmp	r3, #0
 8001204:	d0be      	beq.n	8001184 <SD_disk_initialize+0x34>
 8001206:	207a      	movs	r0, #122	@ 0x7a
 8001208:	f7ff ff4d 	bl	80010a6 <SD_SendCmd>
 800120c:	2800      	cmp	r0, #0
 800120e:	d1b9      	bne.n	8001184 <SD_disk_initialize+0x34>
 8001210:	2404      	movs	r4, #4
 8001212:	f7ff fec5 	bl	8000fa0 <SPI_RxByte>
 8001216:	3c01      	subs	r4, #1
 8001218:	f014 04ff 	ands.w	r4, r4, #255	@ 0xff
 800121c:	f805 0b01 	strb.w	r0, [r5], #1
 8001220:	d1f7      	bne.n	8001212 <SD_disk_initialize+0xc2>
 8001222:	f89d 3004 	ldrb.w	r3, [sp, #4]
 8001226:	f013 0f40 	tst.w	r3, #64	@ 0x40
 800122a:	bf0c      	ite	eq
 800122c:	2404      	moveq	r4, #4
 800122e:	240c      	movne	r4, #12
 8001230:	e7a9      	b.n	8001186 <SD_disk_initialize+0x36>
 8001232:	4629      	mov	r1, r5
 8001234:	2077      	movs	r0, #119	@ 0x77
 8001236:	f7ff ff36 	bl	80010a6 <SD_SendCmd>
 800123a:	2801      	cmp	r0, #1
 800123c:	d806      	bhi.n	800124c <SD_disk_initialize+0xfc>
 800123e:	4629      	mov	r1, r5
 8001240:	2069      	movs	r0, #105	@ 0x69
 8001242:	f7ff ff30 	bl	80010a6 <SD_SendCmd>
 8001246:	2801      	cmp	r0, #1
 8001248:	bf98      	it	ls
 800124a:	2402      	movls	r4, #2
 800124c:	2c02      	cmp	r4, #2
 800124e:	f04f 0100 	mov.w	r1, #0
 8001252:	d11a      	bne.n	800128a <SD_disk_initialize+0x13a>
 8001254:	2077      	movs	r0, #119	@ 0x77
 8001256:	f7ff ff26 	bl	80010a6 <SD_SendCmd>
 800125a:	2801      	cmp	r0, #1
 800125c:	d903      	bls.n	8001266 <SD_disk_initialize+0x116>
 800125e:	883b      	ldrh	r3, [r7, #0]
 8001260:	2b00      	cmp	r3, #0
 8001262:	d1f3      	bne.n	800124c <SD_disk_initialize+0xfc>
 8001264:	e78e      	b.n	8001184 <SD_disk_initialize+0x34>
 8001266:	2100      	movs	r1, #0
 8001268:	2069      	movs	r0, #105	@ 0x69
 800126a:	f7ff ff1c 	bl	80010a6 <SD_SendCmd>
 800126e:	2800      	cmp	r0, #0
 8001270:	d1f5      	bne.n	800125e <SD_disk_initialize+0x10e>
 8001272:	883b      	ldrh	r3, [r7, #0]
 8001274:	2b00      	cmp	r3, #0
 8001276:	d085      	beq.n	8001184 <SD_disk_initialize+0x34>
 8001278:	f44f 7100 	mov.w	r1, #512	@ 0x200
 800127c:	2050      	movs	r0, #80	@ 0x50
 800127e:	f7ff ff12 	bl	80010a6 <SD_SendCmd>
 8001282:	2800      	cmp	r0, #0
 8001284:	f47f af7e 	bne.w	8001184 <SD_disk_initialize+0x34>
 8001288:	e77d      	b.n	8001186 <SD_disk_initialize+0x36>
 800128a:	2041      	movs	r0, #65	@ 0x41
 800128c:	e7ed      	b.n	800126a <SD_disk_initialize+0x11a>
 800128e:	4b05      	ldr	r3, [pc, #20]	@ (80012a4 <SD_disk_initialize+0x154>)
 8001290:	701c      	strb	r4, [r3, #0]
 8001292:	e767      	b.n	8001164 <SD_disk_initialize+0x14>
 8001294:	2001      	movs	r0, #1
 8001296:	e767      	b.n	8001168 <SD_disk_initialize+0x18>
 8001298:	20000000 	.word	0x20000000
 800129c:	200000aa 	.word	0x200000aa
 80012a0:	200000ae 	.word	0x200000ae
 80012a4:	200000a9 	.word	0x200000a9

080012a8 <SD_disk_status>:
 80012a8:	b918      	cbnz	r0, 80012b2 <SD_disk_status+0xa>
 80012aa:	4b03      	ldr	r3, [pc, #12]	@ (80012b8 <SD_disk_status+0x10>)
 80012ac:	7818      	ldrb	r0, [r3, #0]
 80012ae:	b2c0      	uxtb	r0, r0
 80012b0:	4770      	bx	lr
 80012b2:	2001      	movs	r0, #1
 80012b4:	4770      	bx	lr
 80012b6:	bf00      	nop
 80012b8:	20000000 	.word	0x20000000

080012bc <SD_disk_read>:
 80012bc:	b570      	push	{r4, r5, r6, lr}
 80012be:	460e      	mov	r6, r1
 80012c0:	4615      	mov	r5, r2
 80012c2:	461c      	mov	r4, r3
 80012c4:	2800      	cmp	r0, #0
 80012c6:	d137      	bne.n	8001338 <SD_disk_read+0x7c>
 80012c8:	2b00      	cmp	r3, #0
 80012ca:	d035      	beq.n	8001338 <SD_disk_read+0x7c>
 80012cc:	4b1c      	ldr	r3, [pc, #112]	@ (8001340 <SD_disk_read+0x84>)
 80012ce:	781b      	ldrb	r3, [r3, #0]
 80012d0:	07da      	lsls	r2, r3, #31
 80012d2:	d433      	bmi.n	800133c <SD_disk_read+0x80>
 80012d4:	4b1b      	ldr	r3, [pc, #108]	@ (8001344 <SD_disk_read+0x88>)
 80012d6:	781b      	ldrb	r3, [r3, #0]
 80012d8:	075b      	lsls	r3, r3, #29
 80012da:	bf58      	it	pl
 80012dc:	026d      	lslpl	r5, r5, #9
 80012de:	f7ff fe43 	bl	8000f68 <SELECT>
 80012e2:	2c01      	cmp	r4, #1
 80012e4:	4629      	mov	r1, r5
 80012e6:	d113      	bne.n	8001310 <SD_disk_read+0x54>
 80012e8:	2051      	movs	r0, #81	@ 0x51
 80012ea:	f7ff fedc 	bl	80010a6 <SD_SendCmd>
 80012ee:	b938      	cbnz	r0, 8001300 <SD_disk_read+0x44>
 80012f0:	f44f 7100 	mov.w	r1, #512	@ 0x200
 80012f4:	4630      	mov	r0, r6
 80012f6:	f7ff ff09 	bl	800110c <SD_RxDataBlock>
 80012fa:	fab0 f480 	clz	r4, r0
 80012fe:	0964      	lsrs	r4, r4, #5
 8001300:	f7ff fe40 	bl	8000f84 <DESELECT>
 8001304:	f7ff fe4c 	bl	8000fa0 <SPI_RxByte>
 8001308:	1e20      	subs	r0, r4, #0
 800130a:	bf18      	it	ne
 800130c:	2001      	movne	r0, #1
 800130e:	bd70      	pop	{r4, r5, r6, pc}
 8001310:	2052      	movs	r0, #82	@ 0x52
 8001312:	f7ff fec8 	bl	80010a6 <SD_SendCmd>
 8001316:	2800      	cmp	r0, #0
 8001318:	d1f2      	bne.n	8001300 <SD_disk_read+0x44>
 800131a:	f44f 7100 	mov.w	r1, #512	@ 0x200
 800131e:	4630      	mov	r0, r6
 8001320:	f7ff fef4 	bl	800110c <SD_RxDataBlock>
 8001324:	b118      	cbz	r0, 800132e <SD_disk_read+0x72>
 8001326:	3c01      	subs	r4, #1
 8001328:	f506 7600 	add.w	r6, r6, #512	@ 0x200
 800132c:	d1f5      	bne.n	800131a <SD_disk_read+0x5e>
 800132e:	2100      	movs	r1, #0
 8001330:	204c      	movs	r0, #76	@ 0x4c
 8001332:	f7ff feb8 	bl	80010a6 <SD_SendCmd>
 8001336:	e7e3      	b.n	8001300 <SD_disk_read+0x44>
 8001338:	2004      	movs	r0, #4
 800133a:	e7e8      	b.n	800130e <SD_disk_read+0x52>
 800133c:	2003      	movs	r0, #3
 800133e:	e7e6      	b.n	800130e <SD_disk_read+0x52>
 8001340:	20000000 	.word	0x20000000
 8001344:	200000aa 	.word	0x200000aa

08001348 <SD_disk_write>:
 8001348:	b5f8      	push	{r3, r4, r5, r6, r7, lr}
 800134a:	460d      	mov	r5, r1
 800134c:	4616      	mov	r6, r2
 800134e:	461c      	mov	r4, r3
 8001350:	2800      	cmp	r0, #0
 8001352:	d147      	bne.n	80013e4 <SD_disk_write+0x9c>
 8001354:	2b00      	cmp	r3, #0
 8001356:	d045      	beq.n	80013e4 <SD_disk_write+0x9c>
 8001358:	4b25      	ldr	r3, [pc, #148]	@ (80013f0 <SD_disk_write+0xa8>)
 800135a:	781a      	ldrb	r2, [r3, #0]
 800135c:	07d0      	lsls	r0, r2, #31
 800135e:	d443      	bmi.n	80013e8 <SD_disk_write+0xa0>
 8001360:	781b      	ldrb	r3, [r3, #0]
 8001362:	0759      	lsls	r1, r3, #29
 8001364:	d442      	bmi.n	80013ec <SD_disk_write+0xa4>
 8001366:	4f23      	ldr	r7, [pc, #140]	@ (80013f4 <SD_disk_write+0xac>)
 8001368:	783b      	ldrb	r3, [r7, #0]
 800136a:	075a      	lsls	r2, r3, #29
 800136c:	bf58      	it	pl
 800136e:	0276      	lslpl	r6, r6, #9
 8001370:	f7ff fdfa 	bl	8000f68 <SELECT>
 8001374:	2c01      	cmp	r4, #1
 8001376:	d113      	bne.n	80013a0 <SD_disk_write+0x58>
 8001378:	4631      	mov	r1, r6
 800137a:	2058      	movs	r0, #88	@ 0x58
 800137c:	f7ff fe93 	bl	80010a6 <SD_SendCmd>
 8001380:	bb70      	cbnz	r0, 80013e0 <SD_disk_write+0x98>
 8001382:	21fe      	movs	r1, #254	@ 0xfe
 8001384:	4628      	mov	r0, r5
 8001386:	f7ff fe5f 	bl	8001048 <SD_TxDataBlock>
 800138a:	fab0 f480 	clz	r4, r0
 800138e:	0964      	lsrs	r4, r4, #5
 8001390:	f7ff fdf8 	bl	8000f84 <DESELECT>
 8001394:	f7ff fe04 	bl	8000fa0 <SPI_RxByte>
 8001398:	1e20      	subs	r0, r4, #0
 800139a:	bf18      	it	ne
 800139c:	2001      	movne	r0, #1
 800139e:	bdf8      	pop	{r3, r4, r5, r6, r7, pc}
 80013a0:	783b      	ldrb	r3, [r7, #0]
 80013a2:	079b      	lsls	r3, r3, #30
 80013a4:	d507      	bpl.n	80013b6 <SD_disk_write+0x6e>
 80013a6:	2100      	movs	r1, #0
 80013a8:	2077      	movs	r0, #119	@ 0x77
 80013aa:	f7ff fe7c 	bl	80010a6 <SD_SendCmd>
 80013ae:	4621      	mov	r1, r4
 80013b0:	2057      	movs	r0, #87	@ 0x57
 80013b2:	f7ff fe78 	bl	80010a6 <SD_SendCmd>
 80013b6:	4631      	mov	r1, r6
 80013b8:	2059      	movs	r0, #89	@ 0x59
 80013ba:	f7ff fe74 	bl	80010a6 <SD_SendCmd>
 80013be:	2800      	cmp	r0, #0
 80013c0:	d1e6      	bne.n	8001390 <SD_disk_write+0x48>
 80013c2:	21fc      	movs	r1, #252	@ 0xfc
 80013c4:	4628      	mov	r0, r5
 80013c6:	f7ff fe3f 	bl	8001048 <SD_TxDataBlock>
 80013ca:	b118      	cbz	r0, 80013d4 <SD_disk_write+0x8c>
 80013cc:	3c01      	subs	r4, #1
 80013ce:	f505 7500 	add.w	r5, r5, #512	@ 0x200
 80013d2:	d1f6      	bne.n	80013c2 <SD_disk_write+0x7a>
 80013d4:	21fd      	movs	r1, #253	@ 0xfd
 80013d6:	2000      	movs	r0, #0
 80013d8:	f7ff fe36 	bl	8001048 <SD_TxDataBlock>
 80013dc:	2800      	cmp	r0, #0
 80013de:	d1d7      	bne.n	8001390 <SD_disk_write+0x48>
 80013e0:	2401      	movs	r4, #1
 80013e2:	e7d5      	b.n	8001390 <SD_disk_write+0x48>
 80013e4:	2004      	movs	r0, #4
 80013e6:	e7da      	b.n	800139e <SD_disk_write+0x56>
 80013e8:	2003      	movs	r0, #3
 80013ea:	e7d8      	b.n	800139e <SD_disk_write+0x56>
 80013ec:	2002      	movs	r0, #2
 80013ee:	e7d6      	b.n	800139e <SD_disk_write+0x56>
 80013f0:	20000000 	.word	0x20000000
 80013f4:	200000aa 	.word	0x200000aa

080013f8 <SD_disk_ioctl>:
 80013f8:	b57f      	push	{r0, r1, r2, r3, r4, r5, r6, lr}
 80013fa:	460e      	mov	r6, r1
 80013fc:	4615      	mov	r5, r2
 80013fe:	4604      	mov	r4, r0
 8001400:	2800      	cmp	r0, #0
 8001402:	f040 808f 	bne.w	8001524 <SD_disk_ioctl+0x12c>
 8001406:	2905      	cmp	r1, #5
 8001408:	d113      	bne.n	8001432 <SD_disk_ioctl+0x3a>
 800140a:	7813      	ldrb	r3, [r2, #0]
 800140c:	2b01      	cmp	r3, #1
 800140e:	d009      	beq.n	8001424 <SD_disk_ioctl+0x2c>
 8001410:	2b02      	cmp	r3, #2
 8001412:	d00a      	beq.n	800142a <SD_disk_ioctl+0x32>
 8001414:	2b00      	cmp	r3, #0
 8001416:	f040 8085 	bne.w	8001524 <SD_disk_ioctl+0x12c>
 800141a:	4b44      	ldr	r3, [pc, #272]	@ (800152c <SD_disk_ioctl+0x134>)
 800141c:	7018      	strb	r0, [r3, #0]
 800141e:	4620      	mov	r0, r4
 8001420:	b004      	add	sp, #16
 8001422:	bd70      	pop	{r4, r5, r6, pc}
 8001424:	f7ff fdd6 	bl	8000fd4 <SD_PowerOn>
 8001428:	e7f9      	b.n	800141e <SD_disk_ioctl+0x26>
 800142a:	4b40      	ldr	r3, [pc, #256]	@ (800152c <SD_disk_ioctl+0x134>)
 800142c:	781b      	ldrb	r3, [r3, #0]
 800142e:	7053      	strb	r3, [r2, #1]
 8001430:	e7f5      	b.n	800141e <SD_disk_ioctl+0x26>
 8001432:	4b3f      	ldr	r3, [pc, #252]	@ (8001530 <SD_disk_ioctl+0x138>)
 8001434:	781c      	ldrb	r4, [r3, #0]
 8001436:	f014 0401 	ands.w	r4, r4, #1
 800143a:	d175      	bne.n	8001528 <SD_disk_ioctl+0x130>
 800143c:	f7ff fd94 	bl	8000f68 <SELECT>
 8001440:	2e0d      	cmp	r6, #13
 8001442:	d86d      	bhi.n	8001520 <SD_disk_ioctl+0x128>
 8001444:	e8df f006 	tbb	[pc, r6]
 8001448:	6c440748 	.word	0x6c440748
 800144c:	6c6c6c6c 	.word	0x6c6c6c6c
 8001450:	4f6c6c6c 	.word	0x4f6c6c6c
 8001454:	605d      	.short	0x605d
 8001456:	2100      	movs	r1, #0
 8001458:	2049      	movs	r0, #73	@ 0x49
 800145a:	f7ff fe24 	bl	80010a6 <SD_SendCmd>
 800145e:	b128      	cbz	r0, 800146c <SD_disk_ioctl+0x74>
 8001460:	2401      	movs	r4, #1
 8001462:	f7ff fd8f 	bl	8000f84 <DESELECT>
 8001466:	f7ff fd9b 	bl	8000fa0 <SPI_RxByte>
 800146a:	e7d8      	b.n	800141e <SD_disk_ioctl+0x26>
 800146c:	2110      	movs	r1, #16
 800146e:	4668      	mov	r0, sp
 8001470:	f7ff fe4c 	bl	800110c <SD_RxDataBlock>
 8001474:	2800      	cmp	r0, #0
 8001476:	d0f3      	beq.n	8001460 <SD_disk_ioctl+0x68>
 8001478:	f89d 1000 	ldrb.w	r1, [sp]
 800147c:	f89d 3009 	ldrb.w	r3, [sp, #9]
 8001480:	0989      	lsrs	r1, r1, #6
 8001482:	2901      	cmp	r1, #1
 8001484:	f89d 2008 	ldrb.w	r2, [sp, #8]
 8001488:	d106      	bne.n	8001498 <SD_disk_ioctl+0xa0>
 800148a:	3301      	adds	r3, #1
 800148c:	eb03 2302 	add.w	r3, r3, r2, lsl #8
 8001490:	b29b      	uxth	r3, r3
 8001492:	029b      	lsls	r3, r3, #10
 8001494:	602b      	str	r3, [r5, #0]
 8001496:	e7e4      	b.n	8001462 <SD_disk_ioctl+0x6a>
 8001498:	f89d 1007 	ldrb.w	r1, [sp, #7]
 800149c:	0992      	lsrs	r2, r2, #6
 800149e:	eb02 0281 	add.w	r2, r2, r1, lsl #2
 80014a2:	f89d 1006 	ldrb.w	r1, [sp, #6]
 80014a6:	3201      	adds	r2, #1
 80014a8:	0289      	lsls	r1, r1, #10
 80014aa:	f401 6140 	and.w	r1, r1, #3072	@ 0xc00
 80014ae:	440a      	add	r2, r1
 80014b0:	f89d 1005 	ldrb.w	r1, [sp, #5]
 80014b4:	f89d 000a 	ldrb.w	r0, [sp, #10]
 80014b8:	f001 010f 	and.w	r1, r1, #15
 80014bc:	005b      	lsls	r3, r3, #1
 80014be:	eb01 11d0 	add.w	r1, r1, r0, lsr #7
 80014c2:	f003 0306 	and.w	r3, r3, #6
 80014c6:	440b      	add	r3, r1
 80014c8:	3b07      	subs	r3, #7
 80014ca:	fa02 f303 	lsl.w	r3, r2, r3
 80014ce:	e7e1      	b.n	8001494 <SD_disk_ioctl+0x9c>
 80014d0:	f44f 7300 	mov.w	r3, #512	@ 0x200
 80014d4:	802b      	strh	r3, [r5, #0]
 80014d6:	e7c4      	b.n	8001462 <SD_disk_ioctl+0x6a>
 80014d8:	f7ff fda6 	bl	8001028 <SD_ReadyWait>
 80014dc:	f1b0 04ff 	subs.w	r4, r0, #255	@ 0xff
 80014e0:	bf18      	it	ne
 80014e2:	2401      	movne	r4, #1
 80014e4:	e7bd      	b.n	8001462 <SD_disk_ioctl+0x6a>
 80014e6:	2100      	movs	r1, #0
 80014e8:	2049      	movs	r0, #73	@ 0x49
 80014ea:	f7ff fddc 	bl	80010a6 <SD_SendCmd>
 80014ee:	2800      	cmp	r0, #0
 80014f0:	d1b6      	bne.n	8001460 <SD_disk_ioctl+0x68>
 80014f2:	2110      	movs	r1, #16
 80014f4:	4628      	mov	r0, r5
 80014f6:	f7ff fe09 	bl	800110c <SD_RxDataBlock>
 80014fa:	fab0 f480 	clz	r4, r0
 80014fe:	0964      	lsrs	r4, r4, #5
 8001500:	e7af      	b.n	8001462 <SD_disk_ioctl+0x6a>
 8001502:	2100      	movs	r1, #0
 8001504:	204a      	movs	r0, #74	@ 0x4a
 8001506:	e7f0      	b.n	80014ea <SD_disk_ioctl+0xf2>
 8001508:	2100      	movs	r1, #0
 800150a:	207a      	movs	r0, #122	@ 0x7a
 800150c:	f7ff fdcb 	bl	80010a6 <SD_SendCmd>
 8001510:	b930      	cbnz	r0, 8001520 <SD_disk_ioctl+0x128>
 8001512:	1d2c      	adds	r4, r5, #4
 8001514:	f7ff fd44 	bl	8000fa0 <SPI_RxByte>
 8001518:	f805 0b01 	strb.w	r0, [r5], #1
 800151c:	42ac      	cmp	r4, r5
 800151e:	d1f9      	bne.n	8001514 <SD_disk_ioctl+0x11c>
 8001520:	2404      	movs	r4, #4
 8001522:	e79e      	b.n	8001462 <SD_disk_ioctl+0x6a>
 8001524:	2404      	movs	r4, #4
 8001526:	e77a      	b.n	800141e <SD_disk_ioctl+0x26>
 8001528:	2403      	movs	r4, #3
 800152a:	e778      	b.n	800141e <SD_disk_ioctl+0x26>
 800152c:	200000a9 	.word	0x200000a9
 8001530:	20000000 	.word	0x20000000

08001534 <Error_Handler>:
 8001534:	b510      	push	{r4, lr}
 8001536:	b672      	cpsid	i
 8001538:	4c0a      	ldr	r4, [pc, #40]	@ (8001564 <Error_Handler+0x30>)
 800153a:	2201      	movs	r2, #1
 800153c:	2140      	movs	r1, #64	@ 0x40
 800153e:	4620      	mov	r0, r4
 8001540:	f000 fffc 	bl	800253c <HAL_GPIO_WritePin>
 8001544:	f44f 70fa 	mov.w	r0, #500	@ 0x1f4
 8001548:	f000 fbb2 	bl	8001cb0 <HAL_Delay>
 800154c:	4620      	mov	r0, r4
 800154e:	2200      	movs	r2, #0
 8001550:	2140      	movs	r1, #64	@ 0x40
 8001552:	f000 fff3 	bl	800253c <HAL_GPIO_WritePin>
 8001556:	e8bd 4010 	ldmia.w	sp!, {r4, lr}
 800155a:	f44f 70fa 	mov.w	r0, #500	@ 0x1f4
 800155e:	f000 bba7 	b.w	8001cb0 <HAL_Delay>
 8001562:	bf00      	nop
 8001564:	40010800 	.word	0x40010800

08001568 <SystemClock_Config>:
 8001568:	b510      	push	{r4, lr}
 800156a:	b090      	sub	sp, #64	@ 0x40
 800156c:	2214      	movs	r2, #20
 800156e:	2100      	movs	r1, #0
 8001570:	a808      	add	r0, sp, #32
 8001572:	f004 f815 	bl	80055a0 <memset>
 8001576:	2214      	movs	r2, #20
 8001578:	2100      	movs	r1, #0
 800157a:	a801      	add	r0, sp, #4
 800157c:	f004 f810 	bl	80055a0 <memset>
 8001580:	2402      	movs	r4, #2
 8001582:	f44f 3380 	mov.w	r3, #65536	@ 0x10000
 8001586:	2201      	movs	r2, #1
 8001588:	e9cd 430d 	strd	r4, r3, [sp, #52]	@ 0x34
 800158c:	e9cd 2306 	strd	r2, r3, [sp, #24]
 8001590:	f44f 13e0 	mov.w	r3, #1835008	@ 0x1c0000
 8001594:	a806      	add	r0, sp, #24
 8001596:	920a      	str	r2, [sp, #40]	@ 0x28
 8001598:	930f      	str	r3, [sp, #60]	@ 0x3c
 800159a:	f001 fadd 	bl	8002b58 <HAL_RCC_OscConfig>
 800159e:	b108      	cbz	r0, 80015a4 <SystemClock_Config+0x3c>
 80015a0:	f7ff ffc8 	bl	8001534 <Error_Handler>
 80015a4:	230f      	movs	r3, #15
 80015a6:	f44f 6280 	mov.w	r2, #1024	@ 0x400
 80015aa:	e9cd 3401 	strd	r3, r4, [sp, #4]
 80015ae:	2300      	movs	r3, #0
 80015b0:	2102      	movs	r1, #2
 80015b2:	a801      	add	r0, sp, #4
 80015b4:	e9cd 3203 	strd	r3, r2, [sp, #12]
 80015b8:	9305      	str	r3, [sp, #20]
 80015ba:	f001 fc8f 	bl	8002edc <HAL_RCC_ClockConfig>
 80015be:	b108      	cbz	r0, 80015c4 <SystemClock_Config+0x5c>
 80015c0:	f7ff ffb8 	bl	8001534 <Error_Handler>
 80015c4:	b010      	add	sp, #64	@ 0x40
 80015c6:	bd10      	pop	{r4, pc}

080015c8 <main>:
 80015c8:	e92d 47f0 	stmdb	sp!, {r4, r5, r6, r7, r8, r9, sl, lr}
 80015cc:	b096      	sub	sp, #88	@ 0x58
 80015ce:	f000 fb4b 	bl	8001c68 <HAL_Init>
 80015d2:	f7ff ffc9 	bl	8001568 <SystemClock_Config>
 80015d6:	2210      	movs	r2, #16
 80015d8:	2100      	movs	r1, #0
 80015da:	a80a      	add	r0, sp, #40	@ 0x28
 80015dc:	f003 ffe0 	bl	80055a0 <memset>
 80015e0:	4b92      	ldr	r3, [pc, #584]	@ (800182c <main+0x264>)
 80015e2:	f44f 4160 	mov.w	r1, #57344	@ 0xe000
 80015e6:	699a      	ldr	r2, [r3, #24]
 80015e8:	4891      	ldr	r0, [pc, #580]	@ (8001830 <main+0x268>)
 80015ea:	f042 0210 	orr.w	r2, r2, #16
 80015ee:	619a      	str	r2, [r3, #24]
 80015f0:	699a      	ldr	r2, [r3, #24]
 80015f2:	2400      	movs	r4, #0
 80015f4:	f002 0210 	and.w	r2, r2, #16
 80015f8:	9204      	str	r2, [sp, #16]
 80015fa:	9a04      	ldr	r2, [sp, #16]
 80015fc:	699a      	ldr	r2, [r3, #24]
 80015fe:	2502      	movs	r5, #2
 8001600:	f042 0220 	orr.w	r2, r2, #32
 8001604:	619a      	str	r2, [r3, #24]
 8001606:	699a      	ldr	r2, [r3, #24]
 8001608:	2601      	movs	r6, #1
 800160a:	f002 0220 	and.w	r2, r2, #32
 800160e:	9205      	str	r2, [sp, #20]
 8001610:	9a05      	ldr	r2, [sp, #20]
 8001612:	699a      	ldr	r2, [r3, #24]
 8001614:	4f87      	ldr	r7, [pc, #540]	@ (8001834 <main+0x26c>)
 8001616:	f042 0204 	orr.w	r2, r2, #4
 800161a:	619a      	str	r2, [r3, #24]
 800161c:	699a      	ldr	r2, [r3, #24]
 800161e:	f002 0204 	and.w	r2, r2, #4
 8001622:	9206      	str	r2, [sp, #24]
 8001624:	9a06      	ldr	r2, [sp, #24]
 8001626:	699a      	ldr	r2, [r3, #24]
 8001628:	f042 0208 	orr.w	r2, r2, #8
 800162c:	619a      	str	r2, [r3, #24]
 800162e:	699b      	ldr	r3, [r3, #24]
 8001630:	2200      	movs	r2, #0
 8001632:	f003 0308 	and.w	r3, r3, #8
 8001636:	9307      	str	r3, [sp, #28]
 8001638:	9b07      	ldr	r3, [sp, #28]
 800163a:	f000 ff7f 	bl	800253c <HAL_GPIO_WritePin>
 800163e:	2200      	movs	r2, #0
 8001640:	f44f 7188 	mov.w	r1, #272	@ 0x110
 8001644:	487c      	ldr	r0, [pc, #496]	@ (8001838 <main+0x270>)
 8001646:	f000 ff79 	bl	800253c <HAL_GPIO_WritePin>
 800164a:	2200      	movs	r2, #0
 800164c:	2120      	movs	r1, #32
 800164e:	487b      	ldr	r0, [pc, #492]	@ (800183c <main+0x274>)
 8001650:	f000 ff74 	bl	800253c <HAL_GPIO_WritePin>
 8001654:	f44f 4360 	mov.w	r3, #57344	@ 0xe000
 8001658:	4875      	ldr	r0, [pc, #468]	@ (8001830 <main+0x268>)
 800165a:	a90a      	add	r1, sp, #40	@ 0x28
 800165c:	e9cd 360a 	strd	r3, r6, [sp, #40]	@ 0x28
 8001660:	e9cd 450c 	strd	r4, r5, [sp, #48]	@ 0x30
 8001664:	f000 fe96 	bl	8002394 <HAL_GPIO_Init>
 8001668:	2303      	movs	r3, #3
 800166a:	4873      	ldr	r0, [pc, #460]	@ (8001838 <main+0x270>)
 800166c:	a90a      	add	r1, sp, #40	@ 0x28
 800166e:	930b      	str	r3, [sp, #44]	@ 0x2c
 8001670:	950a      	str	r5, [sp, #40]	@ 0x28
 8001672:	f000 fe8f 	bl	8002394 <HAL_GPIO_Init>
 8001676:	2304      	movs	r3, #4
 8001678:	486f      	ldr	r0, [pc, #444]	@ (8001838 <main+0x270>)
 800167a:	a90a      	add	r1, sp, #40	@ 0x28
 800167c:	e9cd 340a 	strd	r3, r4, [sp, #40]	@ 0x28
 8001680:	940c      	str	r4, [sp, #48]	@ 0x30
 8001682:	f000 fe87 	bl	8002394 <HAL_GPIO_Init>
 8001686:	f44f 7388 	mov.w	r3, #272	@ 0x110
 800168a:	486b      	ldr	r0, [pc, #428]	@ (8001838 <main+0x270>)
 800168c:	a90a      	add	r1, sp, #40	@ 0x28
 800168e:	e9cd 360a 	strd	r3, r6, [sp, #40]	@ 0x28
 8001692:	e9cd 450c 	strd	r4, r5, [sp, #48]	@ 0x30
 8001696:	f000 fe7d 	bl	8002394 <HAL_GPIO_Init>
 800169a:	f24c 0309 	movw	r3, #49161	@ 0xc009
 800169e:	4867      	ldr	r0, [pc, #412]	@ (800183c <main+0x274>)
 80016a0:	a90a      	add	r1, sp, #40	@ 0x28
 80016a2:	e9cd 340a 	strd	r3, r4, [sp, #40]	@ 0x28
 80016a6:	940c      	str	r4, [sp, #48]	@ 0x30
 80016a8:	f000 fe74 	bl	8002394 <HAL_GPIO_Init>
 80016ac:	2320      	movs	r3, #32
 80016ae:	4863      	ldr	r0, [pc, #396]	@ (800183c <main+0x274>)
 80016b0:	a90a      	add	r1, sp, #40	@ 0x28
 80016b2:	e9cd 360a 	strd	r3, r6, [sp, #40]	@ 0x28
 80016b6:	e9cd 450c 	strd	r4, r5, [sp, #48]	@ 0x30
 80016ba:	f000 fe6b 	bl	8002394 <HAL_GPIO_Init>
 80016be:	4860      	ldr	r0, [pc, #384]	@ (8001840 <main+0x278>)
 80016c0:	4b60      	ldr	r3, [pc, #384]	@ (8001844 <main+0x27c>)
 80016c2:	e9c0 4402 	strd	r4, r4, [r0, #8]
 80016c6:	e9c0 7300 	strd	r7, r3, [r0]
 80016ca:	f44f 4380 	mov.w	r3, #16384	@ 0x4000
 80016ce:	e9c0 4406 	strd	r4, r4, [r0, #24]
 80016d2:	e9c0 3404 	strd	r3, r4, [r0, #16]
 80016d6:	6204      	str	r4, [r0, #32]
 80016d8:	f000 ffea 	bl	80026b0 <HAL_I2C_Init>
 80016dc:	b108      	cbz	r0, 80016e2 <main+0x11a>
 80016de:	f7ff ff29 	bl	8001534 <Error_Handler>
 80016e2:	2304      	movs	r3, #4
 80016e4:	4858      	ldr	r0, [pc, #352]	@ (8001848 <main+0x280>)
 80016e6:	4d59      	ldr	r5, [pc, #356]	@ (800184c <main+0x284>)
 80016e8:	f44f 2660 	mov.w	r6, #917504	@ 0xe0000
 80016ec:	e9c0 5300 	strd	r5, r3, [r0]
 80016f0:	f44f 1380 	mov.w	r3, #1048576	@ 0x100000
 80016f4:	2400      	movs	r4, #0
 80016f6:	e9c0 6304 	strd	r6, r3, [r0, #16]
 80016fa:	f04f 2301 	mov.w	r3, #16777472	@ 0x1000100
 80016fe:	e9c0 4402 	strd	r4, r4, [r0, #8]
 8001702:	6183      	str	r3, [r0, #24]
 8001704:	8384      	strh	r4, [r0, #28]
 8001706:	f000 fae5 	bl	8001cd4 <HAL_CAN_Init>
 800170a:	b108      	cbz	r0, 8001710 <main+0x148>
 800170c:	f7ff ff12 	bl	8001534 <Error_Handler>
 8001710:	2301      	movs	r3, #1
 8001712:	9311      	str	r3, [sp, #68]	@ 0x44
 8001714:	9312      	str	r3, [sp, #72]	@ 0x48
 8001716:	230e      	movs	r3, #14
 8001718:	484b      	ldr	r0, [pc, #300]	@ (8001848 <main+0x280>)
 800171a:	a90a      	add	r1, sp, #40	@ 0x28
 800171c:	e9cd 440f 	strd	r4, r4, [sp, #60]	@ 0x3c
 8001720:	e9cd 440a 	strd	r4, r4, [sp, #40]	@ 0x28
 8001724:	e9cd 440c 	strd	r4, r4, [sp, #48]	@ 0x30
 8001728:	940e      	str	r4, [sp, #56]	@ 0x38
 800172a:	9313      	str	r3, [sp, #76]	@ 0x4c
 800172c:	f000 fb4d 	bl	8001dca <HAL_CAN_ConfigFilter>
 8001730:	b108      	cbz	r0, 8001736 <main+0x16e>
 8001732:	f7ff feff 	bl	8001534 <Error_Handler>
 8001736:	4844      	ldr	r0, [pc, #272]	@ (8001848 <main+0x280>)
 8001738:	f000 fbb7 	bl	8001eaa <HAL_CAN_Start>
 800173c:	b108      	cbz	r0, 8001742 <main+0x17a>
 800173e:	f7ff fef9 	bl	8001534 <Error_Handler>
 8001742:	2102      	movs	r1, #2
 8001744:	4840      	ldr	r0, [pc, #256]	@ (8001848 <main+0x280>)
 8001746:	f000 fca0 	bl	800208a <HAL_CAN_ActivateNotification>
 800174a:	b108      	cbz	r0, 8001750 <main+0x188>
 800174c:	f7ff fef2 	bl	8001534 <Error_Handler>
 8001750:	f44f 33e1 	mov.w	r3, #115200	@ 0x1c200
 8001754:	483e      	ldr	r0, [pc, #248]	@ (8001850 <main+0x288>)
 8001756:	4c3f      	ldr	r4, [pc, #252]	@ (8001854 <main+0x28c>)
 8001758:	220c      	movs	r2, #12
 800175a:	e9c0 4300 	strd	r4, r3, [r0]
 800175e:	2300      	movs	r3, #0
 8001760:	e9c0 3302 	strd	r3, r3, [r0, #8]
 8001764:	e9c0 2305 	strd	r2, r3, [r0, #20]
 8001768:	6103      	str	r3, [r0, #16]
 800176a:	61c3      	str	r3, [r0, #28]
 800176c:	f001 ff88 	bl	8003680 <HAL_UART_Init>
 8001770:	b108      	cbz	r0, 8001776 <main+0x1ae>
 8001772:	f7ff fedf 	bl	8001534 <Error_Handler>
 8001776:	f44f 7382 	mov.w	r3, #260	@ 0x104
 800177a:	4837      	ldr	r0, [pc, #220]	@ (8001858 <main+0x290>)
 800177c:	4a37      	ldr	r2, [pc, #220]	@ (800185c <main+0x294>)
 800177e:	f44f 7100 	mov.w	r1, #512	@ 0x200
 8001782:	e9c0 2300 	strd	r2, r3, [r0]
 8001786:	2300      	movs	r3, #0
 8001788:	2208      	movs	r2, #8
 800178a:	e9c0 3302 	strd	r3, r3, [r0, #8]
 800178e:	e9c0 3304 	strd	r3, r3, [r0, #16]
 8001792:	e9c0 3308 	strd	r3, r3, [r0, #32]
 8001796:	6283      	str	r3, [r0, #40]	@ 0x28
 8001798:	230a      	movs	r3, #10
 800179a:	e9c0 1206 	strd	r1, r2, [r0, #24]
 800179e:	62c3      	str	r3, [r0, #44]	@ 0x2c
 80017a0:	f001 fcd0 	bl	8003144 <HAL_SPI_Init>
 80017a4:	b108      	cbz	r0, 80017aa <main+0x1e2>
 80017a6:	f7ff fec5 	bl	8001534 <Error_Handler>
 80017aa:	f001 ffe7 	bl	800377c <MX_FATFS_Init>
 80017ae:	f44f 70fa 	mov.w	r0, #500	@ 0x1f4
 80017b2:	4c2b      	ldr	r4, [pc, #172]	@ (8001860 <main+0x298>)
 80017b4:	f000 fa7c 	bl	8001cb0 <HAL_Delay>
 80017b8:	2200      	movs	r2, #0
 80017ba:	492a      	ldr	r1, [pc, #168]	@ (8001864 <main+0x29c>)
 80017bc:	482a      	ldr	r0, [pc, #168]	@ (8001868 <main+0x2a0>)
 80017be:	f003 f8a3 	bl	8004908 <f_mount>
 80017c2:	2213      	movs	r2, #19
 80017c4:	4929      	ldr	r1, [pc, #164]	@ (800186c <main+0x2a4>)
 80017c6:	482a      	ldr	r0, [pc, #168]	@ (8001870 <main+0x2a8>)
 80017c8:	f003 f8cc 	bl	8004964 <f_open>
 80017cc:	68e1      	ldr	r1, [r4, #12]
 80017ce:	f5a4 5080 	sub.w	r0, r4, #4096	@ 0x1000
 80017d2:	f003 fb01 	bl	8004dd8 <f_lseek>
 80017d6:	f5a4 5180 	sub.w	r1, r4, #4096	@ 0x1000
 80017da:	4826      	ldr	r0, [pc, #152]	@ (8001874 <main+0x2ac>)
 80017dc:	f003 fc29 	bl	8005032 <f_puts>
 80017e0:	f5a4 5080 	sub.w	r0, r4, #4096	@ 0x1000
 80017e4:	f003 fae7 	bl	8004db6 <f_close>
 80017e8:	4915      	ldr	r1, [pc, #84]	@ (8001840 <main+0x278>)
 80017ea:	a80a      	add	r0, sp, #40	@ 0x28
 80017ec:	f7ff f94c 	bl	8000a88 <MS4525DO_Initialize>
 80017f0:	ac08      	add	r4, sp, #32
 80017f2:	ad02      	add	r5, sp, #8
 80017f4:	a80a      	add	r0, sp, #40	@ 0x28
 80017f6:	f7ff fa8b 	bl	8000d10 <read_MS4525DO>
 80017fa:	e9dd 6712 	ldrd	r6, r7, [sp, #72]	@ 0x48
 80017fe:	e9dd 8914 	ldrd	r8, r9, [sp, #80]	@ 0x50
 8001802:	e9cd 6702 	strd	r6, r7, [sp, #8]
 8001806:	f8bd a02e 	ldrh.w	sl, [sp, #46]	@ 0x2e
 800180a:	e895 0003 	ldmia.w	r5, {r0, r1}
 800180e:	e884 0003 	stmia.w	r4, {r0, r1}
 8001812:	4620      	mov	r0, r4
 8001814:	f7ff fb58 	bl	8000ec8 <send_can_message>
 8001818:	4642      	mov	r2, r8
 800181a:	464b      	mov	r3, r9
 800181c:	4630      	mov	r0, r6
 800181e:	4639      	mov	r1, r7
 8001820:	f8cd a000 	str.w	sl, [sp]
 8001824:	f000 f828 	bl	8001878 <save_sd>
 8001828:	e7e4      	b.n	80017f4 <main+0x22c>
 800182a:	bf00      	nop
 800182c:	40021000 	.word	0x40021000
 8001830:	40011000 	.word	0x40011000
 8001834:	40005400 	.word	0x40005400
 8001838:	40010800 	.word	0x40010800
 800183c:	40010c00 	.word	0x40010c00
 8001840:	20000150 	.word	0x20000150
 8001844:	000186a0 	.word	0x000186a0
 8001848:	200001a4 	.word	0x200001a4
 800184c:	40006400 	.word	0x40006400
 8001850:	200000b0 	.word	0x200000b0
 8001854:	40013800 	.word	0x40013800
 8001858:	200000f8 	.word	0x200000f8
 800185c:	40013000 	.word	0x40013000
 8001860:	200011cc 	.word	0x200011cc
 8001864:	08006637 	.word	0x08006637
 8001868:	200011f8 	.word	0x200011f8
 800186c:	08006662 	.word	0x08006662
 8001870:	200001cc 	.word	0x200001cc
 8001874:	0800666c 	.word	0x0800666c

08001878 <save_sd>:
 8001878:	e92d 41f0 	stmdb	sp!, {r4, r5, r6, r7, r8, lr}
 800187c:	4616      	mov	r6, r2
 800187e:	461f      	mov	r7, r3
 8001880:	f5ad 5d86 	sub.w	sp, sp, #4288	@ 0x10c0
 8001884:	b082      	sub	sp, #8
 8001886:	f50d 5387 	add.w	r3, sp, #4320	@ 0x10e0
 800188a:	f8b3 8000 	ldrh.w	r8, [r3]
 800188e:	4602      	mov	r2, r0
 8001890:	460b      	mov	r3, r1
 8001892:	4604      	mov	r4, r0
 8001894:	e9cd 6700 	strd	r6, r7, [sp]
 8001898:	4819      	ldr	r0, [pc, #100]	@ (8001900 <save_sd+0x88>)
 800189a:	f8cd 8008 	str.w	r8, [sp, #8]
 800189e:	460d      	mov	r5, r1
 80018a0:	f003 fd00 	bl	80052a4 <iprintf>
 80018a4:	f000 f9fe 	bl	8001ca4 <HAL_GetTick>
 80018a8:	2180      	movs	r1, #128	@ 0x80
 80018aa:	4603      	mov	r3, r0
 80018ac:	4a15      	ldr	r2, [pc, #84]	@ (8001904 <save_sd+0x8c>)
 80018ae:	e9cd 6702 	strd	r6, r7, [sp, #8]
 80018b2:	e9cd 4500 	strd	r4, r5, [sp]
 80018b6:	f8cd 8010 	str.w	r8, [sp, #16]
 80018ba:	a807      	add	r0, sp, #28
 80018bc:	f003 fd62 	bl	8005384 <sniprintf>
 80018c0:	2212      	movs	r2, #18
 80018c2:	4911      	ldr	r1, [pc, #68]	@ (8001908 <save_sd+0x90>)
 80018c4:	a827      	add	r0, sp, #156	@ 0x9c
 80018c6:	f003 f84d 	bl	8004964 <f_open>
 80018ca:	b950      	cbnz	r0, 80018e2 <save_sd+0x6a>
 80018cc:	f50d 5385 	add.w	r3, sp, #4256	@ 0x10a0
 80018d0:	a827      	add	r0, sp, #156	@ 0x9c
 80018d2:	6899      	ldr	r1, [r3, #8]
 80018d4:	3308      	adds	r3, #8
 80018d6:	f003 fa7f 	bl	8004dd8 <f_lseek>
 80018da:	b138      	cbz	r0, 80018ec <save_sd+0x74>
 80018dc:	a827      	add	r0, sp, #156	@ 0x9c
 80018de:	f003 fa6a 	bl	8004db6 <f_close>
 80018e2:	f50d 5d86 	add.w	sp, sp, #4288	@ 0x10c0
 80018e6:	b002      	add	sp, #8
 80018e8:	e8bd 81f0 	ldmia.w	sp!, {r4, r5, r6, r7, r8, pc}
 80018ec:	a807      	add	r0, sp, #28
 80018ee:	f7fe fc2f 	bl	8000150 <strlen>
 80018f2:	ab06      	add	r3, sp, #24
 80018f4:	4602      	mov	r2, r0
 80018f6:	a907      	add	r1, sp, #28
 80018f8:	a827      	add	r0, sp, #156	@ 0x9c
 80018fa:	f003 f90f 	bl	8004b1c <f_write>
 80018fe:	e7ed      	b.n	80018dc <save_sd+0x64>
 8001900:	0800667e 	.word	0x0800667e
 8001904:	080066bd 	.word	0x080066bd
 8001908:	080066d1 	.word	0x080066d1

0800190c <HAL_MspInit>:
 800190c:	4b0e      	ldr	r3, [pc, #56]	@ (8001948 <HAL_MspInit+0x3c>)
 800190e:	b082      	sub	sp, #8
 8001910:	699a      	ldr	r2, [r3, #24]
 8001912:	f042 0201 	orr.w	r2, r2, #1
 8001916:	619a      	str	r2, [r3, #24]
 8001918:	699a      	ldr	r2, [r3, #24]
 800191a:	f002 0201 	and.w	r2, r2, #1
 800191e:	9200      	str	r2, [sp, #0]
 8001920:	9a00      	ldr	r2, [sp, #0]
 8001922:	69da      	ldr	r2, [r3, #28]
 8001924:	f042 5280 	orr.w	r2, r2, #268435456	@ 0x10000000
 8001928:	61da      	str	r2, [r3, #28]
 800192a:	69db      	ldr	r3, [r3, #28]
 800192c:	4a07      	ldr	r2, [pc, #28]	@ (800194c <HAL_MspInit+0x40>)
 800192e:	f003 5380 	and.w	r3, r3, #268435456	@ 0x10000000
 8001932:	9301      	str	r3, [sp, #4]
 8001934:	9b01      	ldr	r3, [sp, #4]
 8001936:	6853      	ldr	r3, [r2, #4]
 8001938:	f023 63e0 	bic.w	r3, r3, #117440512	@ 0x7000000
 800193c:	f043 7300 	orr.w	r3, r3, #33554432	@ 0x2000000
 8001940:	6053      	str	r3, [r2, #4]
 8001942:	b002      	add	sp, #8
 8001944:	4770      	bx	lr
 8001946:	bf00      	nop
 8001948:	40021000 	.word	0x40021000
 800194c:	40010000 	.word	0x40010000

08001950 <HAL_CAN_MspInit>:
 8001950:	b510      	push	{r4, lr}
 8001952:	4604      	mov	r4, r0
 8001954:	b086      	sub	sp, #24
 8001956:	2210      	movs	r2, #16
 8001958:	2100      	movs	r1, #0
 800195a:	a802      	add	r0, sp, #8
 800195c:	f003 fe20 	bl	80055a0 <memset>
 8001960:	6822      	ldr	r2, [r4, #0]
 8001962:	4b19      	ldr	r3, [pc, #100]	@ (80019c8 <HAL_CAN_MspInit+0x78>)
 8001964:	429a      	cmp	r2, r3
 8001966:	d12d      	bne.n	80019c4 <HAL_CAN_MspInit+0x74>
 8001968:	f503 33d6 	add.w	r3, r3, #109568	@ 0x1ac00
 800196c:	69da      	ldr	r2, [r3, #28]
 800196e:	4817      	ldr	r0, [pc, #92]	@ (80019cc <HAL_CAN_MspInit+0x7c>)
 8001970:	f042 7200 	orr.w	r2, r2, #33554432	@ 0x2000000
 8001974:	61da      	str	r2, [r3, #28]
 8001976:	69da      	ldr	r2, [r3, #28]
 8001978:	a902      	add	r1, sp, #8
 800197a:	f002 7200 	and.w	r2, r2, #33554432	@ 0x2000000
 800197e:	9200      	str	r2, [sp, #0]
 8001980:	9a00      	ldr	r2, [sp, #0]
 8001982:	699a      	ldr	r2, [r3, #24]
 8001984:	f042 0204 	orr.w	r2, r2, #4
 8001988:	619a      	str	r2, [r3, #24]
 800198a:	699b      	ldr	r3, [r3, #24]
 800198c:	f003 0304 	and.w	r3, r3, #4
 8001990:	9301      	str	r3, [sp, #4]
 8001992:	9b01      	ldr	r3, [sp, #4]
 8001994:	f44f 6300 	mov.w	r3, #2048	@ 0x800
 8001998:	9302      	str	r3, [sp, #8]
 800199a:	f000 fcfb 	bl	8002394 <HAL_GPIO_Init>
 800199e:	f44f 5280 	mov.w	r2, #4096	@ 0x1000
 80019a2:	2302      	movs	r3, #2
 80019a4:	e9cd 2302 	strd	r2, r3, [sp, #8]
 80019a8:	2303      	movs	r3, #3
 80019aa:	4808      	ldr	r0, [pc, #32]	@ (80019cc <HAL_CAN_MspInit+0x7c>)
 80019ac:	a902      	add	r1, sp, #8
 80019ae:	9305      	str	r3, [sp, #20]
 80019b0:	f000 fcf0 	bl	8002394 <HAL_GPIO_Init>
 80019b4:	2200      	movs	r2, #0
 80019b6:	2014      	movs	r0, #20
 80019b8:	4611      	mov	r1, r2
 80019ba:	f000 fc99 	bl	80022f0 <HAL_NVIC_SetPriority>
 80019be:	2014      	movs	r0, #20
 80019c0:	f000 fcc6 	bl	8002350 <HAL_NVIC_EnableIRQ>
 80019c4:	b006      	add	sp, #24
 80019c6:	bd10      	pop	{r4, pc}
 80019c8:	40006400 	.word	0x40006400
 80019cc:	40010800 	.word	0x40010800

080019d0 <HAL_I2C_MspInit>:
 80019d0:	b510      	push	{r4, lr}
 80019d2:	4604      	mov	r4, r0
 80019d4:	b086      	sub	sp, #24
 80019d6:	2210      	movs	r2, #16
 80019d8:	2100      	movs	r1, #0
 80019da:	a802      	add	r0, sp, #8
 80019dc:	f003 fde0 	bl	80055a0 <memset>
 80019e0:	6822      	ldr	r2, [r4, #0]
 80019e2:	4b11      	ldr	r3, [pc, #68]	@ (8001a28 <HAL_I2C_MspInit+0x58>)
 80019e4:	429a      	cmp	r2, r3
 80019e6:	d11c      	bne.n	8001a22 <HAL_I2C_MspInit+0x52>
 80019e8:	4c10      	ldr	r4, [pc, #64]	@ (8001a2c <HAL_I2C_MspInit+0x5c>)
 80019ea:	22c0      	movs	r2, #192	@ 0xc0
 80019ec:	69a3      	ldr	r3, [r4, #24]
 80019ee:	4810      	ldr	r0, [pc, #64]	@ (8001a30 <HAL_I2C_MspInit+0x60>)
 80019f0:	f043 0308 	orr.w	r3, r3, #8
 80019f4:	61a3      	str	r3, [r4, #24]
 80019f6:	69a3      	ldr	r3, [r4, #24]
 80019f8:	a902      	add	r1, sp, #8
 80019fa:	f003 0308 	and.w	r3, r3, #8
 80019fe:	9300      	str	r3, [sp, #0]
 8001a00:	9b00      	ldr	r3, [sp, #0]
 8001a02:	2312      	movs	r3, #18
 8001a04:	e9cd 2302 	strd	r2, r3, [sp, #8]
 8001a08:	2303      	movs	r3, #3
 8001a0a:	9305      	str	r3, [sp, #20]
 8001a0c:	f000 fcc2 	bl	8002394 <HAL_GPIO_Init>
 8001a10:	69e3      	ldr	r3, [r4, #28]
 8001a12:	f443 1300 	orr.w	r3, r3, #2097152	@ 0x200000
 8001a16:	61e3      	str	r3, [r4, #28]
 8001a18:	69e3      	ldr	r3, [r4, #28]
 8001a1a:	f403 1300 	and.w	r3, r3, #2097152	@ 0x200000
 8001a1e:	9301      	str	r3, [sp, #4]
 8001a20:	9b01      	ldr	r3, [sp, #4]
 8001a22:	b006      	add	sp, #24
 8001a24:	bd10      	pop	{r4, pc}
 8001a26:	bf00      	nop
 8001a28:	40005400 	.word	0x40005400
 8001a2c:	40021000 	.word	0x40021000
 8001a30:	40010c00 	.word	0x40010c00

08001a34 <HAL_SPI_MspInit>:
 8001a34:	b510      	push	{r4, lr}
 8001a36:	4604      	mov	r4, r0
 8001a38:	b086      	sub	sp, #24
 8001a3a:	2210      	movs	r2, #16
 8001a3c:	2100      	movs	r1, #0
 8001a3e:	a802      	add	r0, sp, #8
 8001a40:	f003 fdae 	bl	80055a0 <memset>
 8001a44:	6822      	ldr	r2, [r4, #0]
 8001a46:	4b16      	ldr	r3, [pc, #88]	@ (8001aa0 <HAL_SPI_MspInit+0x6c>)
 8001a48:	429a      	cmp	r2, r3
 8001a4a:	d126      	bne.n	8001a9a <HAL_SPI_MspInit+0x66>
 8001a4c:	f503 4360 	add.w	r3, r3, #57344	@ 0xe000
 8001a50:	699a      	ldr	r2, [r3, #24]
 8001a52:	4814      	ldr	r0, [pc, #80]	@ (8001aa4 <HAL_SPI_MspInit+0x70>)
 8001a54:	f442 5280 	orr.w	r2, r2, #4096	@ 0x1000
 8001a58:	619a      	str	r2, [r3, #24]
 8001a5a:	699a      	ldr	r2, [r3, #24]
 8001a5c:	a902      	add	r1, sp, #8
 8001a5e:	f402 5280 	and.w	r2, r2, #4096	@ 0x1000
 8001a62:	9200      	str	r2, [sp, #0]
 8001a64:	9a00      	ldr	r2, [sp, #0]
 8001a66:	699a      	ldr	r2, [r3, #24]
 8001a68:	f042 0204 	orr.w	r2, r2, #4
 8001a6c:	619a      	str	r2, [r3, #24]
 8001a6e:	699b      	ldr	r3, [r3, #24]
 8001a70:	22a0      	movs	r2, #160	@ 0xa0
 8001a72:	f003 0304 	and.w	r3, r3, #4
 8001a76:	9301      	str	r3, [sp, #4]
 8001a78:	9b01      	ldr	r3, [sp, #4]
 8001a7a:	2302      	movs	r3, #2
 8001a7c:	e9cd 2302 	strd	r2, r3, [sp, #8]
 8001a80:	2303      	movs	r3, #3
 8001a82:	9305      	str	r3, [sp, #20]
 8001a84:	f000 fc86 	bl	8002394 <HAL_GPIO_Init>
 8001a88:	2140      	movs	r1, #64	@ 0x40
 8001a8a:	2300      	movs	r3, #0
 8001a8c:	4805      	ldr	r0, [pc, #20]	@ (8001aa4 <HAL_SPI_MspInit+0x70>)
 8001a8e:	e9cd 1302 	strd	r1, r3, [sp, #8]
 8001a92:	a902      	add	r1, sp, #8
 8001a94:	9304      	str	r3, [sp, #16]
 8001a96:	f000 fc7d 	bl	8002394 <HAL_GPIO_Init>
 8001a9a:	b006      	add	sp, #24
 8001a9c:	bd10      	pop	{r4, pc}
 8001a9e:	bf00      	nop
 8001aa0:	40013000 	.word	0x40013000
 8001aa4:	40010800 	.word	0x40010800

08001aa8 <HAL_UART_MspInit>:
 8001aa8:	b510      	push	{r4, lr}
 8001aaa:	4604      	mov	r4, r0
 8001aac:	b086      	sub	sp, #24
 8001aae:	2210      	movs	r2, #16
 8001ab0:	2100      	movs	r1, #0
 8001ab2:	a802      	add	r0, sp, #8
 8001ab4:	f003 fd74 	bl	80055a0 <memset>
 8001ab8:	6822      	ldr	r2, [r4, #0]
 8001aba:	4b17      	ldr	r3, [pc, #92]	@ (8001b18 <HAL_UART_MspInit+0x70>)
 8001abc:	429a      	cmp	r2, r3
 8001abe:	d128      	bne.n	8001b12 <HAL_UART_MspInit+0x6a>
 8001ac0:	f503 4358 	add.w	r3, r3, #55296	@ 0xd800
 8001ac4:	699a      	ldr	r2, [r3, #24]
 8001ac6:	4815      	ldr	r0, [pc, #84]	@ (8001b1c <HAL_UART_MspInit+0x74>)
 8001ac8:	f442 4280 	orr.w	r2, r2, #16384	@ 0x4000
 8001acc:	619a      	str	r2, [r3, #24]
 8001ace:	699a      	ldr	r2, [r3, #24]
 8001ad0:	a902      	add	r1, sp, #8
 8001ad2:	f402 4280 	and.w	r2, r2, #16384	@ 0x4000
 8001ad6:	9200      	str	r2, [sp, #0]
 8001ad8:	9a00      	ldr	r2, [sp, #0]
 8001ada:	699a      	ldr	r2, [r3, #24]
 8001adc:	f042 0204 	orr.w	r2, r2, #4
 8001ae0:	619a      	str	r2, [r3, #24]
 8001ae2:	699b      	ldr	r3, [r3, #24]
 8001ae4:	f44f 7200 	mov.w	r2, #512	@ 0x200
 8001ae8:	f003 0304 	and.w	r3, r3, #4
 8001aec:	9301      	str	r3, [sp, #4]
 8001aee:	9b01      	ldr	r3, [sp, #4]
 8001af0:	2302      	movs	r3, #2
 8001af2:	e9cd 2302 	strd	r2, r3, [sp, #8]
 8001af6:	2303      	movs	r3, #3
 8001af8:	9305      	str	r3, [sp, #20]
 8001afa:	f000 fc4b 	bl	8002394 <HAL_GPIO_Init>
 8001afe:	f44f 6180 	mov.w	r1, #1024	@ 0x400
 8001b02:	2300      	movs	r3, #0
 8001b04:	4805      	ldr	r0, [pc, #20]	@ (8001b1c <HAL_UART_MspInit+0x74>)
 8001b06:	e9cd 1302 	strd	r1, r3, [sp, #8]
 8001b0a:	a902      	add	r1, sp, #8
 8001b0c:	9304      	str	r3, [sp, #16]
 8001b0e:	f000 fc41 	bl	8002394 <HAL_GPIO_Init>
 8001b12:	b006      	add	sp, #24
 8001b14:	bd10      	pop	{r4, pc}
 8001b16:	bf00      	nop
 8001b18:	40013800 	.word	0x40013800
 8001b1c:	40010800 	.word	0x40010800

08001b20 <NMI_Handler>:
 8001b20:	e7fe      	b.n	8001b20 <NMI_Handler>

08001b22 <HardFault_Handler>:
 8001b22:	e7fe      	b.n	8001b22 <HardFault_Handler>

08001b24 <MemManage_Handler>:
 8001b24:	e7fe      	b.n	8001b24 <MemManage_Handler>

08001b26 <BusFault_Handler>:
 8001b26:	e7fe      	b.n	8001b26 <BusFault_Handler>

08001b28 <UsageFault_Handler>:
 8001b28:	e7fe      	b.n	8001b28 <UsageFault_Handler>

08001b2a <SVC_Handler>:
 8001b2a:	4770      	bx	lr

08001b2c <DebugMon_Handler>:
 8001b2c:	4770      	bx	lr

08001b2e <PendSV_Handler>:
 8001b2e:	4770      	bx	lr

08001b30 <SysTick_Handler>:
 8001b30:	4a05      	ldr	r2, [pc, #20]	@ (8001b48 <SysTick_Handler+0x18>)
 8001b32:	8813      	ldrh	r3, [r2, #0]
 8001b34:	b10b      	cbz	r3, 8001b3a <SysTick_Handler+0xa>
 8001b36:	3b01      	subs	r3, #1
 8001b38:	8013      	strh	r3, [r2, #0]
 8001b3a:	4a04      	ldr	r2, [pc, #16]	@ (8001b4c <SysTick_Handler+0x1c>)
 8001b3c:	8813      	ldrh	r3, [r2, #0]
 8001b3e:	b10b      	cbz	r3, 8001b44 <SysTick_Handler+0x14>
 8001b40:	3b01      	subs	r3, #1
 8001b42:	8013      	strh	r3, [r2, #0]
 8001b44:	f000 b8a2 	b.w	8001c8c <HAL_IncTick>
 8001b48:	200000ae 	.word	0x200000ae
 8001b4c:	200000ac 	.word	0x200000ac

08001b50 <USB_LP_CAN1_RX0_IRQHandler>:
 8001b50:	4801      	ldr	r0, [pc, #4]	@ (8001b58 <USB_LP_CAN1_RX0_IRQHandler+0x8>)
 8001b52:	f000 bab7 	b.w	80020c4 <HAL_CAN_IRQHandler>
 8001b56:	bf00      	nop
 8001b58:	200001a4 	.word	0x200001a4

08001b5c <_read>:
 8001b5c:	b570      	push	{r4, r5, r6, lr}
 8001b5e:	460d      	mov	r5, r1
 8001b60:	4614      	mov	r4, r2
 8001b62:	460e      	mov	r6, r1
 8001b64:	1b73      	subs	r3, r6, r5
 8001b66:	429c      	cmp	r4, r3
 8001b68:	dc01      	bgt.n	8001b6e <_read+0x12>
 8001b6a:	4620      	mov	r0, r4
 8001b6c:	bd70      	pop	{r4, r5, r6, pc}
 8001b6e:	f3af 8000 	nop.w
 8001b72:	f806 0b01 	strb.w	r0, [r6], #1
 8001b76:	e7f5      	b.n	8001b64 <_read+0x8>

08001b78 <_close>:
 8001b78:	f04f 30ff 	mov.w	r0, #4294967295
 8001b7c:	4770      	bx	lr

08001b7e <_fstat>:
 8001b7e:	f44f 5300 	mov.w	r3, #8192	@ 0x2000
 8001b82:	2000      	movs	r0, #0
 8001b84:	604b      	str	r3, [r1, #4]
 8001b86:	4770      	bx	lr

08001b88 <_isatty>:
 8001b88:	2001      	movs	r0, #1
 8001b8a:	4770      	bx	lr

08001b8c <_lseek>:
 8001b8c:	2000      	movs	r0, #0
 8001b8e:	4770      	bx	lr

08001b90 <_sbrk>:
 8001b90:	4a0b      	ldr	r2, [pc, #44]	@ (8001bc0 <_sbrk+0x30>)
 8001b92:	4603      	mov	r3, r0
 8001b94:	6811      	ldr	r1, [r2, #0]
 8001b96:	b510      	push	{r4, lr}
 8001b98:	b909      	cbnz	r1, 8001b9e <_sbrk+0xe>
 8001b9a:	490a      	ldr	r1, [pc, #40]	@ (8001bc4 <_sbrk+0x34>)
 8001b9c:	6011      	str	r1, [r2, #0]
 8001b9e:	6810      	ldr	r0, [r2, #0]
 8001ba0:	4909      	ldr	r1, [pc, #36]	@ (8001bc8 <_sbrk+0x38>)
 8001ba2:	4c0a      	ldr	r4, [pc, #40]	@ (8001bcc <_sbrk+0x3c>)
 8001ba4:	4403      	add	r3, r0
 8001ba6:	1b09      	subs	r1, r1, r4
 8001ba8:	428b      	cmp	r3, r1
 8001baa:	d906      	bls.n	8001bba <_sbrk+0x2a>
 8001bac:	f003 fd46 	bl	800563c <__errno>
 8001bb0:	230c      	movs	r3, #12
 8001bb2:	6003      	str	r3, [r0, #0]
 8001bb4:	f04f 30ff 	mov.w	r0, #4294967295
 8001bb8:	bd10      	pop	{r4, pc}
 8001bba:	6013      	str	r3, [r2, #0]
 8001bbc:	e7fc      	b.n	8001bb8 <_sbrk+0x28>
 8001bbe:	bf00      	nop
 8001bc0:	20002228 	.word	0x20002228
 8001bc4:	200025b0 	.word	0x200025b0
 8001bc8:	20005000 	.word	0x20005000
 8001bcc:	00000400 	.word	0x00000400

08001bd0 <SystemInit>:
 8001bd0:	4770      	bx	lr
	...

08001bd4 <Reset_Handler>:
 8001bd4:	f7ff fffc 	bl	8001bd0 <SystemInit>
 8001bd8:	480b      	ldr	r0, [pc, #44]	@ (8001c08 <LoopFillZerobss+0xe>)
 8001bda:	490c      	ldr	r1, [pc, #48]	@ (8001c0c <LoopFillZerobss+0x12>)
 8001bdc:	4a0c      	ldr	r2, [pc, #48]	@ (8001c10 <LoopFillZerobss+0x16>)
 8001bde:	2300      	movs	r3, #0
 8001be0:	e002      	b.n	8001be8 <LoopCopyDataInit>

08001be2 <CopyDataInit>:
 8001be2:	58d4      	ldr	r4, [r2, r3]
 8001be4:	50c4      	str	r4, [r0, r3]
 8001be6:	3304      	adds	r3, #4

08001be8 <LoopCopyDataInit>:
 8001be8:	18c4      	adds	r4, r0, r3
 8001bea:	428c      	cmp	r4, r1
 8001bec:	d3f9      	bcc.n	8001be2 <CopyDataInit>
 8001bee:	4a09      	ldr	r2, [pc, #36]	@ (8001c14 <LoopFillZerobss+0x1a>)
 8001bf0:	4c09      	ldr	r4, [pc, #36]	@ (8001c18 <LoopFillZerobss+0x1e>)
 8001bf2:	2300      	movs	r3, #0
 8001bf4:	e001      	b.n	8001bfa <LoopFillZerobss>

08001bf6 <FillZerobss>:
 8001bf6:	6013      	str	r3, [r2, #0]
 8001bf8:	3204      	adds	r2, #4

08001bfa <LoopFillZerobss>:
 8001bfa:	42a2      	cmp	r2, r4
 8001bfc:	d3fb      	bcc.n	8001bf6 <FillZerobss>
 8001bfe:	f003 fd23 	bl	8005648 <__libc_init_array>
 8001c02:	f7ff fce1 	bl	80015c8 <main>
 8001c06:	4770      	bx	lr
 8001c08:	20000000 	.word	0x20000000
 8001c0c:	20000080 	.word	0x20000080
 8001c10:	08006cb8 	.word	0x08006cb8
 8001c14:	20000080 	.word	0x20000080
 8001c18:	200025b0 	.word	0x200025b0

08001c1c <ADC1_2_IRQHandler>:
 8001c1c:	e7fe      	b.n	8001c1c <ADC1_2_IRQHandler>
	...

08001c20 <HAL_InitTick>:
 8001c20:	b538      	push	{r3, r4, r5, lr}
 8001c22:	4b0e      	ldr	r3, [pc, #56]	@ (8001c5c <HAL_InitTick+0x3c>)
 8001c24:	4605      	mov	r5, r0
 8001c26:	781a      	ldrb	r2, [r3, #0]
 8001c28:	f44f 737a 	mov.w	r3, #1000	@ 0x3e8
 8001c2c:	fbb3 f3f2 	udiv	r3, r3, r2
 8001c30:	4a0b      	ldr	r2, [pc, #44]	@ (8001c60 <HAL_InitTick+0x40>)
 8001c32:	6810      	ldr	r0, [r2, #0]
 8001c34:	fbb0 f0f3 	udiv	r0, r0, r3
 8001c38:	f000 fb98 	bl	800236c <HAL_SYSTICK_Config>
 8001c3c:	4604      	mov	r4, r0
 8001c3e:	b958      	cbnz	r0, 8001c58 <HAL_InitTick+0x38>
 8001c40:	2d0f      	cmp	r5, #15
 8001c42:	d809      	bhi.n	8001c58 <HAL_InitTick+0x38>
 8001c44:	4602      	mov	r2, r0
 8001c46:	4629      	mov	r1, r5
 8001c48:	f04f 30ff 	mov.w	r0, #4294967295
 8001c4c:	f000 fb50 	bl	80022f0 <HAL_NVIC_SetPriority>
 8001c50:	4620      	mov	r0, r4
 8001c52:	4b04      	ldr	r3, [pc, #16]	@ (8001c64 <HAL_InitTick+0x44>)
 8001c54:	601d      	str	r5, [r3, #0]
 8001c56:	bd38      	pop	{r3, r4, r5, pc}
 8001c58:	2001      	movs	r0, #1
 8001c5a:	e7fc      	b.n	8001c56 <HAL_InitTick+0x36>
 8001c5c:	20000008 	.word	0x20000008
 8001c60:	20000004 	.word	0x20000004
 8001c64:	2000000c 	.word	0x2000000c

08001c68 <HAL_Init>:
 8001c68:	4a07      	ldr	r2, [pc, #28]	@ (8001c88 <HAL_Init+0x20>)
 8001c6a:	b508      	push	{r3, lr}
 8001c6c:	6813      	ldr	r3, [r2, #0]
 8001c6e:	2003      	movs	r0, #3
 8001c70:	f043 0310 	orr.w	r3, r3, #16
 8001c74:	6013      	str	r3, [r2, #0]
 8001c76:	f000 fb29 	bl	80022cc <HAL_NVIC_SetPriorityGrouping>
 8001c7a:	200f      	movs	r0, #15
 8001c7c:	f7ff ffd0 	bl	8001c20 <HAL_InitTick>
 8001c80:	f7ff fe44 	bl	800190c <HAL_MspInit>
 8001c84:	2000      	movs	r0, #0
 8001c86:	bd08      	pop	{r3, pc}
 8001c88:	40022000 	.word	0x40022000

08001c8c <HAL_IncTick>:
 8001c8c:	4a03      	ldr	r2, [pc, #12]	@ (8001c9c <HAL_IncTick+0x10>)
 8001c8e:	4b04      	ldr	r3, [pc, #16]	@ (8001ca0 <HAL_IncTick+0x14>)
 8001c90:	6811      	ldr	r1, [r2, #0]
 8001c92:	781b      	ldrb	r3, [r3, #0]
 8001c94:	440b      	add	r3, r1
 8001c96:	6013      	str	r3, [r2, #0]
 8001c98:	4770      	bx	lr
 8001c9a:	bf00      	nop
 8001c9c:	2000222c 	.word	0x2000222c
 8001ca0:	20000008 	.word	0x20000008

08001ca4 <HAL_GetTick>:
 8001ca4:	4b01      	ldr	r3, [pc, #4]	@ (8001cac <HAL_GetTick+0x8>)
 8001ca6:	6818      	ldr	r0, [r3, #0]
 8001ca8:	4770      	bx	lr
 8001caa:	bf00      	nop
 8001cac:	2000222c 	.word	0x2000222c

08001cb0 <HAL_Delay>:
 8001cb0:	b538      	push	{r3, r4, r5, lr}
 8001cb2:	4604      	mov	r4, r0
 8001cb4:	f7ff fff6 	bl	8001ca4 <HAL_GetTick>
 8001cb8:	4605      	mov	r5, r0
 8001cba:	1c63      	adds	r3, r4, #1
 8001cbc:	bf1e      	ittt	ne
 8001cbe:	4b04      	ldrne	r3, [pc, #16]	@ (8001cd0 <HAL_Delay+0x20>)
 8001cc0:	781b      	ldrbne	r3, [r3, #0]
 8001cc2:	18e4      	addne	r4, r4, r3
 8001cc4:	f7ff ffee 	bl	8001ca4 <HAL_GetTick>
 8001cc8:	1b43      	subs	r3, r0, r5
 8001cca:	42a3      	cmp	r3, r4
 8001ccc:	d3fa      	bcc.n	8001cc4 <HAL_Delay+0x14>
 8001cce:	bd38      	pop	{r3, r4, r5, pc}
 8001cd0:	20000008 	.word	0x20000008

08001cd4 <HAL_CAN_Init>:
 8001cd4:	b538      	push	{r3, r4, r5, lr}
 8001cd6:	4604      	mov	r4, r0
 8001cd8:	2800      	cmp	r0, #0
 8001cda:	d06e      	beq.n	8001dba <HAL_CAN_Init+0xe6>
 8001cdc:	f890 3020 	ldrb.w	r3, [r0, #32]
 8001ce0:	b90b      	cbnz	r3, 8001ce6 <HAL_CAN_Init+0x12>
 8001ce2:	f7ff fe35 	bl	8001950 <HAL_CAN_MspInit>
 8001ce6:	6822      	ldr	r2, [r4, #0]
 8001ce8:	6813      	ldr	r3, [r2, #0]
 8001cea:	f043 0301 	orr.w	r3, r3, #1
 8001cee:	6013      	str	r3, [r2, #0]
 8001cf0:	f7ff ffd8 	bl	8001ca4 <HAL_GetTick>
 8001cf4:	4605      	mov	r5, r0
 8001cf6:	6823      	ldr	r3, [r4, #0]
 8001cf8:	685a      	ldr	r2, [r3, #4]
 8001cfa:	07d1      	lsls	r1, r2, #31
 8001cfc:	d551      	bpl.n	8001da2 <HAL_CAN_Init+0xce>
 8001cfe:	681a      	ldr	r2, [r3, #0]
 8001d00:	f022 0202 	bic.w	r2, r2, #2
 8001d04:	601a      	str	r2, [r3, #0]
 8001d06:	f7ff ffcd 	bl	8001ca4 <HAL_GetTick>
 8001d0a:	4605      	mov	r5, r0
 8001d0c:	6823      	ldr	r3, [r4, #0]
 8001d0e:	685a      	ldr	r2, [r3, #4]
 8001d10:	0792      	lsls	r2, r2, #30
 8001d12:	d454      	bmi.n	8001dbe <HAL_CAN_Init+0xea>
 8001d14:	7e22      	ldrb	r2, [r4, #24]
 8001d16:	2000      	movs	r0, #0
 8001d18:	2a01      	cmp	r2, #1
 8001d1a:	681a      	ldr	r2, [r3, #0]
 8001d1c:	bf0c      	ite	eq
 8001d1e:	f042 0280 	orreq.w	r2, r2, #128	@ 0x80
 8001d22:	f022 0280 	bicne.w	r2, r2, #128	@ 0x80
 8001d26:	601a      	str	r2, [r3, #0]
 8001d28:	7e62      	ldrb	r2, [r4, #25]
 8001d2a:	2a01      	cmp	r2, #1
 8001d2c:	681a      	ldr	r2, [r3, #0]
 8001d2e:	bf0c      	ite	eq
 8001d30:	f042 0240 	orreq.w	r2, r2, #64	@ 0x40
 8001d34:	f022 0240 	bicne.w	r2, r2, #64	@ 0x40
 8001d38:	601a      	str	r2, [r3, #0]
 8001d3a:	7ea2      	ldrb	r2, [r4, #26]
 8001d3c:	2a01      	cmp	r2, #1
 8001d3e:	681a      	ldr	r2, [r3, #0]
 8001d40:	bf0c      	ite	eq
 8001d42:	f042 0220 	orreq.w	r2, r2, #32
 8001d46:	f022 0220 	bicne.w	r2, r2, #32
 8001d4a:	601a      	str	r2, [r3, #0]
 8001d4c:	7ee2      	ldrb	r2, [r4, #27]
 8001d4e:	2a01      	cmp	r2, #1
 8001d50:	681a      	ldr	r2, [r3, #0]
 8001d52:	bf0c      	ite	eq
 8001d54:	f022 0210 	biceq.w	r2, r2, #16
 8001d58:	f042 0210 	orrne.w	r2, r2, #16
 8001d5c:	601a      	str	r2, [r3, #0]
 8001d5e:	7f22      	ldrb	r2, [r4, #28]
 8001d60:	2a01      	cmp	r2, #1
 8001d62:	681a      	ldr	r2, [r3, #0]
 8001d64:	bf0c      	ite	eq
 8001d66:	f042 0208 	orreq.w	r2, r2, #8
 8001d6a:	f022 0208 	bicne.w	r2, r2, #8
 8001d6e:	601a      	str	r2, [r3, #0]
 8001d70:	7f62      	ldrb	r2, [r4, #29]
 8001d72:	2a01      	cmp	r2, #1
 8001d74:	681a      	ldr	r2, [r3, #0]
 8001d76:	bf0c      	ite	eq
 8001d78:	f042 0204 	orreq.w	r2, r2, #4
 8001d7c:	f022 0204 	bicne.w	r2, r2, #4
 8001d80:	601a      	str	r2, [r3, #0]
 8001d82:	e9d4 2102 	ldrd	r2, r1, [r4, #8]
 8001d86:	430a      	orrs	r2, r1
 8001d88:	6921      	ldr	r1, [r4, #16]
 8001d8a:	430a      	orrs	r2, r1
 8001d8c:	6961      	ldr	r1, [r4, #20]
 8001d8e:	430a      	orrs	r2, r1
 8001d90:	6861      	ldr	r1, [r4, #4]
 8001d92:	3901      	subs	r1, #1
 8001d94:	430a      	orrs	r2, r1
 8001d96:	61da      	str	r2, [r3, #28]
 8001d98:	2301      	movs	r3, #1
 8001d9a:	6260      	str	r0, [r4, #36]	@ 0x24
 8001d9c:	f884 3020 	strb.w	r3, [r4, #32]
 8001da0:	e00c      	b.n	8001dbc <HAL_CAN_Init+0xe8>
 8001da2:	f7ff ff7f 	bl	8001ca4 <HAL_GetTick>
 8001da6:	1b40      	subs	r0, r0, r5
 8001da8:	280a      	cmp	r0, #10
 8001daa:	d9a4      	bls.n	8001cf6 <HAL_CAN_Init+0x22>
 8001dac:	6a63      	ldr	r3, [r4, #36]	@ 0x24
 8001dae:	f443 3300 	orr.w	r3, r3, #131072	@ 0x20000
 8001db2:	6263      	str	r3, [r4, #36]	@ 0x24
 8001db4:	2305      	movs	r3, #5
 8001db6:	f884 3020 	strb.w	r3, [r4, #32]
 8001dba:	2001      	movs	r0, #1
 8001dbc:	bd38      	pop	{r3, r4, r5, pc}
 8001dbe:	f7ff ff71 	bl	8001ca4 <HAL_GetTick>
 8001dc2:	1b40      	subs	r0, r0, r5
 8001dc4:	280a      	cmp	r0, #10
 8001dc6:	d9a1      	bls.n	8001d0c <HAL_CAN_Init+0x38>
 8001dc8:	e7f0      	b.n	8001dac <HAL_CAN_Init+0xd8>

08001dca <HAL_CAN_ConfigFilter>:
 8001dca:	b570      	push	{r4, r5, r6, lr}
 8001dcc:	f890 2020 	ldrb.w	r2, [r0, #32]
 8001dd0:	6803      	ldr	r3, [r0, #0]
 8001dd2:	3a01      	subs	r2, #1
 8001dd4:	2a01      	cmp	r2, #1
 8001dd6:	d862      	bhi.n	8001e9e <HAL_CAN_ConfigFilter+0xd4>
 8001dd8:	2001      	movs	r0, #1
 8001dda:	f8d3 2200 	ldr.w	r2, [r3, #512]	@ 0x200
 8001dde:	f042 0201 	orr.w	r2, r2, #1
 8001de2:	f8c3 2200 	str.w	r2, [r3, #512]	@ 0x200
 8001de6:	694a      	ldr	r2, [r1, #20]
 8001de8:	f8d3 521c 	ldr.w	r5, [r3, #540]	@ 0x21c
 8001dec:	f002 041f 	and.w	r4, r2, #31
 8001df0:	40a0      	lsls	r0, r4
 8001df2:	ea25 0500 	bic.w	r5, r5, r0
 8001df6:	f8c3 521c 	str.w	r5, [r3, #540]	@ 0x21c
 8001dfa:	69cd      	ldr	r5, [r1, #28]
 8001dfc:	43c4      	mvns	r4, r0
 8001dfe:	bb95      	cbnz	r5, 8001e66 <HAL_CAN_ConfigFilter+0x9c>
 8001e00:	f8d3 520c 	ldr.w	r5, [r3, #524]	@ 0x20c
 8001e04:	68ce      	ldr	r6, [r1, #12]
 8001e06:	4025      	ands	r5, r4
 8001e08:	f8c3 520c 	str.w	r5, [r3, #524]	@ 0x20c
 8001e0c:	888d      	ldrh	r5, [r1, #4]
 8001e0e:	eb03 02c2 	add.w	r2, r3, r2, lsl #3
 8001e12:	ea45 4506 	orr.w	r5, r5, r6, lsl #16
 8001e16:	f8c2 5240 	str.w	r5, [r2, #576]	@ 0x240
 8001e1a:	688e      	ldr	r6, [r1, #8]
 8001e1c:	880d      	ldrh	r5, [r1, #0]
 8001e1e:	ea45 4506 	orr.w	r5, r5, r6, lsl #16
 8001e22:	f8c2 5244 	str.w	r5, [r2, #580]	@ 0x244
 8001e26:	698a      	ldr	r2, [r1, #24]
 8001e28:	bb7a      	cbnz	r2, 8001e8a <HAL_CAN_ConfigFilter+0xc0>
 8001e2a:	f8d3 2204 	ldr.w	r2, [r3, #516]	@ 0x204
 8001e2e:	4022      	ands	r2, r4
 8001e30:	f8c3 2204 	str.w	r2, [r3, #516]	@ 0x204
 8001e34:	690a      	ldr	r2, [r1, #16]
 8001e36:	bb62      	cbnz	r2, 8001e92 <HAL_CAN_ConfigFilter+0xc8>
 8001e38:	f8d3 2214 	ldr.w	r2, [r3, #532]	@ 0x214
 8001e3c:	4014      	ands	r4, r2
 8001e3e:	f8c3 4214 	str.w	r4, [r3, #532]	@ 0x214
 8001e42:	6a0a      	ldr	r2, [r1, #32]
 8001e44:	2a01      	cmp	r2, #1
 8001e46:	bf04      	itt	eq
 8001e48:	f8d3 221c 	ldreq.w	r2, [r3, #540]	@ 0x21c
 8001e4c:	4302      	orreq	r2, r0
 8001e4e:	f04f 0000 	mov.w	r0, #0
 8001e52:	bf08      	it	eq
 8001e54:	f8c3 221c 	streq.w	r2, [r3, #540]	@ 0x21c
 8001e58:	f8d3 2200 	ldr.w	r2, [r3, #512]	@ 0x200
 8001e5c:	f022 0201 	bic.w	r2, r2, #1
 8001e60:	f8c3 2200 	str.w	r2, [r3, #512]	@ 0x200
 8001e64:	bd70      	pop	{r4, r5, r6, pc}
 8001e66:	2d01      	cmp	r5, #1
 8001e68:	d1dd      	bne.n	8001e26 <HAL_CAN_ConfigFilter+0x5c>
 8001e6a:	f8d3 520c 	ldr.w	r5, [r3, #524]	@ 0x20c
 8001e6e:	680e      	ldr	r6, [r1, #0]
 8001e70:	4305      	orrs	r5, r0
 8001e72:	f8c3 520c 	str.w	r5, [r3, #524]	@ 0x20c
 8001e76:	888d      	ldrh	r5, [r1, #4]
 8001e78:	eb03 02c2 	add.w	r2, r3, r2, lsl #3
 8001e7c:	ea45 4506 	orr.w	r5, r5, r6, lsl #16
 8001e80:	f8c2 5240 	str.w	r5, [r2, #576]	@ 0x240
 8001e84:	688e      	ldr	r6, [r1, #8]
 8001e86:	898d      	ldrh	r5, [r1, #12]
 8001e88:	e7c9      	b.n	8001e1e <HAL_CAN_ConfigFilter+0x54>
 8001e8a:	f8d3 2204 	ldr.w	r2, [r3, #516]	@ 0x204
 8001e8e:	4302      	orrs	r2, r0
 8001e90:	e7ce      	b.n	8001e30 <HAL_CAN_ConfigFilter+0x66>
 8001e92:	f8d3 2214 	ldr.w	r2, [r3, #532]	@ 0x214
 8001e96:	4302      	orrs	r2, r0
 8001e98:	f8c3 2214 	str.w	r2, [r3, #532]	@ 0x214
 8001e9c:	e7d1      	b.n	8001e42 <HAL_CAN_ConfigFilter+0x78>
 8001e9e:	6a43      	ldr	r3, [r0, #36]	@ 0x24
 8001ea0:	f443 2380 	orr.w	r3, r3, #262144	@ 0x40000
 8001ea4:	6243      	str	r3, [r0, #36]	@ 0x24
 8001ea6:	2001      	movs	r0, #1
 8001ea8:	e7dc      	b.n	8001e64 <HAL_CAN_ConfigFilter+0x9a>

08001eaa <HAL_CAN_Start>:
 8001eaa:	b538      	push	{r3, r4, r5, lr}
 8001eac:	f890 3020 	ldrb.w	r3, [r0, #32]
 8001eb0:	4604      	mov	r4, r0
 8001eb2:	2b01      	cmp	r3, #1
 8001eb4:	d11f      	bne.n	8001ef6 <HAL_CAN_Start+0x4c>
 8001eb6:	2302      	movs	r3, #2
 8001eb8:	6802      	ldr	r2, [r0, #0]
 8001eba:	f880 3020 	strb.w	r3, [r0, #32]
 8001ebe:	6813      	ldr	r3, [r2, #0]
 8001ec0:	f023 0301 	bic.w	r3, r3, #1
 8001ec4:	6013      	str	r3, [r2, #0]
 8001ec6:	f7ff feed 	bl	8001ca4 <HAL_GetTick>
 8001eca:	4605      	mov	r5, r0
 8001ecc:	6823      	ldr	r3, [r4, #0]
 8001ece:	6858      	ldr	r0, [r3, #4]
 8001ed0:	f010 0001 	ands.w	r0, r0, #1
 8001ed4:	d101      	bne.n	8001eda <HAL_CAN_Start+0x30>
 8001ed6:	6260      	str	r0, [r4, #36]	@ 0x24
 8001ed8:	bd38      	pop	{r3, r4, r5, pc}
 8001eda:	f7ff fee3 	bl	8001ca4 <HAL_GetTick>
 8001ede:	1b40      	subs	r0, r0, r5
 8001ee0:	280a      	cmp	r0, #10
 8001ee2:	d9f3      	bls.n	8001ecc <HAL_CAN_Start+0x22>
 8001ee4:	6a63      	ldr	r3, [r4, #36]	@ 0x24
 8001ee6:	f443 3300 	orr.w	r3, r3, #131072	@ 0x20000
 8001eea:	6263      	str	r3, [r4, #36]	@ 0x24
 8001eec:	2305      	movs	r3, #5
 8001eee:	f884 3020 	strb.w	r3, [r4, #32]
 8001ef2:	2001      	movs	r0, #1
 8001ef4:	e7f0      	b.n	8001ed8 <HAL_CAN_Start+0x2e>
 8001ef6:	6a43      	ldr	r3, [r0, #36]	@ 0x24
 8001ef8:	f443 2300 	orr.w	r3, r3, #524288	@ 0x80000
 8001efc:	6243      	str	r3, [r0, #36]	@ 0x24
 8001efe:	e7f8      	b.n	8001ef2 <HAL_CAN_Start+0x48>

08001f00 <HAL_CAN_AddTxMessage>:
 8001f00:	b5f0      	push	{r4, r5, r6, r7, lr}
 8001f02:	f890 5020 	ldrb.w	r5, [r0, #32]
 8001f06:	6804      	ldr	r4, [r0, #0]
 8001f08:	3d01      	subs	r5, #1
 8001f0a:	2d01      	cmp	r5, #1
 8001f0c:	68a6      	ldr	r6, [r4, #8]
 8001f0e:	d83c      	bhi.n	8001f8a <HAL_CAN_AddTxMessage+0x8a>
 8001f10:	f016 5fe0 	tst.w	r6, #469762048	@ 0x1c000000
 8001f14:	d033      	beq.n	8001f7e <HAL_CAN_AddTxMessage+0x7e>
 8001f16:	2501      	movs	r5, #1
 8001f18:	f3c6 6001 	ubfx	r0, r6, #24, #2
 8001f1c:	4085      	lsls	r5, r0
 8001f1e:	601d      	str	r5, [r3, #0]
 8001f20:	e9d1 5702 	ldrd	r5, r7, [r1, #8]
 8001f24:	f100 0318 	add.w	r3, r0, #24
 8001f28:	bb15      	cbnz	r5, 8001f70 <HAL_CAN_AddTxMessage+0x70>
 8001f2a:	680d      	ldr	r5, [r1, #0]
 8001f2c:	011b      	lsls	r3, r3, #4
 8001f2e:	ea47 5745 	orr.w	r7, r7, r5, lsl #21
 8001f32:	50e7      	str	r7, [r4, r3]
 8001f34:	eb04 1300 	add.w	r3, r4, r0, lsl #4
 8001f38:	0105      	lsls	r5, r0, #4
 8001f3a:	2000      	movs	r0, #0
 8001f3c:	690e      	ldr	r6, [r1, #16]
 8001f3e:	442c      	add	r4, r5
 8001f40:	f8c3 6184 	str.w	r6, [r3, #388]	@ 0x184
 8001f44:	7d09      	ldrb	r1, [r1, #20]
 8001f46:	2901      	cmp	r1, #1
 8001f48:	bf02      	ittt	eq
 8001f4a:	f8d3 1184 	ldreq.w	r1, [r3, #388]	@ 0x184
 8001f4e:	f441 7180 	orreq.w	r1, r1, #256	@ 0x100
 8001f52:	f8c3 1184 	streq.w	r1, [r3, #388]	@ 0x184
 8001f56:	6851      	ldr	r1, [r2, #4]
 8001f58:	f8c4 118c 	str.w	r1, [r4, #396]	@ 0x18c
 8001f5c:	6812      	ldr	r2, [r2, #0]
 8001f5e:	f8c4 2188 	str.w	r2, [r4, #392]	@ 0x188
 8001f62:	f8d3 2180 	ldr.w	r2, [r3, #384]	@ 0x180
 8001f66:	f042 0201 	orr.w	r2, r2, #1
 8001f6a:	f8c3 2180 	str.w	r2, [r3, #384]	@ 0x180
 8001f6e:	bdf0      	pop	{r4, r5, r6, r7, pc}
 8001f70:	684e      	ldr	r6, [r1, #4]
 8001f72:	433d      	orrs	r5, r7
 8001f74:	ea45 05c6 	orr.w	r5, r5, r6, lsl #3
 8001f78:	011b      	lsls	r3, r3, #4
 8001f7a:	50e5      	str	r5, [r4, r3]
 8001f7c:	e7da      	b.n	8001f34 <HAL_CAN_AddTxMessage+0x34>
 8001f7e:	6a43      	ldr	r3, [r0, #36]	@ 0x24
 8001f80:	f443 1300 	orr.w	r3, r3, #2097152	@ 0x200000
 8001f84:	6243      	str	r3, [r0, #36]	@ 0x24
 8001f86:	2001      	movs	r0, #1
 8001f88:	e7f1      	b.n	8001f6e <HAL_CAN_AddTxMessage+0x6e>
 8001f8a:	6a43      	ldr	r3, [r0, #36]	@ 0x24
 8001f8c:	f443 2380 	orr.w	r3, r3, #262144	@ 0x40000
 8001f90:	e7f8      	b.n	8001f84 <HAL_CAN_AddTxMessage+0x84>

08001f92 <HAL_CAN_GetRxMessage>:
 8001f92:	b5f0      	push	{r4, r5, r6, r7, lr}
 8001f94:	f890 4020 	ldrb.w	r4, [r0, #32]
 8001f98:	3c01      	subs	r4, #1
 8001f9a:	2c01      	cmp	r4, #1
 8001f9c:	d871      	bhi.n	8002082 <HAL_CAN_GetRxMessage+0xf0>
 8001f9e:	6806      	ldr	r6, [r0, #0]
 8001fa0:	b941      	cbnz	r1, 8001fb4 <HAL_CAN_GetRxMessage+0x22>
 8001fa2:	68f4      	ldr	r4, [r6, #12]
 8001fa4:	07a4      	lsls	r4, r4, #30
 8001fa6:	d107      	bne.n	8001fb8 <HAL_CAN_GetRxMessage+0x26>
 8001fa8:	6a43      	ldr	r3, [r0, #36]	@ 0x24
 8001faa:	f443 1300 	orr.w	r3, r3, #2097152	@ 0x200000
 8001fae:	6243      	str	r3, [r0, #36]	@ 0x24
 8001fb0:	2001      	movs	r0, #1
 8001fb2:	bdf0      	pop	{r4, r5, r6, r7, pc}
 8001fb4:	6934      	ldr	r4, [r6, #16]
 8001fb6:	e7f5      	b.n	8001fa4 <HAL_CAN_GetRxMessage+0x12>
 8001fb8:	eb06 1501 	add.w	r5, r6, r1, lsl #4
 8001fbc:	f8d5 71b0 	ldr.w	r7, [r5, #432]	@ 0x1b0
 8001fc0:	010c      	lsls	r4, r1, #4
 8001fc2:	f007 0704 	and.w	r7, r7, #4
 8001fc6:	6097      	str	r7, [r2, #8]
 8001fc8:	2f00      	cmp	r7, #0
 8001fca:	d150      	bne.n	800206e <HAL_CAN_GetRxMessage+0xdc>
 8001fcc:	f8d5 71b0 	ldr.w	r7, [r5, #432]	@ 0x1b0
 8001fd0:	0d7f      	lsrs	r7, r7, #21
 8001fd2:	6017      	str	r7, [r2, #0]
 8001fd4:	f8d5 71b0 	ldr.w	r7, [r5, #432]	@ 0x1b0
 8001fd8:	4426      	add	r6, r4
 8001fda:	f007 0702 	and.w	r7, r7, #2
 8001fde:	60d7      	str	r7, [r2, #12]
 8001fe0:	f8d5 71b4 	ldr.w	r7, [r5, #436]	@ 0x1b4
 8001fe4:	073f      	lsls	r7, r7, #28
 8001fe6:	bf4e      	itee	mi
 8001fe8:	2708      	movmi	r7, #8
 8001fea:	f8d5 71b4 	ldrpl.w	r7, [r5, #436]	@ 0x1b4
 8001fee:	f007 070f 	andpl.w	r7, r7, #15
 8001ff2:	6117      	str	r7, [r2, #16]
 8001ff4:	f8d5 71b4 	ldr.w	r7, [r5, #436]	@ 0x1b4
 8001ff8:	f8d5 51b4 	ldr.w	r5, [r5, #436]	@ 0x1b4
 8001ffc:	f3c7 2707 	ubfx	r7, r7, #8, #8
 8002000:	0c2d      	lsrs	r5, r5, #16
 8002002:	6197      	str	r7, [r2, #24]
 8002004:	6155      	str	r5, [r2, #20]
 8002006:	f8d6 21b8 	ldr.w	r2, [r6, #440]	@ 0x1b8
 800200a:	701a      	strb	r2, [r3, #0]
 800200c:	6802      	ldr	r2, [r0, #0]
 800200e:	4422      	add	r2, r4
 8002010:	f8d2 21b8 	ldr.w	r2, [r2, #440]	@ 0x1b8
 8002014:	0a12      	lsrs	r2, r2, #8
 8002016:	705a      	strb	r2, [r3, #1]
 8002018:	6802      	ldr	r2, [r0, #0]
 800201a:	4422      	add	r2, r4
 800201c:	f8d2 21b8 	ldr.w	r2, [r2, #440]	@ 0x1b8
 8002020:	0c12      	lsrs	r2, r2, #16
 8002022:	709a      	strb	r2, [r3, #2]
 8002024:	6802      	ldr	r2, [r0, #0]
 8002026:	4422      	add	r2, r4
 8002028:	f8d2 21b8 	ldr.w	r2, [r2, #440]	@ 0x1b8
 800202c:	0e12      	lsrs	r2, r2, #24
 800202e:	70da      	strb	r2, [r3, #3]
 8002030:	6802      	ldr	r2, [r0, #0]
 8002032:	4422      	add	r2, r4
 8002034:	f8d2 21bc 	ldr.w	r2, [r2, #444]	@ 0x1bc
 8002038:	711a      	strb	r2, [r3, #4]
 800203a:	6802      	ldr	r2, [r0, #0]
 800203c:	4422      	add	r2, r4
 800203e:	f8d2 21bc 	ldr.w	r2, [r2, #444]	@ 0x1bc
 8002042:	0a12      	lsrs	r2, r2, #8
 8002044:	715a      	strb	r2, [r3, #5]
 8002046:	6802      	ldr	r2, [r0, #0]
 8002048:	4422      	add	r2, r4
 800204a:	f8d2 21bc 	ldr.w	r2, [r2, #444]	@ 0x1bc
 800204e:	0c12      	lsrs	r2, r2, #16
 8002050:	719a      	strb	r2, [r3, #6]
 8002052:	6802      	ldr	r2, [r0, #0]
 8002054:	4422      	add	r2, r4
 8002056:	f8d2 21bc 	ldr.w	r2, [r2, #444]	@ 0x1bc
 800205a:	0e12      	lsrs	r2, r2, #24
 800205c:	71da      	strb	r2, [r3, #7]
 800205e:	6803      	ldr	r3, [r0, #0]
 8002060:	b951      	cbnz	r1, 8002078 <HAL_CAN_GetRxMessage+0xe6>
 8002062:	68da      	ldr	r2, [r3, #12]
 8002064:	f042 0220 	orr.w	r2, r2, #32
 8002068:	60da      	str	r2, [r3, #12]
 800206a:	2000      	movs	r0, #0
 800206c:	e7a1      	b.n	8001fb2 <HAL_CAN_GetRxMessage+0x20>
 800206e:	f8d5 71b0 	ldr.w	r7, [r5, #432]	@ 0x1b0
 8002072:	08ff      	lsrs	r7, r7, #3
 8002074:	6057      	str	r7, [r2, #4]
 8002076:	e7ad      	b.n	8001fd4 <HAL_CAN_GetRxMessage+0x42>
 8002078:	691a      	ldr	r2, [r3, #16]
 800207a:	f042 0220 	orr.w	r2, r2, #32
 800207e:	611a      	str	r2, [r3, #16]
 8002080:	e7f3      	b.n	800206a <HAL_CAN_GetRxMessage+0xd8>
 8002082:	6a43      	ldr	r3, [r0, #36]	@ 0x24
 8002084:	f443 2380 	orr.w	r3, r3, #262144	@ 0x40000
 8002088:	e791      	b.n	8001fae <HAL_CAN_GetRxMessage+0x1c>

0800208a <HAL_CAN_ActivateNotification>:
 800208a:	f890 3020 	ldrb.w	r3, [r0, #32]
 800208e:	3b01      	subs	r3, #1
 8002090:	2b01      	cmp	r3, #1
 8002092:	d805      	bhi.n	80020a0 <HAL_CAN_ActivateNotification+0x16>
 8002094:	6802      	ldr	r2, [r0, #0]
 8002096:	2000      	movs	r0, #0
 8002098:	6953      	ldr	r3, [r2, #20]
 800209a:	4319      	orrs	r1, r3
 800209c:	6151      	str	r1, [r2, #20]
 800209e:	4770      	bx	lr
 80020a0:	6a43      	ldr	r3, [r0, #36]	@ 0x24
 80020a2:	f443 2380 	orr.w	r3, r3, #262144	@ 0x40000
 80020a6:	6243      	str	r3, [r0, #36]	@ 0x24
 80020a8:	2001      	movs	r0, #1
 80020aa:	4770      	bx	lr

080020ac <HAL_CAN_TxMailbox0CompleteCallback>:
 80020ac:	4770      	bx	lr

080020ae <HAL_CAN_TxMailbox1CompleteCallback>:
 80020ae:	4770      	bx	lr

080020b0 <HAL_CAN_TxMailbox2CompleteCallback>:
 80020b0:	4770      	bx	lr

080020b2 <HAL_CAN_TxMailbox0AbortCallback>:
 80020b2:	4770      	bx	lr

080020b4 <HAL_CAN_TxMailbox1AbortCallback>:
 80020b4:	4770      	bx	lr

080020b6 <HAL_CAN_TxMailbox2AbortCallback>:
 80020b6:	4770      	bx	lr

080020b8 <HAL_CAN_RxFifo0FullCallback>:
 80020b8:	4770      	bx	lr

080020ba <HAL_CAN_RxFifo1MsgPendingCallback>:
 80020ba:	4770      	bx	lr

080020bc <HAL_CAN_RxFifo1FullCallback>:
 80020bc:	4770      	bx	lr

080020be <HAL_CAN_SleepCallback>:
 80020be:	4770      	bx	lr

080020c0 <HAL_CAN_WakeUpFromRxMsgCallback>:
 80020c0:	4770      	bx	lr

080020c2 <HAL_CAN_ErrorCallback>:
 80020c2:	4770      	bx	lr

080020c4 <HAL_CAN_IRQHandler>:
 80020c4:	e92d 4ff8 	stmdb	sp!, {r3, r4, r5, r6, r7, r8, r9, sl, fp, lr}
 80020c8:	6803      	ldr	r3, [r0, #0]
 80020ca:	4605      	mov	r5, r0
 80020cc:	695e      	ldr	r6, [r3, #20]
 80020ce:	f8d3 9004 	ldr.w	r9, [r3, #4]
 80020d2:	f016 0401 	ands.w	r4, r6, #1
 80020d6:	f8d3 8008 	ldr.w	r8, [r3, #8]
 80020da:	f8d3 b00c 	ldr.w	fp, [r3, #12]
 80020de:	f8d3 a010 	ldr.w	sl, [r3, #16]
 80020e2:	699f      	ldr	r7, [r3, #24]
 80020e4:	d027      	beq.n	8002136 <HAL_CAN_IRQHandler+0x72>
 80020e6:	f018 0f01 	tst.w	r8, #1
 80020ea:	d007      	beq.n	80020fc <HAL_CAN_IRQHandler+0x38>
 80020ec:	2201      	movs	r2, #1
 80020ee:	f018 0f02 	tst.w	r8, #2
 80020f2:	609a      	str	r2, [r3, #8]
 80020f4:	f000 80a5 	beq.w	8002242 <HAL_CAN_IRQHandler+0x17e>
 80020f8:	f7ff ffd8 	bl	80020ac <HAL_CAN_TxMailbox0CompleteCallback>
 80020fc:	2400      	movs	r4, #0
 80020fe:	f418 7f80 	tst.w	r8, #256	@ 0x100
 8002102:	d00a      	beq.n	800211a <HAL_CAN_IRQHandler+0x56>
 8002104:	f44f 7280 	mov.w	r2, #256	@ 0x100
 8002108:	682b      	ldr	r3, [r5, #0]
 800210a:	f418 7f00 	tst.w	r8, #512	@ 0x200
 800210e:	609a      	str	r2, [r3, #8]
 8002110:	f000 80a6 	beq.w	8002260 <HAL_CAN_IRQHandler+0x19c>
 8002114:	4628      	mov	r0, r5
 8002116:	f7ff ffca 	bl	80020ae <HAL_CAN_TxMailbox1CompleteCallback>
 800211a:	f418 3f80 	tst.w	r8, #65536	@ 0x10000
 800211e:	d00a      	beq.n	8002136 <HAL_CAN_IRQHandler+0x72>
 8002120:	f44f 3280 	mov.w	r2, #65536	@ 0x10000
 8002124:	682b      	ldr	r3, [r5, #0]
 8002126:	f418 3f00 	tst.w	r8, #131072	@ 0x20000
 800212a:	609a      	str	r2, [r3, #8]
 800212c:	f000 80a8 	beq.w	8002280 <HAL_CAN_IRQHandler+0x1bc>
 8002130:	4628      	mov	r0, r5
 8002132:	f7ff ffbd 	bl	80020b0 <HAL_CAN_TxMailbox2CompleteCallback>
 8002136:	0731      	lsls	r1, r6, #28
 8002138:	d507      	bpl.n	800214a <HAL_CAN_IRQHandler+0x86>
 800213a:	f01b 0f10 	tst.w	fp, #16
 800213e:	bf1f      	itttt	ne
 8002140:	2210      	movne	r2, #16
 8002142:	682b      	ldrne	r3, [r5, #0]
 8002144:	f444 7400 	orrne.w	r4, r4, #512	@ 0x200
 8002148:	60da      	strne	r2, [r3, #12]
 800214a:	0772      	lsls	r2, r6, #29
 800214c:	d508      	bpl.n	8002160 <HAL_CAN_IRQHandler+0x9c>
 800214e:	f01b 0f08 	tst.w	fp, #8
 8002152:	d005      	beq.n	8002160 <HAL_CAN_IRQHandler+0x9c>
 8002154:	2208      	movs	r2, #8
 8002156:	682b      	ldr	r3, [r5, #0]
 8002158:	4628      	mov	r0, r5
 800215a:	60da      	str	r2, [r3, #12]
 800215c:	f7ff ffac 	bl	80020b8 <HAL_CAN_RxFifo0FullCallback>
 8002160:	07b3      	lsls	r3, r6, #30
 8002162:	d506      	bpl.n	8002172 <HAL_CAN_IRQHandler+0xae>
 8002164:	682b      	ldr	r3, [r5, #0]
 8002166:	68db      	ldr	r3, [r3, #12]
 8002168:	0798      	lsls	r0, r3, #30
 800216a:	d002      	beq.n	8002172 <HAL_CAN_IRQHandler+0xae>
 800216c:	4628      	mov	r0, r5
 800216e:	f7fe fe8f 	bl	8000e90 <HAL_CAN_RxFifo0MsgPendingCallback>
 8002172:	0671      	lsls	r1, r6, #25
 8002174:	d507      	bpl.n	8002186 <HAL_CAN_IRQHandler+0xc2>
 8002176:	f01a 0f10 	tst.w	sl, #16
 800217a:	bf1f      	itttt	ne
 800217c:	2210      	movne	r2, #16
 800217e:	682b      	ldrne	r3, [r5, #0]
 8002180:	f444 6480 	orrne.w	r4, r4, #1024	@ 0x400
 8002184:	611a      	strne	r2, [r3, #16]
 8002186:	06b2      	lsls	r2, r6, #26
 8002188:	d508      	bpl.n	800219c <HAL_CAN_IRQHandler+0xd8>
 800218a:	f01a 0f08 	tst.w	sl, #8
 800218e:	d005      	beq.n	800219c <HAL_CAN_IRQHandler+0xd8>
 8002190:	2208      	movs	r2, #8
 8002192:	682b      	ldr	r3, [r5, #0]
 8002194:	4628      	mov	r0, r5
 8002196:	611a      	str	r2, [r3, #16]
 8002198:	f7ff ff90 	bl	80020bc <HAL_CAN_RxFifo1FullCallback>
 800219c:	06f3      	lsls	r3, r6, #27
 800219e:	d506      	bpl.n	80021ae <HAL_CAN_IRQHandler+0xea>
 80021a0:	682b      	ldr	r3, [r5, #0]
 80021a2:	691b      	ldr	r3, [r3, #16]
 80021a4:	0798      	lsls	r0, r3, #30
 80021a6:	d002      	beq.n	80021ae <HAL_CAN_IRQHandler+0xea>
 80021a8:	4628      	mov	r0, r5
 80021aa:	f7ff ff86 	bl	80020ba <HAL_CAN_RxFifo1MsgPendingCallback>
 80021ae:	03b1      	lsls	r1, r6, #14
 80021b0:	d508      	bpl.n	80021c4 <HAL_CAN_IRQHandler+0x100>
 80021b2:	f019 0f10 	tst.w	r9, #16
 80021b6:	d005      	beq.n	80021c4 <HAL_CAN_IRQHandler+0x100>
 80021b8:	2210      	movs	r2, #16
 80021ba:	682b      	ldr	r3, [r5, #0]
 80021bc:	4628      	mov	r0, r5
 80021be:	605a      	str	r2, [r3, #4]
 80021c0:	f7ff ff7d 	bl	80020be <HAL_CAN_SleepCallback>
 80021c4:	03f2      	lsls	r2, r6, #15
 80021c6:	d508      	bpl.n	80021da <HAL_CAN_IRQHandler+0x116>
 80021c8:	f019 0f08 	tst.w	r9, #8
 80021cc:	d005      	beq.n	80021da <HAL_CAN_IRQHandler+0x116>
 80021ce:	2208      	movs	r2, #8
 80021d0:	682b      	ldr	r3, [r5, #0]
 80021d2:	4628      	mov	r0, r5
 80021d4:	605a      	str	r2, [r3, #4]
 80021d6:	f7ff ff73 	bl	80020c0 <HAL_CAN_WakeUpFromRxMsgCallback>
 80021da:	0433      	lsls	r3, r6, #16
 80021dc:	d528      	bpl.n	8002230 <HAL_CAN_IRQHandler+0x16c>
 80021de:	f019 0f04 	tst.w	r9, #4
 80021e2:	682a      	ldr	r2, [r5, #0]
 80021e4:	d022      	beq.n	800222c <HAL_CAN_IRQHandler+0x168>
 80021e6:	05f0      	lsls	r0, r6, #23
 80021e8:	bf44      	itt	mi
 80021ea:	f007 0301 	andmi.w	r3, r7, #1
 80021ee:	431c      	orrmi	r4, r3
 80021f0:	05b1      	lsls	r1, r6, #22
 80021f2:	d503      	bpl.n	80021fc <HAL_CAN_IRQHandler+0x138>
 80021f4:	07bb      	lsls	r3, r7, #30
 80021f6:	bf48      	it	mi
 80021f8:	f044 0402 	orrmi.w	r4, r4, #2
 80021fc:	0570      	lsls	r0, r6, #21
 80021fe:	d503      	bpl.n	8002208 <HAL_CAN_IRQHandler+0x144>
 8002200:	0779      	lsls	r1, r7, #29
 8002202:	bf48      	it	mi
 8002204:	f044 0404 	orrmi.w	r4, r4, #4
 8002208:	0533      	lsls	r3, r6, #20
 800220a:	d50f      	bpl.n	800222c <HAL_CAN_IRQHandler+0x168>
 800220c:	f017 0370 	ands.w	r3, r7, #112	@ 0x70
 8002210:	d00c      	beq.n	800222c <HAL_CAN_IRQHandler+0x168>
 8002212:	2b40      	cmp	r3, #64	@ 0x40
 8002214:	d054      	beq.n	80022c0 <HAL_CAN_IRQHandler+0x1fc>
 8002216:	d843      	bhi.n	80022a0 <HAL_CAN_IRQHandler+0x1dc>
 8002218:	2b20      	cmp	r3, #32
 800221a:	d04b      	beq.n	80022b4 <HAL_CAN_IRQHandler+0x1f0>
 800221c:	2b30      	cmp	r3, #48	@ 0x30
 800221e:	d04c      	beq.n	80022ba <HAL_CAN_IRQHandler+0x1f6>
 8002220:	2b10      	cmp	r3, #16
 8002222:	d044      	beq.n	80022ae <HAL_CAN_IRQHandler+0x1ea>
 8002224:	6993      	ldr	r3, [r2, #24]
 8002226:	f023 0370 	bic.w	r3, r3, #112	@ 0x70
 800222a:	6193      	str	r3, [r2, #24]
 800222c:	2304      	movs	r3, #4
 800222e:	6053      	str	r3, [r2, #4]
 8002230:	b12c      	cbz	r4, 800223e <HAL_CAN_IRQHandler+0x17a>
 8002232:	6a6b      	ldr	r3, [r5, #36]	@ 0x24
 8002234:	4628      	mov	r0, r5
 8002236:	4323      	orrs	r3, r4
 8002238:	626b      	str	r3, [r5, #36]	@ 0x24
 800223a:	f7ff ff42 	bl	80020c2 <HAL_CAN_ErrorCallback>
 800223e:	e8bd 8ff8 	ldmia.w	sp!, {r3, r4, r5, r6, r7, r8, r9, sl, fp, pc}
 8002242:	f018 0f04 	tst.w	r8, #4
 8002246:	d105      	bne.n	8002254 <HAL_CAN_IRQHandler+0x190>
 8002248:	f018 0f08 	tst.w	r8, #8
 800224c:	d105      	bne.n	800225a <HAL_CAN_IRQHandler+0x196>
 800224e:	f7ff ff30 	bl	80020b2 <HAL_CAN_TxMailbox0AbortCallback>
 8002252:	e753      	b.n	80020fc <HAL_CAN_IRQHandler+0x38>
 8002254:	f44f 6400 	mov.w	r4, #2048	@ 0x800
 8002258:	e751      	b.n	80020fe <HAL_CAN_IRQHandler+0x3a>
 800225a:	f44f 5480 	mov.w	r4, #4096	@ 0x1000
 800225e:	e74e      	b.n	80020fe <HAL_CAN_IRQHandler+0x3a>
 8002260:	f418 6f80 	tst.w	r8, #1024	@ 0x400
 8002264:	d002      	beq.n	800226c <HAL_CAN_IRQHandler+0x1a8>
 8002266:	f444 5400 	orr.w	r4, r4, #8192	@ 0x2000
 800226a:	e756      	b.n	800211a <HAL_CAN_IRQHandler+0x56>
 800226c:	f418 6f00 	tst.w	r8, #2048	@ 0x800
 8002270:	d002      	beq.n	8002278 <HAL_CAN_IRQHandler+0x1b4>
 8002272:	f444 4480 	orr.w	r4, r4, #16384	@ 0x4000
 8002276:	e750      	b.n	800211a <HAL_CAN_IRQHandler+0x56>
 8002278:	4628      	mov	r0, r5
 800227a:	f7ff ff1b 	bl	80020b4 <HAL_CAN_TxMailbox1AbortCallback>
 800227e:	e74c      	b.n	800211a <HAL_CAN_IRQHandler+0x56>
 8002280:	f418 2f80 	tst.w	r8, #262144	@ 0x40000
 8002284:	d002      	beq.n	800228c <HAL_CAN_IRQHandler+0x1c8>
 8002286:	f444 4400 	orr.w	r4, r4, #32768	@ 0x8000
 800228a:	e754      	b.n	8002136 <HAL_CAN_IRQHandler+0x72>
 800228c:	f418 2f00 	tst.w	r8, #524288	@ 0x80000
 8002290:	d002      	beq.n	8002298 <HAL_CAN_IRQHandler+0x1d4>
 8002292:	f444 3480 	orr.w	r4, r4, #65536	@ 0x10000
 8002296:	e74e      	b.n	8002136 <HAL_CAN_IRQHandler+0x72>
 8002298:	4628      	mov	r0, r5
 800229a:	f7ff ff0c 	bl	80020b6 <HAL_CAN_TxMailbox2AbortCallback>
 800229e:	e74a      	b.n	8002136 <HAL_CAN_IRQHandler+0x72>
 80022a0:	2b50      	cmp	r3, #80	@ 0x50
 80022a2:	d010      	beq.n	80022c6 <HAL_CAN_IRQHandler+0x202>
 80022a4:	2b60      	cmp	r3, #96	@ 0x60
 80022a6:	d1bd      	bne.n	8002224 <HAL_CAN_IRQHandler+0x160>
 80022a8:	f444 7480 	orr.w	r4, r4, #256	@ 0x100
 80022ac:	e7ba      	b.n	8002224 <HAL_CAN_IRQHandler+0x160>
 80022ae:	f044 0408 	orr.w	r4, r4, #8
 80022b2:	e7b7      	b.n	8002224 <HAL_CAN_IRQHandler+0x160>
 80022b4:	f044 0410 	orr.w	r4, r4, #16
 80022b8:	e7b4      	b.n	8002224 <HAL_CAN_IRQHandler+0x160>
 80022ba:	f044 0420 	orr.w	r4, r4, #32
 80022be:	e7b1      	b.n	8002224 <HAL_CAN_IRQHandler+0x160>
 80022c0:	f044 0440 	orr.w	r4, r4, #64	@ 0x40
 80022c4:	e7ae      	b.n	8002224 <HAL_CAN_IRQHandler+0x160>
 80022c6:	f044 0480 	orr.w	r4, r4, #128	@ 0x80
 80022ca:	e7ab      	b.n	8002224 <HAL_CAN_IRQHandler+0x160>

080022cc <HAL_NVIC_SetPriorityGrouping>:
 80022cc:	4907      	ldr	r1, [pc, #28]	@ (80022ec <HAL_NVIC_SetPriorityGrouping+0x20>)
 80022ce:	0203      	lsls	r3, r0, #8
 80022d0:	68ca      	ldr	r2, [r1, #12]
 80022d2:	f403 63e0 	and.w	r3, r3, #1792	@ 0x700
 80022d6:	f422 62e0 	bic.w	r2, r2, #1792	@ 0x700
 80022da:	0412      	lsls	r2, r2, #16
 80022dc:	0c12      	lsrs	r2, r2, #16
 80022de:	4313      	orrs	r3, r2
 80022e0:	f043 63bf 	orr.w	r3, r3, #100139008	@ 0x5f80000
 80022e4:	f443 3300 	orr.w	r3, r3, #131072	@ 0x20000
 80022e8:	60cb      	str	r3, [r1, #12]
 80022ea:	4770      	bx	lr
 80022ec:	e000ed00 	.word	0xe000ed00

080022f0 <HAL_NVIC_SetPriority>:
 80022f0:	4b15      	ldr	r3, [pc, #84]	@ (8002348 <HAL_NVIC_SetPriority+0x58>)
 80022f2:	b530      	push	{r4, r5, lr}
 80022f4:	68dc      	ldr	r4, [r3, #12]
 80022f6:	f3c4 2402 	ubfx	r4, r4, #8, #3
 80022fa:	f1c4 0307 	rsb	r3, r4, #7
 80022fe:	1d25      	adds	r5, r4, #4
 8002300:	2b04      	cmp	r3, #4
 8002302:	bf28      	it	cs
 8002304:	2304      	movcs	r3, #4
 8002306:	2d06      	cmp	r5, #6
 8002308:	f04f 35ff 	mov.w	r5, #4294967295
 800230c:	bf94      	ite	ls
 800230e:	2400      	movls	r4, #0
 8002310:	3c03      	subhi	r4, #3
 8002312:	fa05 f303 	lsl.w	r3, r5, r3
 8002316:	ea21 0303 	bic.w	r3, r1, r3
 800231a:	40a5      	lsls	r5, r4
 800231c:	ea22 0205 	bic.w	r2, r2, r5
 8002320:	40a3      	lsls	r3, r4
 8002322:	2800      	cmp	r0, #0
 8002324:	ea43 0302 	orr.w	r3, r3, r2
 8002328:	bfac      	ite	ge
 800232a:	f100 4060 	addge.w	r0, r0, #3758096384	@ 0xe0000000
 800232e:	4a07      	ldrlt	r2, [pc, #28]	@ (800234c <HAL_NVIC_SetPriority+0x5c>)
 8002330:	ea4f 1303 	mov.w	r3, r3, lsl #4
 8002334:	b2db      	uxtb	r3, r3
 8002336:	bfab      	itete	ge
 8002338:	f500 4061 	addge.w	r0, r0, #57600	@ 0xe100
 800233c:	f000 000f 	andlt.w	r0, r0, #15
 8002340:	f880 3300 	strbge.w	r3, [r0, #768]	@ 0x300
 8002344:	5413      	strblt	r3, [r2, r0]
 8002346:	bd30      	pop	{r4, r5, pc}
 8002348:	e000ed00 	.word	0xe000ed00
 800234c:	e000ed14 	.word	0xe000ed14

08002350 <HAL_NVIC_EnableIRQ>:
 8002350:	2800      	cmp	r0, #0
 8002352:	db07      	blt.n	8002364 <HAL_NVIC_EnableIRQ+0x14>
 8002354:	2301      	movs	r3, #1
 8002356:	0941      	lsrs	r1, r0, #5
 8002358:	4a03      	ldr	r2, [pc, #12]	@ (8002368 <HAL_NVIC_EnableIRQ+0x18>)
 800235a:	f000 001f 	and.w	r0, r0, #31
 800235e:	4083      	lsls	r3, r0
 8002360:	f842 3021 	str.w	r3, [r2, r1, lsl #2]
 8002364:	4770      	bx	lr
 8002366:	bf00      	nop
 8002368:	e000e100 	.word	0xe000e100

0800236c <HAL_SYSTICK_Config>:
 800236c:	3801      	subs	r0, #1
 800236e:	f1b0 7f80 	cmp.w	r0, #16777216	@ 0x1000000
 8002372:	d20b      	bcs.n	800238c <HAL_SYSTICK_Config+0x20>
 8002374:	f04f 23e0 	mov.w	r3, #3758153728	@ 0xe000e000
 8002378:	21f0      	movs	r1, #240	@ 0xf0
 800237a:	4a05      	ldr	r2, [pc, #20]	@ (8002390 <HAL_SYSTICK_Config+0x24>)
 800237c:	6158      	str	r0, [r3, #20]
 800237e:	f882 1023 	strb.w	r1, [r2, #35]	@ 0x23
 8002382:	2000      	movs	r0, #0
 8002384:	2207      	movs	r2, #7
 8002386:	6198      	str	r0, [r3, #24]
 8002388:	611a      	str	r2, [r3, #16]
 800238a:	4770      	bx	lr
 800238c:	2001      	movs	r0, #1
 800238e:	4770      	bx	lr
 8002390:	e000ed00 	.word	0xe000ed00

08002394 <HAL_GPIO_Init>:
 8002394:	e92d 4ff7 	stmdb	sp!, {r0, r1, r2, r4, r5, r6, r7, r8, r9, sl, fp, lr}
 8002398:	2400      	movs	r4, #0
 800239a:	f04f 0e0f 	mov.w	lr, #15
 800239e:	4626      	mov	r6, r4
 80023a0:	f8df c184 	ldr.w	ip, [pc, #388]	@ 8002528 <HAL_GPIO_Init+0x194>
 80023a4:	4b61      	ldr	r3, [pc, #388]	@ (800252c <HAL_GPIO_Init+0x198>)
 80023a6:	f100 0804 	add.w	r8, r0, #4
 80023aa:	680a      	ldr	r2, [r1, #0]
 80023ac:	fa32 f506 	lsrs.w	r5, r2, r6
 80023b0:	d102      	bne.n	80023b8 <HAL_GPIO_Init+0x24>
 80023b2:	b003      	add	sp, #12
 80023b4:	e8bd 8ff0 	ldmia.w	sp!, {r4, r5, r6, r7, r8, r9, sl, fp, pc}
 80023b8:	2501      	movs	r5, #1
 80023ba:	fa05 f706 	lsl.w	r7, r5, r6
 80023be:	ea02 0507 	and.w	r5, r2, r7
 80023c2:	ea37 0202 	bics.w	r2, r7, r2
 80023c6:	d176      	bne.n	80024b6 <HAL_GPIO_Init+0x122>
 80023c8:	684a      	ldr	r2, [r1, #4]
 80023ca:	2a03      	cmp	r2, #3
 80023cc:	d807      	bhi.n	80023de <HAL_GPIO_Init+0x4a>
 80023ce:	3a01      	subs	r2, #1
 80023d0:	2a02      	cmp	r2, #2
 80023d2:	f200 8083 	bhi.w	80024dc <HAL_GPIO_Init+0x148>
 80023d6:	e8df f002 	tbb	[pc, r2]
 80023da:	9691      	.short	0x9691
 80023dc:	9c          	.byte	0x9c
 80023dd:	00          	.byte	0x00
 80023de:	2a12      	cmp	r2, #18
 80023e0:	f000 8094 	beq.w	800250c <HAL_GPIO_Init+0x178>
 80023e4:	d869      	bhi.n	80024ba <HAL_GPIO_Init+0x126>
 80023e6:	2a11      	cmp	r2, #17
 80023e8:	f000 808a 	beq.w	8002500 <HAL_GPIO_Init+0x16c>
 80023ec:	2dff      	cmp	r5, #255	@ 0xff
 80023ee:	bf94      	ite	ls
 80023f0:	4681      	movls	r9, r0
 80023f2:	46c1      	movhi	r9, r8
 80023f4:	ea4f 0286 	mov.w	r2, r6, lsl #2
 80023f8:	f8d9 7000 	ldr.w	r7, [r9]
 80023fc:	bf88      	it	hi
 80023fe:	3a20      	subhi	r2, #32
 8002400:	fa0e fa02 	lsl.w	sl, lr, r2
 8002404:	ea27 070a 	bic.w	r7, r7, sl
 8002408:	fa04 f202 	lsl.w	r2, r4, r2
 800240c:	4317      	orrs	r7, r2
 800240e:	f8c9 7000 	str.w	r7, [r9]
 8002412:	f8d1 9004 	ldr.w	r9, [r1, #4]
 8002416:	f019 5f80 	tst.w	r9, #268435456	@ 0x10000000
 800241a:	d04c      	beq.n	80024b6 <HAL_GPIO_Init+0x122>
 800241c:	f8dc 2018 	ldr.w	r2, [ip, #24]
 8002420:	f026 0703 	bic.w	r7, r6, #3
 8002424:	f042 0201 	orr.w	r2, r2, #1
 8002428:	f8cc 2018 	str.w	r2, [ip, #24]
 800242c:	f8dc 2018 	ldr.w	r2, [ip, #24]
 8002430:	f107 4780 	add.w	r7, r7, #1073741824	@ 0x40000000
 8002434:	f002 0201 	and.w	r2, r2, #1
 8002438:	9201      	str	r2, [sp, #4]
 800243a:	f507 3780 	add.w	r7, r7, #65536	@ 0x10000
 800243e:	f006 0a03 	and.w	sl, r6, #3
 8002442:	9a01      	ldr	r2, [sp, #4]
 8002444:	ea4f 0a8a 	mov.w	sl, sl, lsl #2
 8002448:	68ba      	ldr	r2, [r7, #8]
 800244a:	fa0e fb0a 	lsl.w	fp, lr, sl
 800244e:	ea22 0b0b 	bic.w	fp, r2, fp
 8002452:	4a37      	ldr	r2, [pc, #220]	@ (8002530 <HAL_GPIO_Init+0x19c>)
 8002454:	4290      	cmp	r0, r2
 8002456:	d060      	beq.n	800251a <HAL_GPIO_Init+0x186>
 8002458:	f502 6280 	add.w	r2, r2, #1024	@ 0x400
 800245c:	4290      	cmp	r0, r2
 800245e:	d05e      	beq.n	800251e <HAL_GPIO_Init+0x18a>
 8002460:	f502 6280 	add.w	r2, r2, #1024	@ 0x400
 8002464:	4290      	cmp	r0, r2
 8002466:	d05c      	beq.n	8002522 <HAL_GPIO_Init+0x18e>
 8002468:	f502 6280 	add.w	r2, r2, #1024	@ 0x400
 800246c:	4290      	cmp	r0, r2
 800246e:	bf14      	ite	ne
 8002470:	2204      	movne	r2, #4
 8002472:	2203      	moveq	r2, #3
 8002474:	fa02 f20a 	lsl.w	r2, r2, sl
 8002478:	ea42 020b 	orr.w	r2, r2, fp
 800247c:	60ba      	str	r2, [r7, #8]
 800247e:	689a      	ldr	r2, [r3, #8]
 8002480:	f419 1f80 	tst.w	r9, #1048576	@ 0x100000
 8002484:	bf14      	ite	ne
 8002486:	432a      	orrne	r2, r5
 8002488:	43aa      	biceq	r2, r5
 800248a:	609a      	str	r2, [r3, #8]
 800248c:	68da      	ldr	r2, [r3, #12]
 800248e:	f419 1f00 	tst.w	r9, #2097152	@ 0x200000
 8002492:	bf14      	ite	ne
 8002494:	432a      	orrne	r2, r5
 8002496:	43aa      	biceq	r2, r5
 8002498:	60da      	str	r2, [r3, #12]
 800249a:	685a      	ldr	r2, [r3, #4]
 800249c:	f419 3f00 	tst.w	r9, #131072	@ 0x20000
 80024a0:	bf14      	ite	ne
 80024a2:	432a      	orrne	r2, r5
 80024a4:	43aa      	biceq	r2, r5
 80024a6:	605a      	str	r2, [r3, #4]
 80024a8:	681a      	ldr	r2, [r3, #0]
 80024aa:	f419 3f80 	tst.w	r9, #65536	@ 0x10000
 80024ae:	bf14      	ite	ne
 80024b0:	432a      	orrne	r2, r5
 80024b2:	43aa      	biceq	r2, r5
 80024b4:	601a      	str	r2, [r3, #0]
 80024b6:	3601      	adds	r6, #1
 80024b8:	e777      	b.n	80023aa <HAL_GPIO_Init+0x16>
 80024ba:	f8df 9078 	ldr.w	r9, [pc, #120]	@ 8002534 <HAL_GPIO_Init+0x1a0>
 80024be:	454a      	cmp	r2, r9
 80024c0:	d00c      	beq.n	80024dc <HAL_GPIO_Init+0x148>
 80024c2:	d814      	bhi.n	80024ee <HAL_GPIO_Init+0x15a>
 80024c4:	f5a9 1980 	sub.w	r9, r9, #1048576	@ 0x100000
 80024c8:	454a      	cmp	r2, r9
 80024ca:	d007      	beq.n	80024dc <HAL_GPIO_Init+0x148>
 80024cc:	f509 2970 	add.w	r9, r9, #983040	@ 0xf0000
 80024d0:	454a      	cmp	r2, r9
 80024d2:	d003      	beq.n	80024dc <HAL_GPIO_Init+0x148>
 80024d4:	f5a9 1980 	sub.w	r9, r9, #1048576	@ 0x100000
 80024d8:	454a      	cmp	r2, r9
 80024da:	d187      	bne.n	80023ec <HAL_GPIO_Init+0x58>
 80024dc:	688a      	ldr	r2, [r1, #8]
 80024de:	b1d2      	cbz	r2, 8002516 <HAL_GPIO_Init+0x182>
 80024e0:	2a01      	cmp	r2, #1
 80024e2:	f04f 0408 	mov.w	r4, #8
 80024e6:	bf0c      	ite	eq
 80024e8:	6107      	streq	r7, [r0, #16]
 80024ea:	6147      	strne	r7, [r0, #20]
 80024ec:	e77e      	b.n	80023ec <HAL_GPIO_Init+0x58>
 80024ee:	f8df 9048 	ldr.w	r9, [pc, #72]	@ 8002538 <HAL_GPIO_Init+0x1a4>
 80024f2:	454a      	cmp	r2, r9
 80024f4:	d0f2      	beq.n	80024dc <HAL_GPIO_Init+0x148>
 80024f6:	f509 3980 	add.w	r9, r9, #65536	@ 0x10000
 80024fa:	e7ed      	b.n	80024d8 <HAL_GPIO_Init+0x144>
 80024fc:	68cc      	ldr	r4, [r1, #12]
 80024fe:	e775      	b.n	80023ec <HAL_GPIO_Init+0x58>
 8002500:	68cc      	ldr	r4, [r1, #12]
 8002502:	3404      	adds	r4, #4
 8002504:	e772      	b.n	80023ec <HAL_GPIO_Init+0x58>
 8002506:	68cc      	ldr	r4, [r1, #12]
 8002508:	3408      	adds	r4, #8
 800250a:	e76f      	b.n	80023ec <HAL_GPIO_Init+0x58>
 800250c:	68cc      	ldr	r4, [r1, #12]
 800250e:	340c      	adds	r4, #12
 8002510:	e76c      	b.n	80023ec <HAL_GPIO_Init+0x58>
 8002512:	2400      	movs	r4, #0
 8002514:	e76a      	b.n	80023ec <HAL_GPIO_Init+0x58>
 8002516:	2404      	movs	r4, #4
 8002518:	e768      	b.n	80023ec <HAL_GPIO_Init+0x58>
 800251a:	2200      	movs	r2, #0
 800251c:	e7aa      	b.n	8002474 <HAL_GPIO_Init+0xe0>
 800251e:	2201      	movs	r2, #1
 8002520:	e7a8      	b.n	8002474 <HAL_GPIO_Init+0xe0>
 8002522:	2202      	movs	r2, #2
 8002524:	e7a6      	b.n	8002474 <HAL_GPIO_Init+0xe0>
 8002526:	bf00      	nop
 8002528:	40021000 	.word	0x40021000
 800252c:	40010400 	.word	0x40010400
 8002530:	40010800 	.word	0x40010800
 8002534:	10220000 	.word	0x10220000
 8002538:	10310000 	.word	0x10310000

0800253c <HAL_GPIO_WritePin>:
 800253c:	b10a      	cbz	r2, 8002542 <HAL_GPIO_WritePin+0x6>
 800253e:	6101      	str	r1, [r0, #16]
 8002540:	4770      	bx	lr
 8002542:	0409      	lsls	r1, r1, #16
 8002544:	e7fb      	b.n	800253e <HAL_GPIO_WritePin+0x2>

08002546 <I2C_WaitOnFlagUntilTimeout>:
 8002546:	e92d 46f8 	stmdb	sp!, {r3, r4, r5, r6, r7, r9, sl, lr}
 800254a:	4606      	mov	r6, r0
 800254c:	460f      	mov	r7, r1
 800254e:	4691      	mov	r9, r2
 8002550:	461d      	mov	r5, r3
 8002552:	ea4f 4a11 	mov.w	sl, r1, lsr #16
 8002556:	6833      	ldr	r3, [r6, #0]
 8002558:	f1ba 0f01 	cmp.w	sl, #1
 800255c:	bf0c      	ite	eq
 800255e:	695c      	ldreq	r4, [r3, #20]
 8002560:	699c      	ldrne	r4, [r3, #24]
 8002562:	ea27 0404 	bic.w	r4, r7, r4
 8002566:	b2a4      	uxth	r4, r4
 8002568:	fab4 f484 	clz	r4, r4
 800256c:	0964      	lsrs	r4, r4, #5
 800256e:	45a1      	cmp	r9, r4
 8002570:	d001      	beq.n	8002576 <I2C_WaitOnFlagUntilTimeout+0x30>
 8002572:	2000      	movs	r0, #0
 8002574:	e025      	b.n	80025c2 <I2C_WaitOnFlagUntilTimeout+0x7c>
 8002576:	1c6a      	adds	r2, r5, #1
 8002578:	d0ee      	beq.n	8002558 <I2C_WaitOnFlagUntilTimeout+0x12>
 800257a:	f7ff fb93 	bl	8001ca4 <HAL_GetTick>
 800257e:	9b08      	ldr	r3, [sp, #32]
 8002580:	1ac0      	subs	r0, r0, r3
 8002582:	42a8      	cmp	r0, r5
 8002584:	d801      	bhi.n	800258a <I2C_WaitOnFlagUntilTimeout+0x44>
 8002586:	2d00      	cmp	r5, #0
 8002588:	d1e5      	bne.n	8002556 <I2C_WaitOnFlagUntilTimeout+0x10>
 800258a:	6833      	ldr	r3, [r6, #0]
 800258c:	f1ba 0f01 	cmp.w	sl, #1
 8002590:	bf0c      	ite	eq
 8002592:	695b      	ldreq	r3, [r3, #20]
 8002594:	699b      	ldrne	r3, [r3, #24]
 8002596:	ea27 0303 	bic.w	r3, r7, r3
 800259a:	b29b      	uxth	r3, r3
 800259c:	fab3 f383 	clz	r3, r3
 80025a0:	095b      	lsrs	r3, r3, #5
 80025a2:	4599      	cmp	r9, r3
 80025a4:	d1d7      	bne.n	8002556 <I2C_WaitOnFlagUntilTimeout+0x10>
 80025a6:	2300      	movs	r3, #0
 80025a8:	2220      	movs	r2, #32
 80025aa:	2001      	movs	r0, #1
 80025ac:	6333      	str	r3, [r6, #48]	@ 0x30
 80025ae:	f886 203d 	strb.w	r2, [r6, #61]	@ 0x3d
 80025b2:	f886 303e 	strb.w	r3, [r6, #62]	@ 0x3e
 80025b6:	6c32      	ldr	r2, [r6, #64]	@ 0x40
 80025b8:	f886 303c 	strb.w	r3, [r6, #60]	@ 0x3c
 80025bc:	f042 0220 	orr.w	r2, r2, #32
 80025c0:	6432      	str	r2, [r6, #64]	@ 0x40
 80025c2:	e8bd 86f8 	ldmia.w	sp!, {r3, r4, r5, r6, r7, r9, sl, pc}

080025c6 <I2C_WaitOnMasterAddressFlagUntilTimeout>:
 80025c6:	e92d 41f0 	stmdb	sp!, {r4, r5, r6, r7, r8, lr}
 80025ca:	4604      	mov	r4, r0
 80025cc:	460f      	mov	r7, r1
 80025ce:	4616      	mov	r6, r2
 80025d0:	4698      	mov	r8, r3
 80025d2:	6825      	ldr	r5, [r4, #0]
 80025d4:	6968      	ldr	r0, [r5, #20]
 80025d6:	ea27 0000 	bic.w	r0, r7, r0
 80025da:	b280      	uxth	r0, r0
 80025dc:	b1c0      	cbz	r0, 8002610 <I2C_WaitOnMasterAddressFlagUntilTimeout+0x4a>
 80025de:	696b      	ldr	r3, [r5, #20]
 80025e0:	055a      	lsls	r2, r3, #21
 80025e2:	d517      	bpl.n	8002614 <I2C_WaitOnMasterAddressFlagUntilTimeout+0x4e>
 80025e4:	682b      	ldr	r3, [r5, #0]
 80025e6:	2220      	movs	r2, #32
 80025e8:	f443 7300 	orr.w	r3, r3, #512	@ 0x200
 80025ec:	602b      	str	r3, [r5, #0]
 80025ee:	f46f 6380 	mvn.w	r3, #1024	@ 0x400
 80025f2:	616b      	str	r3, [r5, #20]
 80025f4:	2300      	movs	r3, #0
 80025f6:	6323      	str	r3, [r4, #48]	@ 0x30
 80025f8:	f884 203d 	strb.w	r2, [r4, #61]	@ 0x3d
 80025fc:	f884 303e 	strb.w	r3, [r4, #62]	@ 0x3e
 8002600:	6c23      	ldr	r3, [r4, #64]	@ 0x40
 8002602:	f043 0304 	orr.w	r3, r3, #4
 8002606:	6423      	str	r3, [r4, #64]	@ 0x40
 8002608:	2300      	movs	r3, #0
 800260a:	2001      	movs	r0, #1
 800260c:	f884 303c 	strb.w	r3, [r4, #60]	@ 0x3c
 8002610:	e8bd 81f0 	ldmia.w	sp!, {r4, r5, r6, r7, r8, pc}
 8002614:	1c73      	adds	r3, r6, #1
 8002616:	d0dd      	beq.n	80025d4 <I2C_WaitOnMasterAddressFlagUntilTimeout+0xe>
 8002618:	f7ff fb44 	bl	8001ca4 <HAL_GetTick>
 800261c:	eba0 0008 	sub.w	r0, r0, r8
 8002620:	42b0      	cmp	r0, r6
 8002622:	d801      	bhi.n	8002628 <I2C_WaitOnMasterAddressFlagUntilTimeout+0x62>
 8002624:	2e00      	cmp	r6, #0
 8002626:	d1d4      	bne.n	80025d2 <I2C_WaitOnMasterAddressFlagUntilTimeout+0xc>
 8002628:	6823      	ldr	r3, [r4, #0]
 800262a:	695a      	ldr	r2, [r3, #20]
 800262c:	ea27 0202 	bic.w	r2, r7, r2
 8002630:	b292      	uxth	r2, r2
 8002632:	2a00      	cmp	r2, #0
 8002634:	d0cd      	beq.n	80025d2 <I2C_WaitOnMasterAddressFlagUntilTimeout+0xc>
 8002636:	2300      	movs	r3, #0
 8002638:	2220      	movs	r2, #32
 800263a:	6323      	str	r3, [r4, #48]	@ 0x30
 800263c:	f884 203d 	strb.w	r2, [r4, #61]	@ 0x3d
 8002640:	f884 303e 	strb.w	r3, [r4, #62]	@ 0x3e
 8002644:	6c23      	ldr	r3, [r4, #64]	@ 0x40
 8002646:	4313      	orrs	r3, r2
 8002648:	e7dd      	b.n	8002606 <I2C_WaitOnMasterAddressFlagUntilTimeout+0x40>

0800264a <I2C_WaitOnRXNEFlagUntilTimeout>:
 800264a:	b570      	push	{r4, r5, r6, lr}
 800264c:	4604      	mov	r4, r0
 800264e:	460d      	mov	r5, r1
 8002650:	4616      	mov	r6, r2
 8002652:	6821      	ldr	r1, [r4, #0]
 8002654:	694b      	ldr	r3, [r1, #20]
 8002656:	f013 0340 	ands.w	r3, r3, #64	@ 0x40
 800265a:	d001      	beq.n	8002660 <I2C_WaitOnRXNEFlagUntilTimeout+0x16>
 800265c:	2000      	movs	r0, #0
 800265e:	e011      	b.n	8002684 <I2C_WaitOnRXNEFlagUntilTimeout+0x3a>
 8002660:	694a      	ldr	r2, [r1, #20]
 8002662:	06d2      	lsls	r2, r2, #27
 8002664:	d50f      	bpl.n	8002686 <I2C_WaitOnRXNEFlagUntilTimeout+0x3c>
 8002666:	f06f 0210 	mvn.w	r2, #16
 800266a:	614a      	str	r2, [r1, #20]
 800266c:	2220      	movs	r2, #32
 800266e:	6323      	str	r3, [r4, #48]	@ 0x30
 8002670:	f884 203d 	strb.w	r2, [r4, #61]	@ 0x3d
 8002674:	f884 303e 	strb.w	r3, [r4, #62]	@ 0x3e
 8002678:	6c23      	ldr	r3, [r4, #64]	@ 0x40
 800267a:	6423      	str	r3, [r4, #64]	@ 0x40
 800267c:	2300      	movs	r3, #0
 800267e:	2001      	movs	r0, #1
 8002680:	f884 303c 	strb.w	r3, [r4, #60]	@ 0x3c
 8002684:	bd70      	pop	{r4, r5, r6, pc}
 8002686:	f7ff fb0d 	bl	8001ca4 <HAL_GetTick>
 800268a:	1b80      	subs	r0, r0, r6
 800268c:	42a8      	cmp	r0, r5
 800268e:	d801      	bhi.n	8002694 <I2C_WaitOnRXNEFlagUntilTimeout+0x4a>
 8002690:	2d00      	cmp	r5, #0
 8002692:	d1de      	bne.n	8002652 <I2C_WaitOnRXNEFlagUntilTimeout+0x8>
 8002694:	6823      	ldr	r3, [r4, #0]
 8002696:	695b      	ldr	r3, [r3, #20]
 8002698:	f013 0340 	ands.w	r3, r3, #64	@ 0x40
 800269c:	d1d9      	bne.n	8002652 <I2C_WaitOnRXNEFlagUntilTimeout+0x8>
 800269e:	2220      	movs	r2, #32
 80026a0:	6323      	str	r3, [r4, #48]	@ 0x30
 80026a2:	f884 203d 	strb.w	r2, [r4, #61]	@ 0x3d
 80026a6:	f884 303e 	strb.w	r3, [r4, #62]	@ 0x3e
 80026aa:	6c23      	ldr	r3, [r4, #64]	@ 0x40
 80026ac:	4313      	orrs	r3, r2
 80026ae:	e7e4      	b.n	800267a <I2C_WaitOnRXNEFlagUntilTimeout+0x30>

080026b0 <HAL_I2C_Init>:
 80026b0:	b570      	push	{r4, r5, r6, lr}
 80026b2:	4604      	mov	r4, r0
 80026b4:	b908      	cbnz	r0, 80026ba <HAL_I2C_Init+0xa>
 80026b6:	2001      	movs	r0, #1
 80026b8:	bd70      	pop	{r4, r5, r6, pc}
 80026ba:	f890 303d 	ldrb.w	r3, [r0, #61]	@ 0x3d
 80026be:	f003 02ff 	and.w	r2, r3, #255	@ 0xff
 80026c2:	b91b      	cbnz	r3, 80026cc <HAL_I2C_Init+0x1c>
 80026c4:	f880 203c 	strb.w	r2, [r0, #60]	@ 0x3c
 80026c8:	f7ff f982 	bl	80019d0 <HAL_I2C_MspInit>
 80026cc:	2324      	movs	r3, #36	@ 0x24
 80026ce:	f884 303d 	strb.w	r3, [r4, #61]	@ 0x3d
 80026d2:	6823      	ldr	r3, [r4, #0]
 80026d4:	681a      	ldr	r2, [r3, #0]
 80026d6:	f022 0201 	bic.w	r2, r2, #1
 80026da:	601a      	str	r2, [r3, #0]
 80026dc:	681a      	ldr	r2, [r3, #0]
 80026de:	f442 4200 	orr.w	r2, r2, #32768	@ 0x8000
 80026e2:	601a      	str	r2, [r3, #0]
 80026e4:	681a      	ldr	r2, [r3, #0]
 80026e6:	f422 4200 	bic.w	r2, r2, #32768	@ 0x8000
 80026ea:	601a      	str	r2, [r3, #0]
 80026ec:	f000 fc92 	bl	8003014 <HAL_RCC_GetPCLK1Freq>
 80026f0:	4b3f      	ldr	r3, [pc, #252]	@ (80027f0 <HAL_I2C_Init+0x140>)
 80026f2:	6865      	ldr	r5, [r4, #4]
 80026f4:	429d      	cmp	r5, r3
 80026f6:	bf94      	ite	ls
 80026f8:	4b3e      	ldrls	r3, [pc, #248]	@ (80027f4 <HAL_I2C_Init+0x144>)
 80026fa:	4b3f      	ldrhi	r3, [pc, #252]	@ (80027f8 <HAL_I2C_Init+0x148>)
 80026fc:	4298      	cmp	r0, r3
 80026fe:	bf8c      	ite	hi
 8002700:	2300      	movhi	r3, #0
 8002702:	2301      	movls	r3, #1
 8002704:	2b00      	cmp	r3, #0
 8002706:	d1d6      	bne.n	80026b6 <HAL_I2C_Init+0x6>
 8002708:	4e39      	ldr	r6, [pc, #228]	@ (80027f0 <HAL_I2C_Init+0x140>)
 800270a:	4b3c      	ldr	r3, [pc, #240]	@ (80027fc <HAL_I2C_Init+0x14c>)
 800270c:	42b5      	cmp	r5, r6
 800270e:	fbb0 f3f3 	udiv	r3, r0, r3
 8002712:	bf88      	it	hi
 8002714:	f44f 7696 	movhi.w	r6, #300	@ 0x12c
 8002718:	6822      	ldr	r2, [r4, #0]
 800271a:	6851      	ldr	r1, [r2, #4]
 800271c:	f021 013f 	bic.w	r1, r1, #63	@ 0x3f
 8002720:	ea41 0103 	orr.w	r1, r1, r3
 8002724:	bf82      	ittt	hi
 8002726:	4373      	mulhi	r3, r6
 8002728:	f44f 767a 	movhi.w	r6, #1000	@ 0x3e8
 800272c:	fbb3 f3f6 	udivhi	r3, r3, r6
 8002730:	6051      	str	r1, [r2, #4]
 8002732:	6a11      	ldr	r1, [r2, #32]
 8002734:	3301      	adds	r3, #1
 8002736:	f021 013f 	bic.w	r1, r1, #63	@ 0x3f
 800273a:	430b      	orrs	r3, r1
 800273c:	6213      	str	r3, [r2, #32]
 800273e:	69d1      	ldr	r1, [r2, #28]
 8002740:	1e43      	subs	r3, r0, #1
 8002742:	482b      	ldr	r0, [pc, #172]	@ (80027f0 <HAL_I2C_Init+0x140>)
 8002744:	f421 414f 	bic.w	r1, r1, #52992	@ 0xcf00
 8002748:	4285      	cmp	r5, r0
 800274a:	f021 01ff 	bic.w	r1, r1, #255	@ 0xff
 800274e:	d832      	bhi.n	80027b6 <HAL_I2C_Init+0x106>
 8002750:	006d      	lsls	r5, r5, #1
 8002752:	fbb3 f3f5 	udiv	r3, r3, r5
 8002756:	f640 70fc 	movw	r0, #4092	@ 0xffc
 800275a:	3301      	adds	r3, #1
 800275c:	4203      	tst	r3, r0
 800275e:	d042      	beq.n	80027e6 <HAL_I2C_Init+0x136>
 8002760:	f3c3 030b 	ubfx	r3, r3, #0, #12
 8002764:	4319      	orrs	r1, r3
 8002766:	61d1      	str	r1, [r2, #28]
 8002768:	6811      	ldr	r1, [r2, #0]
 800276a:	e9d4 3007 	ldrd	r3, r0, [r4, #28]
 800276e:	f021 01c0 	bic.w	r1, r1, #192	@ 0xc0
 8002772:	4303      	orrs	r3, r0
 8002774:	430b      	orrs	r3, r1
 8002776:	6013      	str	r3, [r2, #0]
 8002778:	6891      	ldr	r1, [r2, #8]
 800277a:	e9d4 0303 	ldrd	r0, r3, [r4, #12]
 800277e:	f421 4103 	bic.w	r1, r1, #33536	@ 0x8300
 8002782:	4303      	orrs	r3, r0
 8002784:	f021 01ff 	bic.w	r1, r1, #255	@ 0xff
 8002788:	430b      	orrs	r3, r1
 800278a:	6093      	str	r3, [r2, #8]
 800278c:	68d1      	ldr	r1, [r2, #12]
 800278e:	e9d4 3005 	ldrd	r3, r0, [r4, #20]
 8002792:	f021 01ff 	bic.w	r1, r1, #255	@ 0xff
 8002796:	4303      	orrs	r3, r0
 8002798:	430b      	orrs	r3, r1
 800279a:	60d3      	str	r3, [r2, #12]
 800279c:	6813      	ldr	r3, [r2, #0]
 800279e:	2000      	movs	r0, #0
 80027a0:	f043 0301 	orr.w	r3, r3, #1
 80027a4:	6013      	str	r3, [r2, #0]
 80027a6:	2320      	movs	r3, #32
 80027a8:	6420      	str	r0, [r4, #64]	@ 0x40
 80027aa:	f884 303d 	strb.w	r3, [r4, #61]	@ 0x3d
 80027ae:	6320      	str	r0, [r4, #48]	@ 0x30
 80027b0:	f884 003e 	strb.w	r0, [r4, #62]	@ 0x3e
 80027b4:	e780      	b.n	80026b8 <HAL_I2C_Init+0x8>
 80027b6:	68a0      	ldr	r0, [r4, #8]
 80027b8:	b950      	cbnz	r0, 80027d0 <HAL_I2C_Init+0x120>
 80027ba:	eb05 0545 	add.w	r5, r5, r5, lsl #1
 80027be:	fbb3 f3f5 	udiv	r3, r3, r5
 80027c2:	3301      	adds	r3, #1
 80027c4:	f3c3 030b 	ubfx	r3, r3, #0, #12
 80027c8:	b17b      	cbz	r3, 80027ea <HAL_I2C_Init+0x13a>
 80027ca:	f443 4300 	orr.w	r3, r3, #32768	@ 0x8000
 80027ce:	e7c9      	b.n	8002764 <HAL_I2C_Init+0xb4>
 80027d0:	2019      	movs	r0, #25
 80027d2:	4368      	muls	r0, r5
 80027d4:	fbb3 f3f0 	udiv	r3, r3, r0
 80027d8:	3301      	adds	r3, #1
 80027da:	f3c3 030b 	ubfx	r3, r3, #0, #12
 80027de:	b123      	cbz	r3, 80027ea <HAL_I2C_Init+0x13a>
 80027e0:	f443 4340 	orr.w	r3, r3, #49152	@ 0xc000
 80027e4:	e7be      	b.n	8002764 <HAL_I2C_Init+0xb4>
 80027e6:	2304      	movs	r3, #4
 80027e8:	e7bc      	b.n	8002764 <HAL_I2C_Init+0xb4>
 80027ea:	2301      	movs	r3, #1
 80027ec:	e7ba      	b.n	8002764 <HAL_I2C_Init+0xb4>
 80027ee:	bf00      	nop
 80027f0:	000186a0 	.word	0x000186a0
 80027f4:	001e847f 	.word	0x001e847f
 80027f8:	003d08ff 	.word	0x003d08ff
 80027fc:	000f4240 	.word	0x000f4240

08002800 <HAL_I2C_Master_Receive>:
 8002800:	e92d 43f0 	stmdb	sp!, {r4, r5, r6, r7, r8, r9, lr}
 8002804:	4698      	mov	r8, r3
 8002806:	2300      	movs	r3, #0
 8002808:	4604      	mov	r4, r0
 800280a:	b089      	sub	sp, #36	@ 0x24
 800280c:	9302      	str	r3, [sp, #8]
 800280e:	460e      	mov	r6, r1
 8002810:	4691      	mov	r9, r2
 8002812:	9f10      	ldr	r7, [sp, #64]	@ 0x40
 8002814:	f7ff fa46 	bl	8001ca4 <HAL_GetTick>
 8002818:	f894 303d 	ldrb.w	r3, [r4, #61]	@ 0x3d
 800281c:	4605      	mov	r5, r0
 800281e:	2b20      	cmp	r3, #32
 8002820:	d004      	beq.n	800282c <HAL_I2C_Master_Receive+0x2c>
 8002822:	2602      	movs	r6, #2
 8002824:	4630      	mov	r0, r6
 8002826:	b009      	add	sp, #36	@ 0x24
 8002828:	e8bd 83f0 	ldmia.w	sp!, {r4, r5, r6, r7, r8, r9, pc}
 800282c:	9000      	str	r0, [sp, #0]
 800282e:	2319      	movs	r3, #25
 8002830:	2201      	movs	r2, #1
 8002832:	4620      	mov	r0, r4
 8002834:	498f      	ldr	r1, [pc, #572]	@ (8002a74 <HAL_I2C_Master_Receive+0x274>)
 8002836:	f7ff fe86 	bl	8002546 <I2C_WaitOnFlagUntilTimeout>
 800283a:	2800      	cmp	r0, #0
 800283c:	d1f1      	bne.n	8002822 <HAL_I2C_Master_Receive+0x22>
 800283e:	f894 303c 	ldrb.w	r3, [r4, #60]	@ 0x3c
 8002842:	2b01      	cmp	r3, #1
 8002844:	d0ed      	beq.n	8002822 <HAL_I2C_Master_Receive+0x22>
 8002846:	2301      	movs	r3, #1
 8002848:	6821      	ldr	r1, [r4, #0]
 800284a:	f884 303c 	strb.w	r3, [r4, #60]	@ 0x3c
 800284e:	680b      	ldr	r3, [r1, #0]
 8002850:	07db      	lsls	r3, r3, #31
 8002852:	bf5e      	ittt	pl
 8002854:	680b      	ldrpl	r3, [r1, #0]
 8002856:	f043 0301 	orrpl.w	r3, r3, #1
 800285a:	600b      	strpl	r3, [r1, #0]
 800285c:	680b      	ldr	r3, [r1, #0]
 800285e:	f423 6300 	bic.w	r3, r3, #2048	@ 0x800
 8002862:	600b      	str	r3, [r1, #0]
 8002864:	2322      	movs	r3, #34	@ 0x22
 8002866:	f884 303d 	strb.w	r3, [r4, #61]	@ 0x3d
 800286a:	2310      	movs	r3, #16
 800286c:	f884 303e 	strb.w	r3, [r4, #62]	@ 0x3e
 8002870:	2300      	movs	r3, #0
 8002872:	6423      	str	r3, [r4, #64]	@ 0x40
 8002874:	f8a4 802a 	strh.w	r8, [r4, #42]	@ 0x2a
 8002878:	8d63      	ldrh	r3, [r4, #42]	@ 0x2a
 800287a:	f8c4 9024 	str.w	r9, [r4, #36]	@ 0x24
 800287e:	8523      	strh	r3, [r4, #40]	@ 0x28
 8002880:	4b7d      	ldr	r3, [pc, #500]	@ (8002a78 <HAL_I2C_Master_Receive+0x278>)
 8002882:	62e3      	str	r3, [r4, #44]	@ 0x2c
 8002884:	6ae3      	ldr	r3, [r4, #44]	@ 0x2c
 8002886:	680a      	ldr	r2, [r1, #0]
 8002888:	2b08      	cmp	r3, #8
 800288a:	f442 6280 	orr.w	r2, r2, #1024	@ 0x400
 800288e:	600a      	str	r2, [r1, #0]
 8002890:	d004      	beq.n	800289c <HAL_I2C_Master_Receive+0x9c>
 8002892:	2b01      	cmp	r3, #1
 8002894:	d002      	beq.n	800289c <HAL_I2C_Master_Receive+0x9c>
 8002896:	f513 3f80 	cmn.w	r3, #65536	@ 0x10000
 800289a:	d104      	bne.n	80028a6 <HAL_I2C_Master_Receive+0xa6>
 800289c:	680b      	ldr	r3, [r1, #0]
 800289e:	f443 7380 	orr.w	r3, r3, #256	@ 0x100
 80028a2:	600b      	str	r3, [r1, #0]
 80028a4:	e002      	b.n	80028ac <HAL_I2C_Master_Receive+0xac>
 80028a6:	6b23      	ldr	r3, [r4, #48]	@ 0x30
 80028a8:	2b11      	cmp	r3, #17
 80028aa:	d0f7      	beq.n	800289c <HAL_I2C_Master_Receive+0x9c>
 80028ac:	463b      	mov	r3, r7
 80028ae:	2200      	movs	r2, #0
 80028b0:	f04f 1101 	mov.w	r1, #65537	@ 0x10001
 80028b4:	4620      	mov	r0, r4
 80028b6:	9500      	str	r5, [sp, #0]
 80028b8:	f7ff fe45 	bl	8002546 <I2C_WaitOnFlagUntilTimeout>
 80028bc:	6823      	ldr	r3, [r4, #0]
 80028be:	b138      	cbz	r0, 80028d0 <HAL_I2C_Master_Receive+0xd0>
 80028c0:	681b      	ldr	r3, [r3, #0]
 80028c2:	05d8      	lsls	r0, r3, #23
 80028c4:	bf44      	itt	mi
 80028c6:	f44f 7300 	movmi.w	r3, #512	@ 0x200
 80028ca:	6423      	strmi	r3, [r4, #64]	@ 0x40
 80028cc:	2601      	movs	r6, #1
 80028ce:	e7a9      	b.n	8002824 <HAL_I2C_Master_Receive+0x24>
 80028d0:	6922      	ldr	r2, [r4, #16]
 80028d2:	f5b2 4f80 	cmp.w	r2, #16384	@ 0x4000
 80028d6:	d129      	bne.n	800292c <HAL_I2C_Master_Receive+0x12c>
 80028d8:	f046 0601 	orr.w	r6, r6, #1
 80028dc:	b2f6      	uxtb	r6, r6
 80028de:	611e      	str	r6, [r3, #16]
 80028e0:	462b      	mov	r3, r5
 80028e2:	463a      	mov	r2, r7
 80028e4:	4620      	mov	r0, r4
 80028e6:	4965      	ldr	r1, [pc, #404]	@ (8002a7c <HAL_I2C_Master_Receive+0x27c>)
 80028e8:	f7ff fe6d 	bl	80025c6 <I2C_WaitOnMasterAddressFlagUntilTimeout>
 80028ec:	4606      	mov	r6, r0
 80028ee:	2800      	cmp	r0, #0
 80028f0:	d1ec      	bne.n	80028cc <HAL_I2C_Master_Receive+0xcc>
 80028f2:	8d22      	ldrh	r2, [r4, #40]	@ 0x28
 80028f4:	6823      	ldr	r3, [r4, #0]
 80028f6:	2a00      	cmp	r2, #0
 80028f8:	d14d      	bne.n	8002996 <HAL_I2C_Master_Receive+0x196>
 80028fa:	9003      	str	r0, [sp, #12]
 80028fc:	695a      	ldr	r2, [r3, #20]
 80028fe:	9203      	str	r2, [sp, #12]
 8002900:	699a      	ldr	r2, [r3, #24]
 8002902:	9203      	str	r2, [sp, #12]
 8002904:	9a03      	ldr	r2, [sp, #12]
 8002906:	681a      	ldr	r2, [r3, #0]
 8002908:	f442 7200 	orr.w	r2, r2, #512	@ 0x200
 800290c:	601a      	str	r2, [r3, #0]
 800290e:	f8df 8170 	ldr.w	r8, [pc, #368]	@ 8002a80 <HAL_I2C_Master_Receive+0x280>
 8002912:	f8df 9170 	ldr.w	r9, [pc, #368]	@ 8002a84 <HAL_I2C_Master_Receive+0x284>
 8002916:	8d23      	ldrh	r3, [r4, #40]	@ 0x28
 8002918:	2b00      	cmp	r3, #0
 800291a:	d16c      	bne.n	80029f6 <HAL_I2C_Master_Receive+0x1f6>
 800291c:	2220      	movs	r2, #32
 800291e:	f884 303c 	strb.w	r3, [r4, #60]	@ 0x3c
 8002922:	f884 203d 	strb.w	r2, [r4, #61]	@ 0x3d
 8002926:	f884 303e 	strb.w	r3, [r4, #62]	@ 0x3e
 800292a:	e77b      	b.n	8002824 <HAL_I2C_Master_Receive+0x24>
 800292c:	ea4f 18e6 	mov.w	r8, r6, asr #7
 8002930:	f008 0806 	and.w	r8, r8, #6
 8002934:	f048 02f0 	orr.w	r2, r8, #240	@ 0xf0
 8002938:	611a      	str	r2, [r3, #16]
 800293a:	4620      	mov	r0, r4
 800293c:	462b      	mov	r3, r5
 800293e:	463a      	mov	r2, r7
 8002940:	4951      	ldr	r1, [pc, #324]	@ (8002a88 <HAL_I2C_Master_Receive+0x288>)
 8002942:	f7ff fe40 	bl	80025c6 <I2C_WaitOnMasterAddressFlagUntilTimeout>
 8002946:	2800      	cmp	r0, #0
 8002948:	d1c0      	bne.n	80028cc <HAL_I2C_Master_Receive+0xcc>
 800294a:	6823      	ldr	r3, [r4, #0]
 800294c:	b2f6      	uxtb	r6, r6
 800294e:	463a      	mov	r2, r7
 8002950:	611e      	str	r6, [r3, #16]
 8002952:	4620      	mov	r0, r4
 8002954:	462b      	mov	r3, r5
 8002956:	4949      	ldr	r1, [pc, #292]	@ (8002a7c <HAL_I2C_Master_Receive+0x27c>)
 8002958:	f7ff fe35 	bl	80025c6 <I2C_WaitOnMasterAddressFlagUntilTimeout>
 800295c:	4602      	mov	r2, r0
 800295e:	2800      	cmp	r0, #0
 8002960:	d1b4      	bne.n	80028cc <HAL_I2C_Master_Receive+0xcc>
 8002962:	6823      	ldr	r3, [r4, #0]
 8002964:	9007      	str	r0, [sp, #28]
 8002966:	6959      	ldr	r1, [r3, #20]
 8002968:	4620      	mov	r0, r4
 800296a:	9107      	str	r1, [sp, #28]
 800296c:	6999      	ldr	r1, [r3, #24]
 800296e:	9107      	str	r1, [sp, #28]
 8002970:	9907      	ldr	r1, [sp, #28]
 8002972:	6819      	ldr	r1, [r3, #0]
 8002974:	f441 7180 	orr.w	r1, r1, #256	@ 0x100
 8002978:	6019      	str	r1, [r3, #0]
 800297a:	463b      	mov	r3, r7
 800297c:	f04f 1101 	mov.w	r1, #65537	@ 0x10001
 8002980:	9500      	str	r5, [sp, #0]
 8002982:	f7ff fde0 	bl	8002546 <I2C_WaitOnFlagUntilTimeout>
 8002986:	6822      	ldr	r2, [r4, #0]
 8002988:	b108      	cbz	r0, 800298e <HAL_I2C_Master_Receive+0x18e>
 800298a:	6813      	ldr	r3, [r2, #0]
 800298c:	e799      	b.n	80028c2 <HAL_I2C_Master_Receive+0xc2>
 800298e:	f048 03f1 	orr.w	r3, r8, #241	@ 0xf1
 8002992:	6113      	str	r3, [r2, #16]
 8002994:	e7a4      	b.n	80028e0 <HAL_I2C_Master_Receive+0xe0>
 8002996:	2a01      	cmp	r2, #1
 8002998:	d111      	bne.n	80029be <HAL_I2C_Master_Receive+0x1be>
 800299a:	681a      	ldr	r2, [r3, #0]
 800299c:	f422 6280 	bic.w	r2, r2, #1024	@ 0x400
 80029a0:	601a      	str	r2, [r3, #0]
 80029a2:	b672      	cpsid	i
 80029a4:	6823      	ldr	r3, [r4, #0]
 80029a6:	9004      	str	r0, [sp, #16]
 80029a8:	695a      	ldr	r2, [r3, #20]
 80029aa:	9204      	str	r2, [sp, #16]
 80029ac:	699a      	ldr	r2, [r3, #24]
 80029ae:	9204      	str	r2, [sp, #16]
 80029b0:	9a04      	ldr	r2, [sp, #16]
 80029b2:	681a      	ldr	r2, [r3, #0]
 80029b4:	f442 7200 	orr.w	r2, r2, #512	@ 0x200
 80029b8:	601a      	str	r2, [r3, #0]
 80029ba:	b662      	cpsie	i
 80029bc:	e7a7      	b.n	800290e <HAL_I2C_Master_Receive+0x10e>
 80029be:	2a02      	cmp	r2, #2
 80029c0:	681a      	ldr	r2, [r3, #0]
 80029c2:	d10e      	bne.n	80029e2 <HAL_I2C_Master_Receive+0x1e2>
 80029c4:	f442 6200 	orr.w	r2, r2, #2048	@ 0x800
 80029c8:	601a      	str	r2, [r3, #0]
 80029ca:	b672      	cpsid	i
 80029cc:	6823      	ldr	r3, [r4, #0]
 80029ce:	9005      	str	r0, [sp, #20]
 80029d0:	695a      	ldr	r2, [r3, #20]
 80029d2:	9205      	str	r2, [sp, #20]
 80029d4:	699a      	ldr	r2, [r3, #24]
 80029d6:	9205      	str	r2, [sp, #20]
 80029d8:	9a05      	ldr	r2, [sp, #20]
 80029da:	681a      	ldr	r2, [r3, #0]
 80029dc:	f422 6280 	bic.w	r2, r2, #1024	@ 0x400
 80029e0:	e7ea      	b.n	80029b8 <HAL_I2C_Master_Receive+0x1b8>
 80029e2:	f442 6280 	orr.w	r2, r2, #1024	@ 0x400
 80029e6:	601a      	str	r2, [r3, #0]
 80029e8:	9006      	str	r0, [sp, #24]
 80029ea:	695a      	ldr	r2, [r3, #20]
 80029ec:	9206      	str	r2, [sp, #24]
 80029ee:	699b      	ldr	r3, [r3, #24]
 80029f0:	9306      	str	r3, [sp, #24]
 80029f2:	9b06      	ldr	r3, [sp, #24]
 80029f4:	e78b      	b.n	800290e <HAL_I2C_Master_Receive+0x10e>
 80029f6:	2b03      	cmp	r3, #3
 80029f8:	f200 8088 	bhi.w	8002b0c <HAL_I2C_Master_Receive+0x30c>
 80029fc:	2b01      	cmp	r3, #1
 80029fe:	d116      	bne.n	8002a2e <HAL_I2C_Master_Receive+0x22e>
 8002a00:	462a      	mov	r2, r5
 8002a02:	4639      	mov	r1, r7
 8002a04:	4620      	mov	r0, r4
 8002a06:	f7ff fe20 	bl	800264a <I2C_WaitOnRXNEFlagUntilTimeout>
 8002a0a:	2800      	cmp	r0, #0
 8002a0c:	f47f af5e 	bne.w	80028cc <HAL_I2C_Master_Receive+0xcc>
 8002a10:	6823      	ldr	r3, [r4, #0]
 8002a12:	691a      	ldr	r2, [r3, #16]
 8002a14:	6a63      	ldr	r3, [r4, #36]	@ 0x24
 8002a16:	701a      	strb	r2, [r3, #0]
 8002a18:	6a63      	ldr	r3, [r4, #36]	@ 0x24
 8002a1a:	3301      	adds	r3, #1
 8002a1c:	6263      	str	r3, [r4, #36]	@ 0x24
 8002a1e:	8d23      	ldrh	r3, [r4, #40]	@ 0x28
 8002a20:	3b01      	subs	r3, #1
 8002a22:	8523      	strh	r3, [r4, #40]	@ 0x28
 8002a24:	8d63      	ldrh	r3, [r4, #42]	@ 0x2a
 8002a26:	3b01      	subs	r3, #1
 8002a28:	b29b      	uxth	r3, r3
 8002a2a:	8563      	strh	r3, [r4, #42]	@ 0x2a
 8002a2c:	e773      	b.n	8002916 <HAL_I2C_Master_Receive+0x116>
 8002a2e:	2b02      	cmp	r3, #2
 8002a30:	f04f 0200 	mov.w	r2, #0
 8002a34:	463b      	mov	r3, r7
 8002a36:	4641      	mov	r1, r8
 8002a38:	4620      	mov	r0, r4
 8002a3a:	9500      	str	r5, [sp, #0]
 8002a3c:	d126      	bne.n	8002a8c <HAL_I2C_Master_Receive+0x28c>
 8002a3e:	f7ff fd82 	bl	8002546 <I2C_WaitOnFlagUntilTimeout>
 8002a42:	2800      	cmp	r0, #0
 8002a44:	f47f af42 	bne.w	80028cc <HAL_I2C_Master_Receive+0xcc>
 8002a48:	b672      	cpsid	i
 8002a4a:	6823      	ldr	r3, [r4, #0]
 8002a4c:	681a      	ldr	r2, [r3, #0]
 8002a4e:	f442 7200 	orr.w	r2, r2, #512	@ 0x200
 8002a52:	601a      	str	r2, [r3, #0]
 8002a54:	691a      	ldr	r2, [r3, #16]
 8002a56:	6a63      	ldr	r3, [r4, #36]	@ 0x24
 8002a58:	701a      	strb	r2, [r3, #0]
 8002a5a:	6a63      	ldr	r3, [r4, #36]	@ 0x24
 8002a5c:	3301      	adds	r3, #1
 8002a5e:	6263      	str	r3, [r4, #36]	@ 0x24
 8002a60:	8d23      	ldrh	r3, [r4, #40]	@ 0x28
 8002a62:	3b01      	subs	r3, #1
 8002a64:	8523      	strh	r3, [r4, #40]	@ 0x28
 8002a66:	8d63      	ldrh	r3, [r4, #42]	@ 0x2a
 8002a68:	3b01      	subs	r3, #1
 8002a6a:	b29b      	uxth	r3, r3
 8002a6c:	8563      	strh	r3, [r4, #42]	@ 0x2a
 8002a6e:	b662      	cpsie	i
 8002a70:	e7ce      	b.n	8002a10 <HAL_I2C_Master_Receive+0x210>
 8002a72:	bf00      	nop
 8002a74:	00100002 	.word	0x00100002
 8002a78:	ffff0000 	.word	0xffff0000
 8002a7c:	00010002 	.word	0x00010002
 8002a80:	00010004 	.word	0x00010004
 8002a84:	20000004 	.word	0x20000004
 8002a88:	00010008 	.word	0x00010008
 8002a8c:	f7ff fd5b 	bl	8002546 <I2C_WaitOnFlagUntilTimeout>
 8002a90:	2800      	cmp	r0, #0
 8002a92:	f47f af1b 	bne.w	80028cc <HAL_I2C_Master_Receive+0xcc>
 8002a96:	6822      	ldr	r2, [r4, #0]
 8002a98:	6813      	ldr	r3, [r2, #0]
 8002a9a:	f423 6380 	bic.w	r3, r3, #1024	@ 0x400
 8002a9e:	6013      	str	r3, [r2, #0]
 8002aa0:	b672      	cpsid	i
 8002aa2:	f246 11a8 	movw	r1, #25000	@ 0x61a8
 8002aa6:	6823      	ldr	r3, [r4, #0]
 8002aa8:	691a      	ldr	r2, [r3, #16]
 8002aaa:	6a63      	ldr	r3, [r4, #36]	@ 0x24
 8002aac:	701a      	strb	r2, [r3, #0]
 8002aae:	6a62      	ldr	r2, [r4, #36]	@ 0x24
 8002ab0:	1c53      	adds	r3, r2, #1
 8002ab2:	6263      	str	r3, [r4, #36]	@ 0x24
 8002ab4:	8d23      	ldrh	r3, [r4, #40]	@ 0x28
 8002ab6:	3b01      	subs	r3, #1
 8002ab8:	8523      	strh	r3, [r4, #40]	@ 0x28
 8002aba:	8d63      	ldrh	r3, [r4, #42]	@ 0x2a
 8002abc:	3b01      	subs	r3, #1
 8002abe:	b29b      	uxth	r3, r3
 8002ac0:	8563      	strh	r3, [r4, #42]	@ 0x2a
 8002ac2:	f8d9 3000 	ldr.w	r3, [r9]
 8002ac6:	fbb3 f3f1 	udiv	r3, r3, r1
 8002aca:	2123      	movs	r1, #35	@ 0x23
 8002acc:	434b      	muls	r3, r1
 8002ace:	9302      	str	r3, [sp, #8]
 8002ad0:	9b02      	ldr	r3, [sp, #8]
 8002ad2:	3b01      	subs	r3, #1
 8002ad4:	9302      	str	r3, [sp, #8]
 8002ad6:	9b02      	ldr	r3, [sp, #8]
 8002ad8:	b96b      	cbnz	r3, 8002af6 <HAL_I2C_Master_Receive+0x2f6>
 8002ada:	2220      	movs	r2, #32
 8002adc:	6323      	str	r3, [r4, #48]	@ 0x30
 8002ade:	f884 203d 	strb.w	r2, [r4, #61]	@ 0x3d
 8002ae2:	f884 303e 	strb.w	r3, [r4, #62]	@ 0x3e
 8002ae6:	6c22      	ldr	r2, [r4, #64]	@ 0x40
 8002ae8:	f042 0220 	orr.w	r2, r2, #32
 8002aec:	6422      	str	r2, [r4, #64]	@ 0x40
 8002aee:	b662      	cpsie	i
 8002af0:	f884 303c 	strb.w	r3, [r4, #60]	@ 0x3c
 8002af4:	e6ea      	b.n	80028cc <HAL_I2C_Master_Receive+0xcc>
 8002af6:	6823      	ldr	r3, [r4, #0]
 8002af8:	6959      	ldr	r1, [r3, #20]
 8002afa:	0749      	lsls	r1, r1, #29
 8002afc:	d5e8      	bpl.n	8002ad0 <HAL_I2C_Master_Receive+0x2d0>
 8002afe:	6819      	ldr	r1, [r3, #0]
 8002b00:	f441 7100 	orr.w	r1, r1, #512	@ 0x200
 8002b04:	6019      	str	r1, [r3, #0]
 8002b06:	691b      	ldr	r3, [r3, #16]
 8002b08:	7053      	strb	r3, [r2, #1]
 8002b0a:	e7a6      	b.n	8002a5a <HAL_I2C_Master_Receive+0x25a>
 8002b0c:	462a      	mov	r2, r5
 8002b0e:	4639      	mov	r1, r7
 8002b10:	4620      	mov	r0, r4
 8002b12:	f7ff fd9a 	bl	800264a <I2C_WaitOnRXNEFlagUntilTimeout>
 8002b16:	2800      	cmp	r0, #0
 8002b18:	f47f aed8 	bne.w	80028cc <HAL_I2C_Master_Receive+0xcc>
 8002b1c:	6823      	ldr	r3, [r4, #0]
 8002b1e:	691a      	ldr	r2, [r3, #16]
 8002b20:	6a63      	ldr	r3, [r4, #36]	@ 0x24
 8002b22:	701a      	strb	r2, [r3, #0]
 8002b24:	8d62      	ldrh	r2, [r4, #42]	@ 0x2a
 8002b26:	6a61      	ldr	r1, [r4, #36]	@ 0x24
 8002b28:	3a01      	subs	r2, #1
 8002b2a:	b292      	uxth	r2, r2
 8002b2c:	1c4b      	adds	r3, r1, #1
 8002b2e:	8562      	strh	r2, [r4, #42]	@ 0x2a
 8002b30:	6822      	ldr	r2, [r4, #0]
 8002b32:	6263      	str	r3, [r4, #36]	@ 0x24
 8002b34:	8d23      	ldrh	r3, [r4, #40]	@ 0x28
 8002b36:	6950      	ldr	r0, [r2, #20]
 8002b38:	3b01      	subs	r3, #1
 8002b3a:	b29b      	uxth	r3, r3
 8002b3c:	0740      	lsls	r0, r0, #29
 8002b3e:	8523      	strh	r3, [r4, #40]	@ 0x28
 8002b40:	f57f aee9 	bpl.w	8002916 <HAL_I2C_Master_Receive+0x116>
 8002b44:	2b03      	cmp	r3, #3
 8002b46:	bf02      	ittt	eq
 8002b48:	6813      	ldreq	r3, [r2, #0]
 8002b4a:	f423 6380 	biceq.w	r3, r3, #1024	@ 0x400
 8002b4e:	6013      	streq	r3, [r2, #0]
 8002b50:	6913      	ldr	r3, [r2, #16]
 8002b52:	704b      	strb	r3, [r1, #1]
 8002b54:	e760      	b.n	8002a18 <HAL_I2C_Master_Receive+0x218>
 8002b56:	bf00      	nop

08002b58 <HAL_RCC_OscConfig>:
 8002b58:	e92d 41f3 	stmdb	sp!, {r0, r1, r4, r5, r6, r7, r8, lr}
 8002b5c:	4605      	mov	r5, r0
 8002b5e:	b338      	cbz	r0, 8002bb0 <HAL_RCC_OscConfig+0x58>
 8002b60:	6803      	ldr	r3, [r0, #0]
 8002b62:	07db      	lsls	r3, r3, #31
 8002b64:	d410      	bmi.n	8002b88 <HAL_RCC_OscConfig+0x30>
 8002b66:	682b      	ldr	r3, [r5, #0]
 8002b68:	079f      	lsls	r7, r3, #30
 8002b6a:	d45e      	bmi.n	8002c2a <HAL_RCC_OscConfig+0xd2>
 8002b6c:	682b      	ldr	r3, [r5, #0]
 8002b6e:	0719      	lsls	r1, r3, #28
 8002b70:	f100 8095 	bmi.w	8002c9e <HAL_RCC_OscConfig+0x146>
 8002b74:	682b      	ldr	r3, [r5, #0]
 8002b76:	075a      	lsls	r2, r3, #29
 8002b78:	f100 80c1 	bmi.w	8002cfe <HAL_RCC_OscConfig+0x1a6>
 8002b7c:	69eb      	ldr	r3, [r5, #28]
 8002b7e:	2b00      	cmp	r3, #0
 8002b80:	f040 812c 	bne.w	8002ddc <HAL_RCC_OscConfig+0x284>
 8002b84:	2000      	movs	r0, #0
 8002b86:	e029      	b.n	8002bdc <HAL_RCC_OscConfig+0x84>
 8002b88:	4c90      	ldr	r4, [pc, #576]	@ (8002dcc <HAL_RCC_OscConfig+0x274>)
 8002b8a:	6863      	ldr	r3, [r4, #4]
 8002b8c:	f003 030c 	and.w	r3, r3, #12
 8002b90:	2b04      	cmp	r3, #4
 8002b92:	d007      	beq.n	8002ba4 <HAL_RCC_OscConfig+0x4c>
 8002b94:	6863      	ldr	r3, [r4, #4]
 8002b96:	f003 030c 	and.w	r3, r3, #12
 8002b9a:	2b08      	cmp	r3, #8
 8002b9c:	d10a      	bne.n	8002bb4 <HAL_RCC_OscConfig+0x5c>
 8002b9e:	6863      	ldr	r3, [r4, #4]
 8002ba0:	03de      	lsls	r6, r3, #15
 8002ba2:	d507      	bpl.n	8002bb4 <HAL_RCC_OscConfig+0x5c>
 8002ba4:	6823      	ldr	r3, [r4, #0]
 8002ba6:	039c      	lsls	r4, r3, #14
 8002ba8:	d5dd      	bpl.n	8002b66 <HAL_RCC_OscConfig+0xe>
 8002baa:	686b      	ldr	r3, [r5, #4]
 8002bac:	2b00      	cmp	r3, #0
 8002bae:	d1da      	bne.n	8002b66 <HAL_RCC_OscConfig+0xe>
 8002bb0:	2001      	movs	r0, #1
 8002bb2:	e013      	b.n	8002bdc <HAL_RCC_OscConfig+0x84>
 8002bb4:	686b      	ldr	r3, [r5, #4]
 8002bb6:	f5b3 3f80 	cmp.w	r3, #65536	@ 0x10000
 8002bba:	d112      	bne.n	8002be2 <HAL_RCC_OscConfig+0x8a>
 8002bbc:	6823      	ldr	r3, [r4, #0]
 8002bbe:	f443 3380 	orr.w	r3, r3, #65536	@ 0x10000
 8002bc2:	6023      	str	r3, [r4, #0]
 8002bc4:	f7ff f86e 	bl	8001ca4 <HAL_GetTick>
 8002bc8:	4606      	mov	r6, r0
 8002bca:	6823      	ldr	r3, [r4, #0]
 8002bcc:	0398      	lsls	r0, r3, #14
 8002bce:	d4ca      	bmi.n	8002b66 <HAL_RCC_OscConfig+0xe>
 8002bd0:	f7ff f868 	bl	8001ca4 <HAL_GetTick>
 8002bd4:	1b80      	subs	r0, r0, r6
 8002bd6:	2864      	cmp	r0, #100	@ 0x64
 8002bd8:	d9f7      	bls.n	8002bca <HAL_RCC_OscConfig+0x72>
 8002bda:	2003      	movs	r0, #3
 8002bdc:	b002      	add	sp, #8
 8002bde:	e8bd 81f0 	ldmia.w	sp!, {r4, r5, r6, r7, r8, pc}
 8002be2:	b99b      	cbnz	r3, 8002c0c <HAL_RCC_OscConfig+0xb4>
 8002be4:	6823      	ldr	r3, [r4, #0]
 8002be6:	f423 3380 	bic.w	r3, r3, #65536	@ 0x10000
 8002bea:	6023      	str	r3, [r4, #0]
 8002bec:	6823      	ldr	r3, [r4, #0]
 8002bee:	f423 2380 	bic.w	r3, r3, #262144	@ 0x40000
 8002bf2:	6023      	str	r3, [r4, #0]
 8002bf4:	f7ff f856 	bl	8001ca4 <HAL_GetTick>
 8002bf8:	4606      	mov	r6, r0
 8002bfa:	6823      	ldr	r3, [r4, #0]
 8002bfc:	0399      	lsls	r1, r3, #14
 8002bfe:	d5b2      	bpl.n	8002b66 <HAL_RCC_OscConfig+0xe>
 8002c00:	f7ff f850 	bl	8001ca4 <HAL_GetTick>
 8002c04:	1b80      	subs	r0, r0, r6
 8002c06:	2864      	cmp	r0, #100	@ 0x64
 8002c08:	d9f7      	bls.n	8002bfa <HAL_RCC_OscConfig+0xa2>
 8002c0a:	e7e6      	b.n	8002bda <HAL_RCC_OscConfig+0x82>
 8002c0c:	f5b3 2fa0 	cmp.w	r3, #327680	@ 0x50000
 8002c10:	6823      	ldr	r3, [r4, #0]
 8002c12:	d103      	bne.n	8002c1c <HAL_RCC_OscConfig+0xc4>
 8002c14:	f443 2380 	orr.w	r3, r3, #262144	@ 0x40000
 8002c18:	6023      	str	r3, [r4, #0]
 8002c1a:	e7cf      	b.n	8002bbc <HAL_RCC_OscConfig+0x64>
 8002c1c:	f423 3380 	bic.w	r3, r3, #65536	@ 0x10000
 8002c20:	6023      	str	r3, [r4, #0]
 8002c22:	6823      	ldr	r3, [r4, #0]
 8002c24:	f423 2380 	bic.w	r3, r3, #262144	@ 0x40000
 8002c28:	e7cb      	b.n	8002bc2 <HAL_RCC_OscConfig+0x6a>
 8002c2a:	4c68      	ldr	r4, [pc, #416]	@ (8002dcc <HAL_RCC_OscConfig+0x274>)
 8002c2c:	6863      	ldr	r3, [r4, #4]
 8002c2e:	f013 0f0c 	tst.w	r3, #12
 8002c32:	d007      	beq.n	8002c44 <HAL_RCC_OscConfig+0xec>
 8002c34:	6863      	ldr	r3, [r4, #4]
 8002c36:	f003 030c 	and.w	r3, r3, #12
 8002c3a:	2b08      	cmp	r3, #8
 8002c3c:	d110      	bne.n	8002c60 <HAL_RCC_OscConfig+0x108>
 8002c3e:	6863      	ldr	r3, [r4, #4]
 8002c40:	03da      	lsls	r2, r3, #15
 8002c42:	d40d      	bmi.n	8002c60 <HAL_RCC_OscConfig+0x108>
 8002c44:	6823      	ldr	r3, [r4, #0]
 8002c46:	079b      	lsls	r3, r3, #30
 8002c48:	d502      	bpl.n	8002c50 <HAL_RCC_OscConfig+0xf8>
 8002c4a:	692b      	ldr	r3, [r5, #16]
 8002c4c:	2b01      	cmp	r3, #1
 8002c4e:	d1af      	bne.n	8002bb0 <HAL_RCC_OscConfig+0x58>
 8002c50:	6823      	ldr	r3, [r4, #0]
 8002c52:	696a      	ldr	r2, [r5, #20]
 8002c54:	f023 03f8 	bic.w	r3, r3, #248	@ 0xf8
 8002c58:	ea43 03c2 	orr.w	r3, r3, r2, lsl #3
 8002c5c:	6023      	str	r3, [r4, #0]
 8002c5e:	e785      	b.n	8002b6c <HAL_RCC_OscConfig+0x14>
 8002c60:	692a      	ldr	r2, [r5, #16]
 8002c62:	4b5b      	ldr	r3, [pc, #364]	@ (8002dd0 <HAL_RCC_OscConfig+0x278>)
 8002c64:	b16a      	cbz	r2, 8002c82 <HAL_RCC_OscConfig+0x12a>
 8002c66:	2201      	movs	r2, #1
 8002c68:	601a      	str	r2, [r3, #0]
 8002c6a:	f7ff f81b 	bl	8001ca4 <HAL_GetTick>
 8002c6e:	4606      	mov	r6, r0
 8002c70:	6823      	ldr	r3, [r4, #0]
 8002c72:	079f      	lsls	r7, r3, #30
 8002c74:	d4ec      	bmi.n	8002c50 <HAL_RCC_OscConfig+0xf8>
 8002c76:	f7ff f815 	bl	8001ca4 <HAL_GetTick>
 8002c7a:	1b80      	subs	r0, r0, r6
 8002c7c:	2802      	cmp	r0, #2
 8002c7e:	d9f7      	bls.n	8002c70 <HAL_RCC_OscConfig+0x118>
 8002c80:	e7ab      	b.n	8002bda <HAL_RCC_OscConfig+0x82>
 8002c82:	601a      	str	r2, [r3, #0]
 8002c84:	f7ff f80e 	bl	8001ca4 <HAL_GetTick>
 8002c88:	4606      	mov	r6, r0
 8002c8a:	6823      	ldr	r3, [r4, #0]
 8002c8c:	0798      	lsls	r0, r3, #30
 8002c8e:	f57f af6d 	bpl.w	8002b6c <HAL_RCC_OscConfig+0x14>
 8002c92:	f7ff f807 	bl	8001ca4 <HAL_GetTick>
 8002c96:	1b80      	subs	r0, r0, r6
 8002c98:	2802      	cmp	r0, #2
 8002c9a:	d9f6      	bls.n	8002c8a <HAL_RCC_OscConfig+0x132>
 8002c9c:	e79d      	b.n	8002bda <HAL_RCC_OscConfig+0x82>
 8002c9e:	69aa      	ldr	r2, [r5, #24]
 8002ca0:	4e4a      	ldr	r6, [pc, #296]	@ (8002dcc <HAL_RCC_OscConfig+0x274>)
 8002ca2:	4b4b      	ldr	r3, [pc, #300]	@ (8002dd0 <HAL_RCC_OscConfig+0x278>)
 8002ca4:	b1e2      	cbz	r2, 8002ce0 <HAL_RCC_OscConfig+0x188>
 8002ca6:	2201      	movs	r2, #1
 8002ca8:	f8c3 2480 	str.w	r2, [r3, #1152]	@ 0x480
 8002cac:	f7fe fffa 	bl	8001ca4 <HAL_GetTick>
 8002cb0:	4604      	mov	r4, r0
 8002cb2:	6a73      	ldr	r3, [r6, #36]	@ 0x24
 8002cb4:	079b      	lsls	r3, r3, #30
 8002cb6:	d50d      	bpl.n	8002cd4 <HAL_RCC_OscConfig+0x17c>
 8002cb8:	f44f 52fa 	mov.w	r2, #8000	@ 0x1f40
 8002cbc:	4b45      	ldr	r3, [pc, #276]	@ (8002dd4 <HAL_RCC_OscConfig+0x27c>)
 8002cbe:	681b      	ldr	r3, [r3, #0]
 8002cc0:	fbb3 f3f2 	udiv	r3, r3, r2
 8002cc4:	9301      	str	r3, [sp, #4]
 8002cc6:	bf00      	nop
 8002cc8:	9b01      	ldr	r3, [sp, #4]
 8002cca:	1e5a      	subs	r2, r3, #1
 8002ccc:	9201      	str	r2, [sp, #4]
 8002cce:	2b00      	cmp	r3, #0
 8002cd0:	d1f9      	bne.n	8002cc6 <HAL_RCC_OscConfig+0x16e>
 8002cd2:	e74f      	b.n	8002b74 <HAL_RCC_OscConfig+0x1c>
 8002cd4:	f7fe ffe6 	bl	8001ca4 <HAL_GetTick>
 8002cd8:	1b00      	subs	r0, r0, r4
 8002cda:	2802      	cmp	r0, #2
 8002cdc:	d9e9      	bls.n	8002cb2 <HAL_RCC_OscConfig+0x15a>
 8002cde:	e77c      	b.n	8002bda <HAL_RCC_OscConfig+0x82>
 8002ce0:	f8c3 2480 	str.w	r2, [r3, #1152]	@ 0x480
 8002ce4:	f7fe ffde 	bl	8001ca4 <HAL_GetTick>
 8002ce8:	4604      	mov	r4, r0
 8002cea:	6a73      	ldr	r3, [r6, #36]	@ 0x24
 8002cec:	079f      	lsls	r7, r3, #30
 8002cee:	f57f af41 	bpl.w	8002b74 <HAL_RCC_OscConfig+0x1c>
 8002cf2:	f7fe ffd7 	bl	8001ca4 <HAL_GetTick>
 8002cf6:	1b00      	subs	r0, r0, r4
 8002cf8:	2802      	cmp	r0, #2
 8002cfa:	d9f6      	bls.n	8002cea <HAL_RCC_OscConfig+0x192>
 8002cfc:	e76d      	b.n	8002bda <HAL_RCC_OscConfig+0x82>
 8002cfe:	4c33      	ldr	r4, [pc, #204]	@ (8002dcc <HAL_RCC_OscConfig+0x274>)
 8002d00:	69e3      	ldr	r3, [r4, #28]
 8002d02:	00d8      	lsls	r0, r3, #3
 8002d04:	d424      	bmi.n	8002d50 <HAL_RCC_OscConfig+0x1f8>
 8002d06:	2701      	movs	r7, #1
 8002d08:	69e3      	ldr	r3, [r4, #28]
 8002d0a:	f043 5380 	orr.w	r3, r3, #268435456	@ 0x10000000
 8002d0e:	61e3      	str	r3, [r4, #28]
 8002d10:	69e3      	ldr	r3, [r4, #28]
 8002d12:	f003 5380 	and.w	r3, r3, #268435456	@ 0x10000000
 8002d16:	9300      	str	r3, [sp, #0]
 8002d18:	9b00      	ldr	r3, [sp, #0]
 8002d1a:	4e2f      	ldr	r6, [pc, #188]	@ (8002dd8 <HAL_RCC_OscConfig+0x280>)
 8002d1c:	6833      	ldr	r3, [r6, #0]
 8002d1e:	05d9      	lsls	r1, r3, #23
 8002d20:	d518      	bpl.n	8002d54 <HAL_RCC_OscConfig+0x1fc>
 8002d22:	68eb      	ldr	r3, [r5, #12]
 8002d24:	2b01      	cmp	r3, #1
 8002d26:	d126      	bne.n	8002d76 <HAL_RCC_OscConfig+0x21e>
 8002d28:	6a23      	ldr	r3, [r4, #32]
 8002d2a:	f043 0301 	orr.w	r3, r3, #1
 8002d2e:	6223      	str	r3, [r4, #32]
 8002d30:	f7fe ffb8 	bl	8001ca4 <HAL_GetTick>
 8002d34:	f241 3888 	movw	r8, #5000	@ 0x1388
 8002d38:	4606      	mov	r6, r0
 8002d3a:	6a23      	ldr	r3, [r4, #32]
 8002d3c:	079b      	lsls	r3, r3, #30
 8002d3e:	d53f      	bpl.n	8002dc0 <HAL_RCC_OscConfig+0x268>
 8002d40:	2f00      	cmp	r7, #0
 8002d42:	f43f af1b 	beq.w	8002b7c <HAL_RCC_OscConfig+0x24>
 8002d46:	69e3      	ldr	r3, [r4, #28]
 8002d48:	f023 5380 	bic.w	r3, r3, #268435456	@ 0x10000000
 8002d4c:	61e3      	str	r3, [r4, #28]
 8002d4e:	e715      	b.n	8002b7c <HAL_RCC_OscConfig+0x24>
 8002d50:	2700      	movs	r7, #0
 8002d52:	e7e2      	b.n	8002d1a <HAL_RCC_OscConfig+0x1c2>
 8002d54:	6833      	ldr	r3, [r6, #0]
 8002d56:	f443 7380 	orr.w	r3, r3, #256	@ 0x100
 8002d5a:	6033      	str	r3, [r6, #0]
 8002d5c:	f7fe ffa2 	bl	8001ca4 <HAL_GetTick>
 8002d60:	4680      	mov	r8, r0
 8002d62:	6833      	ldr	r3, [r6, #0]
 8002d64:	05da      	lsls	r2, r3, #23
 8002d66:	d4dc      	bmi.n	8002d22 <HAL_RCC_OscConfig+0x1ca>
 8002d68:	f7fe ff9c 	bl	8001ca4 <HAL_GetTick>
 8002d6c:	eba0 0008 	sub.w	r0, r0, r8
 8002d70:	2864      	cmp	r0, #100	@ 0x64
 8002d72:	d9f6      	bls.n	8002d62 <HAL_RCC_OscConfig+0x20a>
 8002d74:	e731      	b.n	8002bda <HAL_RCC_OscConfig+0x82>
 8002d76:	b9ab      	cbnz	r3, 8002da4 <HAL_RCC_OscConfig+0x24c>
 8002d78:	6a23      	ldr	r3, [r4, #32]
 8002d7a:	f241 3888 	movw	r8, #5000	@ 0x1388
 8002d7e:	f023 0301 	bic.w	r3, r3, #1
 8002d82:	6223      	str	r3, [r4, #32]
 8002d84:	6a23      	ldr	r3, [r4, #32]
 8002d86:	f023 0304 	bic.w	r3, r3, #4
 8002d8a:	6223      	str	r3, [r4, #32]
 8002d8c:	f7fe ff8a 	bl	8001ca4 <HAL_GetTick>
 8002d90:	4606      	mov	r6, r0
 8002d92:	6a23      	ldr	r3, [r4, #32]
 8002d94:	0798      	lsls	r0, r3, #30
 8002d96:	d5d3      	bpl.n	8002d40 <HAL_RCC_OscConfig+0x1e8>
 8002d98:	f7fe ff84 	bl	8001ca4 <HAL_GetTick>
 8002d9c:	1b80      	subs	r0, r0, r6
 8002d9e:	4540      	cmp	r0, r8
 8002da0:	d9f7      	bls.n	8002d92 <HAL_RCC_OscConfig+0x23a>
 8002da2:	e71a      	b.n	8002bda <HAL_RCC_OscConfig+0x82>
 8002da4:	2b05      	cmp	r3, #5
 8002da6:	6a23      	ldr	r3, [r4, #32]
 8002da8:	d103      	bne.n	8002db2 <HAL_RCC_OscConfig+0x25a>
 8002daa:	f043 0304 	orr.w	r3, r3, #4
 8002dae:	6223      	str	r3, [r4, #32]
 8002db0:	e7ba      	b.n	8002d28 <HAL_RCC_OscConfig+0x1d0>
 8002db2:	f023 0301 	bic.w	r3, r3, #1
 8002db6:	6223      	str	r3, [r4, #32]
 8002db8:	6a23      	ldr	r3, [r4, #32]
 8002dba:	f023 0304 	bic.w	r3, r3, #4
 8002dbe:	e7b6      	b.n	8002d2e <HAL_RCC_OscConfig+0x1d6>
 8002dc0:	f7fe ff70 	bl	8001ca4 <HAL_GetTick>
 8002dc4:	1b80      	subs	r0, r0, r6
 8002dc6:	4540      	cmp	r0, r8
 8002dc8:	d9b7      	bls.n	8002d3a <HAL_RCC_OscConfig+0x1e2>
 8002dca:	e706      	b.n	8002bda <HAL_RCC_OscConfig+0x82>
 8002dcc:	40021000 	.word	0x40021000
 8002dd0:	42420000 	.word	0x42420000
 8002dd4:	20000004 	.word	0x20000004
 8002dd8:	40007000 	.word	0x40007000
 8002ddc:	4c2a      	ldr	r4, [pc, #168]	@ (8002e88 <HAL_RCC_OscConfig+0x330>)
 8002dde:	6862      	ldr	r2, [r4, #4]
 8002de0:	f002 020c 	and.w	r2, r2, #12
 8002de4:	2a08      	cmp	r2, #8
 8002de6:	d03e      	beq.n	8002e66 <HAL_RCC_OscConfig+0x30e>
 8002de8:	2200      	movs	r2, #0
 8002dea:	2b02      	cmp	r3, #2
 8002dec:	4b27      	ldr	r3, [pc, #156]	@ (8002e8c <HAL_RCC_OscConfig+0x334>)
 8002dee:	661a      	str	r2, [r3, #96]	@ 0x60
 8002df0:	d12c      	bne.n	8002e4c <HAL_RCC_OscConfig+0x2f4>
 8002df2:	f7fe ff57 	bl	8001ca4 <HAL_GetTick>
 8002df6:	4606      	mov	r6, r0
 8002df8:	6823      	ldr	r3, [r4, #0]
 8002dfa:	0199      	lsls	r1, r3, #6
 8002dfc:	d420      	bmi.n	8002e40 <HAL_RCC_OscConfig+0x2e8>
 8002dfe:	6a2b      	ldr	r3, [r5, #32]
 8002e00:	f5b3 3f80 	cmp.w	r3, #65536	@ 0x10000
 8002e04:	d105      	bne.n	8002e12 <HAL_RCC_OscConfig+0x2ba>
 8002e06:	6862      	ldr	r2, [r4, #4]
 8002e08:	68a9      	ldr	r1, [r5, #8]
 8002e0a:	f422 3200 	bic.w	r2, r2, #131072	@ 0x20000
 8002e0e:	430a      	orrs	r2, r1
 8002e10:	6062      	str	r2, [r4, #4]
 8002e12:	6a69      	ldr	r1, [r5, #36]	@ 0x24
 8002e14:	6862      	ldr	r2, [r4, #4]
 8002e16:	430b      	orrs	r3, r1
 8002e18:	f422 1274 	bic.w	r2, r2, #3997696	@ 0x3d0000
 8002e1c:	4313      	orrs	r3, r2
 8002e1e:	2201      	movs	r2, #1
 8002e20:	6063      	str	r3, [r4, #4]
 8002e22:	4b1a      	ldr	r3, [pc, #104]	@ (8002e8c <HAL_RCC_OscConfig+0x334>)
 8002e24:	661a      	str	r2, [r3, #96]	@ 0x60
 8002e26:	f7fe ff3d 	bl	8001ca4 <HAL_GetTick>
 8002e2a:	4605      	mov	r5, r0
 8002e2c:	6823      	ldr	r3, [r4, #0]
 8002e2e:	019a      	lsls	r2, r3, #6
 8002e30:	f53f aea8 	bmi.w	8002b84 <HAL_RCC_OscConfig+0x2c>
 8002e34:	f7fe ff36 	bl	8001ca4 <HAL_GetTick>
 8002e38:	1b40      	subs	r0, r0, r5
 8002e3a:	2802      	cmp	r0, #2
 8002e3c:	d9f6      	bls.n	8002e2c <HAL_RCC_OscConfig+0x2d4>
 8002e3e:	e6cc      	b.n	8002bda <HAL_RCC_OscConfig+0x82>
 8002e40:	f7fe ff30 	bl	8001ca4 <HAL_GetTick>
 8002e44:	1b80      	subs	r0, r0, r6
 8002e46:	2802      	cmp	r0, #2
 8002e48:	d9d6      	bls.n	8002df8 <HAL_RCC_OscConfig+0x2a0>
 8002e4a:	e6c6      	b.n	8002bda <HAL_RCC_OscConfig+0x82>
 8002e4c:	f7fe ff2a 	bl	8001ca4 <HAL_GetTick>
 8002e50:	4605      	mov	r5, r0
 8002e52:	6823      	ldr	r3, [r4, #0]
 8002e54:	019b      	lsls	r3, r3, #6
 8002e56:	f57f ae95 	bpl.w	8002b84 <HAL_RCC_OscConfig+0x2c>
 8002e5a:	f7fe ff23 	bl	8001ca4 <HAL_GetTick>
 8002e5e:	1b40      	subs	r0, r0, r5
 8002e60:	2802      	cmp	r0, #2
 8002e62:	d9f6      	bls.n	8002e52 <HAL_RCC_OscConfig+0x2fa>
 8002e64:	e6b9      	b.n	8002bda <HAL_RCC_OscConfig+0x82>
 8002e66:	2b01      	cmp	r3, #1
 8002e68:	f43f aea2 	beq.w	8002bb0 <HAL_RCC_OscConfig+0x58>
 8002e6c:	6860      	ldr	r0, [r4, #4]
 8002e6e:	6a2b      	ldr	r3, [r5, #32]
 8002e70:	f400 3280 	and.w	r2, r0, #65536	@ 0x10000
 8002e74:	429a      	cmp	r2, r3
 8002e76:	f47f ae9b 	bne.w	8002bb0 <HAL_RCC_OscConfig+0x58>
 8002e7a:	6a6b      	ldr	r3, [r5, #36]	@ 0x24
 8002e7c:	f400 1070 	and.w	r0, r0, #3932160	@ 0x3c0000
 8002e80:	1ac0      	subs	r0, r0, r3
 8002e82:	bf18      	it	ne
 8002e84:	2001      	movne	r0, #1
 8002e86:	e6a9      	b.n	8002bdc <HAL_RCC_OscConfig+0x84>
 8002e88:	40021000 	.word	0x40021000
 8002e8c:	42420000 	.word	0x42420000

08002e90 <HAL_RCC_GetSysClockFreq>:
 8002e90:	4a0d      	ldr	r2, [pc, #52]	@ (8002ec8 <HAL_RCC_GetSysClockFreq+0x38>)
 8002e92:	6853      	ldr	r3, [r2, #4]
 8002e94:	f003 010c 	and.w	r1, r3, #12
 8002e98:	2908      	cmp	r1, #8
 8002e9a:	d112      	bne.n	8002ec2 <HAL_RCC_GetSysClockFreq+0x32>
 8002e9c:	480b      	ldr	r0, [pc, #44]	@ (8002ecc <HAL_RCC_GetSysClockFreq+0x3c>)
 8002e9e:	f3c3 4183 	ubfx	r1, r3, #18, #4
 8002ea2:	03db      	lsls	r3, r3, #15
 8002ea4:	5c40      	ldrb	r0, [r0, r1]
 8002ea6:	d509      	bpl.n	8002ebc <HAL_RCC_GetSysClockFreq+0x2c>
 8002ea8:	6853      	ldr	r3, [r2, #4]
 8002eaa:	4a09      	ldr	r2, [pc, #36]	@ (8002ed0 <HAL_RCC_GetSysClockFreq+0x40>)
 8002eac:	f3c3 4340 	ubfx	r3, r3, #17, #1
 8002eb0:	4350      	muls	r0, r2
 8002eb2:	4a08      	ldr	r2, [pc, #32]	@ (8002ed4 <HAL_RCC_GetSysClockFreq+0x44>)
 8002eb4:	5cd3      	ldrb	r3, [r2, r3]
 8002eb6:	fbb0 f0f3 	udiv	r0, r0, r3
 8002eba:	4770      	bx	lr
 8002ebc:	4b06      	ldr	r3, [pc, #24]	@ (8002ed8 <HAL_RCC_GetSysClockFreq+0x48>)
 8002ebe:	4358      	muls	r0, r3
 8002ec0:	4770      	bx	lr
 8002ec2:	4803      	ldr	r0, [pc, #12]	@ (8002ed0 <HAL_RCC_GetSysClockFreq+0x40>)
 8002ec4:	4770      	bx	lr
 8002ec6:	bf00      	nop
 8002ec8:	40021000 	.word	0x40021000
 8002ecc:	0800673b 	.word	0x0800673b
 8002ed0:	007a1200 	.word	0x007a1200
 8002ed4:	08006739 	.word	0x08006739
 8002ed8:	003d0900 	.word	0x003d0900

08002edc <HAL_RCC_ClockConfig>:
 8002edc:	e92d 41f0 	stmdb	sp!, {r4, r5, r6, r7, r8, lr}
 8002ee0:	460d      	mov	r5, r1
 8002ee2:	4604      	mov	r4, r0
 8002ee4:	b910      	cbnz	r0, 8002eec <HAL_RCC_ClockConfig+0x10>
 8002ee6:	2001      	movs	r0, #1
 8002ee8:	e8bd 81f0 	ldmia.w	sp!, {r4, r5, r6, r7, r8, pc}
 8002eec:	4a44      	ldr	r2, [pc, #272]	@ (8003000 <HAL_RCC_ClockConfig+0x124>)
 8002eee:	6813      	ldr	r3, [r2, #0]
 8002ef0:	f003 0307 	and.w	r3, r3, #7
 8002ef4:	428b      	cmp	r3, r1
 8002ef6:	d328      	bcc.n	8002f4a <HAL_RCC_ClockConfig+0x6e>
 8002ef8:	6821      	ldr	r1, [r4, #0]
 8002efa:	078e      	lsls	r6, r1, #30
 8002efc:	d430      	bmi.n	8002f60 <HAL_RCC_ClockConfig+0x84>
 8002efe:	07ca      	lsls	r2, r1, #31
 8002f00:	d443      	bmi.n	8002f8a <HAL_RCC_ClockConfig+0xae>
 8002f02:	4a3f      	ldr	r2, [pc, #252]	@ (8003000 <HAL_RCC_ClockConfig+0x124>)
 8002f04:	6813      	ldr	r3, [r2, #0]
 8002f06:	f003 0307 	and.w	r3, r3, #7
 8002f0a:	42ab      	cmp	r3, r5
 8002f0c:	d865      	bhi.n	8002fda <HAL_RCC_ClockConfig+0xfe>
 8002f0e:	6822      	ldr	r2, [r4, #0]
 8002f10:	4d3c      	ldr	r5, [pc, #240]	@ (8003004 <HAL_RCC_ClockConfig+0x128>)
 8002f12:	f012 0f04 	tst.w	r2, #4
 8002f16:	d16c      	bne.n	8002ff2 <HAL_RCC_ClockConfig+0x116>
 8002f18:	0713      	lsls	r3, r2, #28
 8002f1a:	d506      	bpl.n	8002f2a <HAL_RCC_ClockConfig+0x4e>
 8002f1c:	686b      	ldr	r3, [r5, #4]
 8002f1e:	6922      	ldr	r2, [r4, #16]
 8002f20:	f423 5360 	bic.w	r3, r3, #14336	@ 0x3800
 8002f24:	ea43 03c2 	orr.w	r3, r3, r2, lsl #3
 8002f28:	606b      	str	r3, [r5, #4]
 8002f2a:	f7ff ffb1 	bl	8002e90 <HAL_RCC_GetSysClockFreq>
 8002f2e:	686b      	ldr	r3, [r5, #4]
 8002f30:	4a35      	ldr	r2, [pc, #212]	@ (8003008 <HAL_RCC_ClockConfig+0x12c>)
 8002f32:	f3c3 1303 	ubfx	r3, r3, #4, #4
 8002f36:	5cd3      	ldrb	r3, [r2, r3]
 8002f38:	40d8      	lsrs	r0, r3
 8002f3a:	4b34      	ldr	r3, [pc, #208]	@ (800300c <HAL_RCC_ClockConfig+0x130>)
 8002f3c:	6018      	str	r0, [r3, #0]
 8002f3e:	4b34      	ldr	r3, [pc, #208]	@ (8003010 <HAL_RCC_ClockConfig+0x134>)
 8002f40:	6818      	ldr	r0, [r3, #0]
 8002f42:	f7fe fe6d 	bl	8001c20 <HAL_InitTick>
 8002f46:	2000      	movs	r0, #0
 8002f48:	e7ce      	b.n	8002ee8 <HAL_RCC_ClockConfig+0xc>
 8002f4a:	6813      	ldr	r3, [r2, #0]
 8002f4c:	f023 0307 	bic.w	r3, r3, #7
 8002f50:	430b      	orrs	r3, r1
 8002f52:	6013      	str	r3, [r2, #0]
 8002f54:	6813      	ldr	r3, [r2, #0]
 8002f56:	f003 0307 	and.w	r3, r3, #7
 8002f5a:	428b      	cmp	r3, r1
 8002f5c:	d1c3      	bne.n	8002ee6 <HAL_RCC_ClockConfig+0xa>
 8002f5e:	e7cb      	b.n	8002ef8 <HAL_RCC_ClockConfig+0x1c>
 8002f60:	4b28      	ldr	r3, [pc, #160]	@ (8003004 <HAL_RCC_ClockConfig+0x128>)
 8002f62:	f011 0f04 	tst.w	r1, #4
 8002f66:	bf1e      	ittt	ne
 8002f68:	685a      	ldrne	r2, [r3, #4]
 8002f6a:	f442 62e0 	orrne.w	r2, r2, #1792	@ 0x700
 8002f6e:	605a      	strne	r2, [r3, #4]
 8002f70:	0708      	lsls	r0, r1, #28
 8002f72:	bf42      	ittt	mi
 8002f74:	685a      	ldrmi	r2, [r3, #4]
 8002f76:	f442 5260 	orrmi.w	r2, r2, #14336	@ 0x3800
 8002f7a:	605a      	strmi	r2, [r3, #4]
 8002f7c:	685a      	ldr	r2, [r3, #4]
 8002f7e:	68a0      	ldr	r0, [r4, #8]
 8002f80:	f022 02f0 	bic.w	r2, r2, #240	@ 0xf0
 8002f84:	4302      	orrs	r2, r0
 8002f86:	605a      	str	r2, [r3, #4]
 8002f88:	e7b9      	b.n	8002efe <HAL_RCC_ClockConfig+0x22>
 8002f8a:	6862      	ldr	r2, [r4, #4]
 8002f8c:	4e1d      	ldr	r6, [pc, #116]	@ (8003004 <HAL_RCC_ClockConfig+0x128>)
 8002f8e:	2a01      	cmp	r2, #1
 8002f90:	6833      	ldr	r3, [r6, #0]
 8002f92:	d11a      	bne.n	8002fca <HAL_RCC_ClockConfig+0xee>
 8002f94:	f413 3f00 	tst.w	r3, #131072	@ 0x20000
 8002f98:	d0a5      	beq.n	8002ee6 <HAL_RCC_ClockConfig+0xa>
 8002f9a:	6873      	ldr	r3, [r6, #4]
 8002f9c:	f241 3888 	movw	r8, #5000	@ 0x1388
 8002fa0:	f023 0303 	bic.w	r3, r3, #3
 8002fa4:	4313      	orrs	r3, r2
 8002fa6:	6073      	str	r3, [r6, #4]
 8002fa8:	f7fe fe7c 	bl	8001ca4 <HAL_GetTick>
 8002fac:	4607      	mov	r7, r0
 8002fae:	6873      	ldr	r3, [r6, #4]
 8002fb0:	6862      	ldr	r2, [r4, #4]
 8002fb2:	f003 030c 	and.w	r3, r3, #12
 8002fb6:	ebb3 0f82 	cmp.w	r3, r2, lsl #2
 8002fba:	d0a2      	beq.n	8002f02 <HAL_RCC_ClockConfig+0x26>
 8002fbc:	f7fe fe72 	bl	8001ca4 <HAL_GetTick>
 8002fc0:	1bc0      	subs	r0, r0, r7
 8002fc2:	4540      	cmp	r0, r8
 8002fc4:	d9f3      	bls.n	8002fae <HAL_RCC_ClockConfig+0xd2>
 8002fc6:	2003      	movs	r0, #3
 8002fc8:	e78e      	b.n	8002ee8 <HAL_RCC_ClockConfig+0xc>
 8002fca:	2a02      	cmp	r2, #2
 8002fcc:	d102      	bne.n	8002fd4 <HAL_RCC_ClockConfig+0xf8>
 8002fce:	f013 7f00 	tst.w	r3, #33554432	@ 0x2000000
 8002fd2:	e7e1      	b.n	8002f98 <HAL_RCC_ClockConfig+0xbc>
 8002fd4:	f013 0f02 	tst.w	r3, #2
 8002fd8:	e7de      	b.n	8002f98 <HAL_RCC_ClockConfig+0xbc>
 8002fda:	6813      	ldr	r3, [r2, #0]
 8002fdc:	f023 0307 	bic.w	r3, r3, #7
 8002fe0:	432b      	orrs	r3, r5
 8002fe2:	6013      	str	r3, [r2, #0]
 8002fe4:	6813      	ldr	r3, [r2, #0]
 8002fe6:	f003 0307 	and.w	r3, r3, #7
 8002fea:	42ab      	cmp	r3, r5
 8002fec:	f47f af7b 	bne.w	8002ee6 <HAL_RCC_ClockConfig+0xa>
 8002ff0:	e78d      	b.n	8002f0e <HAL_RCC_ClockConfig+0x32>
 8002ff2:	686b      	ldr	r3, [r5, #4]
 8002ff4:	68e1      	ldr	r1, [r4, #12]
 8002ff6:	f423 63e0 	bic.w	r3, r3, #1792	@ 0x700
 8002ffa:	430b      	orrs	r3, r1
 8002ffc:	606b      	str	r3, [r5, #4]
 8002ffe:	e78b      	b.n	8002f18 <HAL_RCC_ClockConfig+0x3c>
 8003000:	40022000 	.word	0x40022000
 8003004:	40021000 	.word	0x40021000
 8003008:	08006729 	.word	0x08006729
 800300c:	20000004 	.word	0x20000004
 8003010:	2000000c 	.word	0x2000000c

08003014 <HAL_RCC_GetPCLK1Freq>:
 8003014:	4b04      	ldr	r3, [pc, #16]	@ (8003028 <HAL_RCC_GetPCLK1Freq+0x14>)
 8003016:	4a05      	ldr	r2, [pc, #20]	@ (800302c <HAL_RCC_GetPCLK1Freq+0x18>)
 8003018:	685b      	ldr	r3, [r3, #4]
 800301a:	f3c3 2302 	ubfx	r3, r3, #8, #3
 800301e:	5cd3      	ldrb	r3, [r2, r3]
 8003020:	4a03      	ldr	r2, [pc, #12]	@ (8003030 <HAL_RCC_GetPCLK1Freq+0x1c>)
 8003022:	6810      	ldr	r0, [r2, #0]
 8003024:	40d8      	lsrs	r0, r3
 8003026:	4770      	bx	lr
 8003028:	40021000 	.word	0x40021000
 800302c:	08006721 	.word	0x08006721
 8003030:	20000004 	.word	0x20000004

08003034 <HAL_RCC_GetPCLK2Freq>:
 8003034:	4b04      	ldr	r3, [pc, #16]	@ (8003048 <HAL_RCC_GetPCLK2Freq+0x14>)
 8003036:	4a05      	ldr	r2, [pc, #20]	@ (800304c <HAL_RCC_GetPCLK2Freq+0x18>)
 8003038:	685b      	ldr	r3, [r3, #4]
 800303a:	f3c3 23c2 	ubfx	r3, r3, #11, #3
 800303e:	5cd3      	ldrb	r3, [r2, r3]
 8003040:	4a03      	ldr	r2, [pc, #12]	@ (8003050 <HAL_RCC_GetPCLK2Freq+0x1c>)
 8003042:	6810      	ldr	r0, [r2, #0]
 8003044:	40d8      	lsrs	r0, r3
 8003046:	4770      	bx	lr
 8003048:	40021000 	.word	0x40021000
 800304c:	08006721 	.word	0x08006721
 8003050:	20000004 	.word	0x20000004

08003054 <SPI_WaitFlagStateUntilTimeout>:
 8003054:	e92d 47f3 	stmdb	sp!, {r0, r1, r4, r5, r6, r7, r8, r9, sl, lr}
 8003058:	461f      	mov	r7, r3
 800305a:	4689      	mov	r9, r1
 800305c:	4690      	mov	r8, r2
 800305e:	4604      	mov	r4, r0
 8003060:	f7fe fe20 	bl	8001ca4 <HAL_GetTick>
 8003064:	9d0a      	ldr	r5, [sp, #40]	@ 0x28
 8003066:	443d      	add	r5, r7
 8003068:	1a2d      	subs	r5, r5, r0
 800306a:	f7fe fe1b 	bl	8001ca4 <HAL_GetTick>
 800306e:	4682      	mov	sl, r0
 8003070:	4b25      	ldr	r3, [pc, #148]	@ (8003108 <SPI_WaitFlagStateUntilTimeout+0xb4>)
 8003072:	681e      	ldr	r6, [r3, #0]
 8003074:	f3c6 36cb 	ubfx	r6, r6, #15, #12
 8003078:	436e      	muls	r6, r5
 800307a:	9601      	str	r6, [sp, #4]
 800307c:	6822      	ldr	r2, [r4, #0]
 800307e:	6893      	ldr	r3, [r2, #8]
 8003080:	ea39 0303 	bics.w	r3, r9, r3
 8003084:	bf0c      	ite	eq
 8003086:	2301      	moveq	r3, #1
 8003088:	2300      	movne	r3, #0
 800308a:	4543      	cmp	r3, r8
 800308c:	d101      	bne.n	8003092 <SPI_WaitFlagStateUntilTimeout+0x3e>
 800308e:	2000      	movs	r0, #0
 8003090:	e02e      	b.n	80030f0 <SPI_WaitFlagStateUntilTimeout+0x9c>
 8003092:	1c7b      	adds	r3, r7, #1
 8003094:	d0f3      	beq.n	800307e <SPI_WaitFlagStateUntilTimeout+0x2a>
 8003096:	f7fe fe05 	bl	8001ca4 <HAL_GetTick>
 800309a:	eba0 000a 	sub.w	r0, r0, sl
 800309e:	42a8      	cmp	r0, r5
 80030a0:	d329      	bcc.n	80030f6 <SPI_WaitFlagStateUntilTimeout+0xa2>
 80030a2:	6823      	ldr	r3, [r4, #0]
 80030a4:	685a      	ldr	r2, [r3, #4]
 80030a6:	f022 02e0 	bic.w	r2, r2, #224	@ 0xe0
 80030aa:	605a      	str	r2, [r3, #4]
 80030ac:	6862      	ldr	r2, [r4, #4]
 80030ae:	f5b2 7f82 	cmp.w	r2, #260	@ 0x104
 80030b2:	d10a      	bne.n	80030ca <SPI_WaitFlagStateUntilTimeout+0x76>
 80030b4:	68a2      	ldr	r2, [r4, #8]
 80030b6:	f5b2 4f00 	cmp.w	r2, #32768	@ 0x8000
 80030ba:	d002      	beq.n	80030c2 <SPI_WaitFlagStateUntilTimeout+0x6e>
 80030bc:	f5b2 6f80 	cmp.w	r2, #1024	@ 0x400
 80030c0:	d103      	bne.n	80030ca <SPI_WaitFlagStateUntilTimeout+0x76>
 80030c2:	681a      	ldr	r2, [r3, #0]
 80030c4:	f022 0240 	bic.w	r2, r2, #64	@ 0x40
 80030c8:	601a      	str	r2, [r3, #0]
 80030ca:	6aa2      	ldr	r2, [r4, #40]	@ 0x28
 80030cc:	f5b2 5f00 	cmp.w	r2, #8192	@ 0x2000
 80030d0:	d107      	bne.n	80030e2 <SPI_WaitFlagStateUntilTimeout+0x8e>
 80030d2:	681a      	ldr	r2, [r3, #0]
 80030d4:	f422 5200 	bic.w	r2, r2, #8192	@ 0x2000
 80030d8:	601a      	str	r2, [r3, #0]
 80030da:	681a      	ldr	r2, [r3, #0]
 80030dc:	f442 5200 	orr.w	r2, r2, #8192	@ 0x2000
 80030e0:	601a      	str	r2, [r3, #0]
 80030e2:	2301      	movs	r3, #1
 80030e4:	f884 3051 	strb.w	r3, [r4, #81]	@ 0x51
 80030e8:	2300      	movs	r3, #0
 80030ea:	2003      	movs	r0, #3
 80030ec:	f884 3050 	strb.w	r3, [r4, #80]	@ 0x50
 80030f0:	b002      	add	sp, #8
 80030f2:	e8bd 87f0 	ldmia.w	sp!, {r4, r5, r6, r7, r8, r9, sl, pc}
 80030f6:	9a01      	ldr	r2, [sp, #4]
 80030f8:	9b01      	ldr	r3, [sp, #4]
 80030fa:	2a00      	cmp	r2, #0
 80030fc:	f103 33ff 	add.w	r3, r3, #4294967295
 8003100:	bf08      	it	eq
 8003102:	4615      	moveq	r5, r2
 8003104:	9301      	str	r3, [sp, #4]
 8003106:	e7b9      	b.n	800307c <SPI_WaitFlagStateUntilTimeout+0x28>
 8003108:	20000004 	.word	0x20000004

0800310c <SPI_EndRxTxTransaction>:
 800310c:	b573      	push	{r0, r1, r4, r5, r6, lr}
 800310e:	460b      	mov	r3, r1
 8003110:	9200      	str	r2, [sp, #0]
 8003112:	460d      	mov	r5, r1
 8003114:	4616      	mov	r6, r2
 8003116:	2102      	movs	r1, #2
 8003118:	2201      	movs	r2, #1
 800311a:	4604      	mov	r4, r0
 800311c:	f7ff ff9a 	bl	8003054 <SPI_WaitFlagStateUntilTimeout>
 8003120:	4602      	mov	r2, r0
 8003122:	b128      	cbz	r0, 8003130 <SPI_EndRxTxTransaction+0x24>
 8003124:	6d63      	ldr	r3, [r4, #84]	@ 0x54
 8003126:	2003      	movs	r0, #3
 8003128:	f043 0320 	orr.w	r3, r3, #32
 800312c:	6563      	str	r3, [r4, #84]	@ 0x54
 800312e:	e007      	b.n	8003140 <SPI_EndRxTxTransaction+0x34>
 8003130:	462b      	mov	r3, r5
 8003132:	2180      	movs	r1, #128	@ 0x80
 8003134:	4620      	mov	r0, r4
 8003136:	9600      	str	r6, [sp, #0]
 8003138:	f7ff ff8c 	bl	8003054 <SPI_WaitFlagStateUntilTimeout>
 800313c:	2800      	cmp	r0, #0
 800313e:	d1f1      	bne.n	8003124 <SPI_EndRxTxTransaction+0x18>
 8003140:	b002      	add	sp, #8
 8003142:	bd70      	pop	{r4, r5, r6, pc}

08003144 <HAL_SPI_Init>:
 8003144:	b510      	push	{r4, lr}
 8003146:	4604      	mov	r4, r0
 8003148:	2800      	cmp	r0, #0
 800314a:	d051      	beq.n	80031f0 <HAL_SPI_Init+0xac>
 800314c:	6a43      	ldr	r3, [r0, #36]	@ 0x24
 800314e:	2b00      	cmp	r3, #0
 8003150:	d14a      	bne.n	80031e8 <HAL_SPI_Init+0xa4>
 8003152:	6842      	ldr	r2, [r0, #4]
 8003154:	f5b2 7f82 	cmp.w	r2, #260	@ 0x104
 8003158:	d000      	beq.n	800315c <HAL_SPI_Init+0x18>
 800315a:	61c3      	str	r3, [r0, #28]
 800315c:	2300      	movs	r3, #0
 800315e:	62a3      	str	r3, [r4, #40]	@ 0x28
 8003160:	f894 3051 	ldrb.w	r3, [r4, #81]	@ 0x51
 8003164:	f003 02ff 	and.w	r2, r3, #255	@ 0xff
 8003168:	b923      	cbnz	r3, 8003174 <HAL_SPI_Init+0x30>
 800316a:	4620      	mov	r0, r4
 800316c:	f884 2050 	strb.w	r2, [r4, #80]	@ 0x50
 8003170:	f7fe fc60 	bl	8001a34 <HAL_SPI_MspInit>
 8003174:	2302      	movs	r3, #2
 8003176:	6822      	ldr	r2, [r4, #0]
 8003178:	f884 3051 	strb.w	r3, [r4, #81]	@ 0x51
 800317c:	6813      	ldr	r3, [r2, #0]
 800317e:	68a0      	ldr	r0, [r4, #8]
 8003180:	f023 0340 	bic.w	r3, r3, #64	@ 0x40
 8003184:	6013      	str	r3, [r2, #0]
 8003186:	6863      	ldr	r3, [r4, #4]
 8003188:	f400 4004 	and.w	r0, r0, #33792	@ 0x8400
 800318c:	f403 7382 	and.w	r3, r3, #260	@ 0x104
 8003190:	4303      	orrs	r3, r0
 8003192:	68e0      	ldr	r0, [r4, #12]
 8003194:	69a1      	ldr	r1, [r4, #24]
 8003196:	f400 6000 	and.w	r0, r0, #2048	@ 0x800
 800319a:	4303      	orrs	r3, r0
 800319c:	6920      	ldr	r0, [r4, #16]
 800319e:	f000 0002 	and.w	r0, r0, #2
 80031a2:	4303      	orrs	r3, r0
 80031a4:	6960      	ldr	r0, [r4, #20]
 80031a6:	f000 0001 	and.w	r0, r0, #1
 80031aa:	4303      	orrs	r3, r0
 80031ac:	f401 7000 	and.w	r0, r1, #512	@ 0x200
 80031b0:	4303      	orrs	r3, r0
 80031b2:	69e0      	ldr	r0, [r4, #28]
 80031b4:	0c09      	lsrs	r1, r1, #16
 80031b6:	f000 0038 	and.w	r0, r0, #56	@ 0x38
 80031ba:	4303      	orrs	r3, r0
 80031bc:	6a20      	ldr	r0, [r4, #32]
 80031be:	f001 0104 	and.w	r1, r1, #4
 80031c2:	f000 0080 	and.w	r0, r0, #128	@ 0x80
 80031c6:	4303      	orrs	r3, r0
 80031c8:	6aa0      	ldr	r0, [r4, #40]	@ 0x28
 80031ca:	f400 5000 	and.w	r0, r0, #8192	@ 0x2000
 80031ce:	4303      	orrs	r3, r0
 80031d0:	6013      	str	r3, [r2, #0]
 80031d2:	6051      	str	r1, [r2, #4]
 80031d4:	69d3      	ldr	r3, [r2, #28]
 80031d6:	2000      	movs	r0, #0
 80031d8:	f423 6300 	bic.w	r3, r3, #2048	@ 0x800
 80031dc:	61d3      	str	r3, [r2, #28]
 80031de:	2301      	movs	r3, #1
 80031e0:	6560      	str	r0, [r4, #84]	@ 0x54
 80031e2:	f884 3051 	strb.w	r3, [r4, #81]	@ 0x51
 80031e6:	bd10      	pop	{r4, pc}
 80031e8:	2300      	movs	r3, #0
 80031ea:	e9c0 3304 	strd	r3, r3, [r0, #16]
 80031ee:	e7b5      	b.n	800315c <HAL_SPI_Init+0x18>
 80031f0:	2001      	movs	r0, #1
 80031f2:	e7f8      	b.n	80031e6 <HAL_SPI_Init+0xa2>

080031f4 <HAL_SPI_Transmit>:
 80031f4:	e92d 43f7 	stmdb	sp!, {r0, r1, r2, r4, r5, r6, r7, r8, r9, lr}
 80031f8:	4604      	mov	r4, r0
 80031fa:	461f      	mov	r7, r3
 80031fc:	460d      	mov	r5, r1
 80031fe:	4690      	mov	r8, r2
 8003200:	f7fe fd50 	bl	8001ca4 <HAL_GetTick>
 8003204:	f894 3051 	ldrb.w	r3, [r4, #81]	@ 0x51
 8003208:	4681      	mov	r9, r0
 800320a:	2b01      	cmp	r3, #1
 800320c:	b2d8      	uxtb	r0, r3
 800320e:	f040 809f 	bne.w	8003350 <HAL_SPI_Transmit+0x15c>
 8003212:	2d00      	cmp	r5, #0
 8003214:	d074      	beq.n	8003300 <HAL_SPI_Transmit+0x10c>
 8003216:	f1b8 0f00 	cmp.w	r8, #0
 800321a:	d071      	beq.n	8003300 <HAL_SPI_Transmit+0x10c>
 800321c:	f894 3050 	ldrb.w	r3, [r4, #80]	@ 0x50
 8003220:	2b01      	cmp	r3, #1
 8003222:	f000 8095 	beq.w	8003350 <HAL_SPI_Transmit+0x15c>
 8003226:	2303      	movs	r3, #3
 8003228:	f884 3051 	strb.w	r3, [r4, #81]	@ 0x51
 800322c:	2300      	movs	r3, #0
 800322e:	6563      	str	r3, [r4, #84]	@ 0x54
 8003230:	e9c4 3310 	strd	r3, r3, [r4, #64]	@ 0x40
 8003234:	f8a4 8036 	strh.w	r8, [r4, #54]	@ 0x36
 8003238:	63a3      	str	r3, [r4, #56]	@ 0x38
 800323a:	87a3      	strh	r3, [r4, #60]	@ 0x3c
 800323c:	87e3      	strh	r3, [r4, #62]	@ 0x3e
 800323e:	68a3      	ldr	r3, [r4, #8]
 8003240:	6826      	ldr	r6, [r4, #0]
 8003242:	f5b3 4f00 	cmp.w	r3, #32768	@ 0x8000
 8003246:	f884 0050 	strb.w	r0, [r4, #80]	@ 0x50
 800324a:	6325      	str	r5, [r4, #48]	@ 0x30
 800324c:	f8a4 8034 	strh.w	r8, [r4, #52]	@ 0x34
 8003250:	d107      	bne.n	8003262 <HAL_SPI_Transmit+0x6e>
 8003252:	6833      	ldr	r3, [r6, #0]
 8003254:	f023 0340 	bic.w	r3, r3, #64	@ 0x40
 8003258:	6033      	str	r3, [r6, #0]
 800325a:	6833      	ldr	r3, [r6, #0]
 800325c:	f443 4380 	orr.w	r3, r3, #16384	@ 0x4000
 8003260:	6033      	str	r3, [r6, #0]
 8003262:	6833      	ldr	r3, [r6, #0]
 8003264:	68e2      	ldr	r2, [r4, #12]
 8003266:	065b      	lsls	r3, r3, #25
 8003268:	bf5e      	ittt	pl
 800326a:	6833      	ldrpl	r3, [r6, #0]
 800326c:	f043 0340 	orrpl.w	r3, r3, #64	@ 0x40
 8003270:	6033      	strpl	r3, [r6, #0]
 8003272:	f5b2 6f00 	cmp.w	r2, #2048	@ 0x800
 8003276:	6863      	ldr	r3, [r4, #4]
 8003278:	d145      	bne.n	8003306 <HAL_SPI_Transmit+0x112>
 800327a:	b113      	cbz	r3, 8003282 <HAL_SPI_Transmit+0x8e>
 800327c:	f1b8 0f01 	cmp.w	r8, #1
 8003280:	d107      	bne.n	8003292 <HAL_SPI_Transmit+0x9e>
 8003282:	f835 3b02 	ldrh.w	r3, [r5], #2
 8003286:	60f3      	str	r3, [r6, #12]
 8003288:	6325      	str	r5, [r4, #48]	@ 0x30
 800328a:	8ee3      	ldrh	r3, [r4, #54]	@ 0x36
 800328c:	3b01      	subs	r3, #1
 800328e:	b29b      	uxth	r3, r3
 8003290:	86e3      	strh	r3, [r4, #54]	@ 0x36
 8003292:	8ee3      	ldrh	r3, [r4, #54]	@ 0x36
 8003294:	b29b      	uxth	r3, r3
 8003296:	b9d3      	cbnz	r3, 80032ce <HAL_SPI_Transmit+0xda>
 8003298:	464a      	mov	r2, r9
 800329a:	4639      	mov	r1, r7
 800329c:	4620      	mov	r0, r4
 800329e:	f7ff ff35 	bl	800310c <SPI_EndRxTxTransaction>
 80032a2:	2800      	cmp	r0, #0
 80032a4:	d151      	bne.n	800334a <HAL_SPI_Transmit+0x156>
 80032a6:	68a3      	ldr	r3, [r4, #8]
 80032a8:	b933      	cbnz	r3, 80032b8 <HAL_SPI_Transmit+0xc4>
 80032aa:	9301      	str	r3, [sp, #4]
 80032ac:	6823      	ldr	r3, [r4, #0]
 80032ae:	68da      	ldr	r2, [r3, #12]
 80032b0:	9201      	str	r2, [sp, #4]
 80032b2:	689b      	ldr	r3, [r3, #8]
 80032b4:	9301      	str	r3, [sp, #4]
 80032b6:	9b01      	ldr	r3, [sp, #4]
 80032b8:	2301      	movs	r3, #1
 80032ba:	f884 3051 	strb.w	r3, [r4, #81]	@ 0x51
 80032be:	2300      	movs	r3, #0
 80032c0:	6d60      	ldr	r0, [r4, #84]	@ 0x54
 80032c2:	f884 3050 	strb.w	r3, [r4, #80]	@ 0x50
 80032c6:	1ac0      	subs	r0, r0, r3
 80032c8:	bf18      	it	ne
 80032ca:	2001      	movne	r0, #1
 80032cc:	e018      	b.n	8003300 <HAL_SPI_Transmit+0x10c>
 80032ce:	6822      	ldr	r2, [r4, #0]
 80032d0:	6893      	ldr	r3, [r2, #8]
 80032d2:	0798      	lsls	r0, r3, #30
 80032d4:	d505      	bpl.n	80032e2 <HAL_SPI_Transmit+0xee>
 80032d6:	6b23      	ldr	r3, [r4, #48]	@ 0x30
 80032d8:	f833 1b02 	ldrh.w	r1, [r3], #2
 80032dc:	60d1      	str	r1, [r2, #12]
 80032de:	6323      	str	r3, [r4, #48]	@ 0x30
 80032e0:	e7d3      	b.n	800328a <HAL_SPI_Transmit+0x96>
 80032e2:	f7fe fcdf 	bl	8001ca4 <HAL_GetTick>
 80032e6:	eba0 0009 	sub.w	r0, r0, r9
 80032ea:	42b8      	cmp	r0, r7
 80032ec:	d3d1      	bcc.n	8003292 <HAL_SPI_Transmit+0x9e>
 80032ee:	1c79      	adds	r1, r7, #1
 80032f0:	d0cf      	beq.n	8003292 <HAL_SPI_Transmit+0x9e>
 80032f2:	2301      	movs	r3, #1
 80032f4:	f884 3051 	strb.w	r3, [r4, #81]	@ 0x51
 80032f8:	2300      	movs	r3, #0
 80032fa:	2003      	movs	r0, #3
 80032fc:	f884 3050 	strb.w	r3, [r4, #80]	@ 0x50
 8003300:	b003      	add	sp, #12
 8003302:	e8bd 83f0 	ldmia.w	sp!, {r4, r5, r6, r7, r8, r9, pc}
 8003306:	b113      	cbz	r3, 800330e <HAL_SPI_Transmit+0x11a>
 8003308:	f1b8 0f01 	cmp.w	r8, #1
 800330c:	d108      	bne.n	8003320 <HAL_SPI_Transmit+0x12c>
 800330e:	782b      	ldrb	r3, [r5, #0]
 8003310:	7333      	strb	r3, [r6, #12]
 8003312:	6b23      	ldr	r3, [r4, #48]	@ 0x30
 8003314:	3301      	adds	r3, #1
 8003316:	6323      	str	r3, [r4, #48]	@ 0x30
 8003318:	8ee3      	ldrh	r3, [r4, #54]	@ 0x36
 800331a:	3b01      	subs	r3, #1
 800331c:	b29b      	uxth	r3, r3
 800331e:	86e3      	strh	r3, [r4, #54]	@ 0x36
 8003320:	8ee3      	ldrh	r3, [r4, #54]	@ 0x36
 8003322:	b29b      	uxth	r3, r3
 8003324:	2b00      	cmp	r3, #0
 8003326:	d0b7      	beq.n	8003298 <HAL_SPI_Transmit+0xa4>
 8003328:	6823      	ldr	r3, [r4, #0]
 800332a:	689a      	ldr	r2, [r3, #8]
 800332c:	0792      	lsls	r2, r2, #30
 800332e:	d503      	bpl.n	8003338 <HAL_SPI_Transmit+0x144>
 8003330:	6b22      	ldr	r2, [r4, #48]	@ 0x30
 8003332:	7812      	ldrb	r2, [r2, #0]
 8003334:	731a      	strb	r2, [r3, #12]
 8003336:	e7ec      	b.n	8003312 <HAL_SPI_Transmit+0x11e>
 8003338:	f7fe fcb4 	bl	8001ca4 <HAL_GetTick>
 800333c:	eba0 0009 	sub.w	r0, r0, r9
 8003340:	42b8      	cmp	r0, r7
 8003342:	d3ed      	bcc.n	8003320 <HAL_SPI_Transmit+0x12c>
 8003344:	1c7b      	adds	r3, r7, #1
 8003346:	d0eb      	beq.n	8003320 <HAL_SPI_Transmit+0x12c>
 8003348:	e7d3      	b.n	80032f2 <HAL_SPI_Transmit+0xfe>
 800334a:	2320      	movs	r3, #32
 800334c:	6563      	str	r3, [r4, #84]	@ 0x54
 800334e:	e7aa      	b.n	80032a6 <HAL_SPI_Transmit+0xb2>
 8003350:	2002      	movs	r0, #2
 8003352:	e7d5      	b.n	8003300 <HAL_SPI_Transmit+0x10c>

08003354 <HAL_SPI_TransmitReceive>:
 8003354:	e92d 43f7 	stmdb	sp!, {r0, r1, r2, r4, r5, r6, r7, r8, r9, lr}
 8003358:	4604      	mov	r4, r0
 800335a:	460d      	mov	r5, r1
 800335c:	4691      	mov	r9, r2
 800335e:	461e      	mov	r6, r3
 8003360:	f8dd 8028 	ldr.w	r8, [sp, #40]	@ 0x28
 8003364:	f7fe fc9e 	bl	8001ca4 <HAL_GetTick>
 8003368:	f894 3051 	ldrb.w	r3, [r4, #81]	@ 0x51
 800336c:	4607      	mov	r7, r0
 800336e:	2b01      	cmp	r3, #1
 8003370:	6862      	ldr	r2, [r4, #4]
 8003372:	b2d9      	uxtb	r1, r3
 8003374:	d00a      	beq.n	800338c <HAL_SPI_TransmitReceive+0x38>
 8003376:	f5b2 7f82 	cmp.w	r2, #260	@ 0x104
 800337a:	f040 80e5 	bne.w	8003548 <HAL_SPI_TransmitReceive+0x1f4>
 800337e:	68a3      	ldr	r3, [r4, #8]
 8003380:	2b00      	cmp	r3, #0
 8003382:	f040 80e1 	bne.w	8003548 <HAL_SPI_TransmitReceive+0x1f4>
 8003386:	2904      	cmp	r1, #4
 8003388:	f040 80de 	bne.w	8003548 <HAL_SPI_TransmitReceive+0x1f4>
 800338c:	2d00      	cmp	r5, #0
 800338e:	d04b      	beq.n	8003428 <HAL_SPI_TransmitReceive+0xd4>
 8003390:	f1b9 0f00 	cmp.w	r9, #0
 8003394:	d048      	beq.n	8003428 <HAL_SPI_TransmitReceive+0xd4>
 8003396:	2e00      	cmp	r6, #0
 8003398:	d046      	beq.n	8003428 <HAL_SPI_TransmitReceive+0xd4>
 800339a:	f894 3050 	ldrb.w	r3, [r4, #80]	@ 0x50
 800339e:	2b01      	cmp	r3, #1
 80033a0:	f000 80d2 	beq.w	8003548 <HAL_SPI_TransmitReceive+0x1f4>
 80033a4:	2301      	movs	r3, #1
 80033a6:	f884 3050 	strb.w	r3, [r4, #80]	@ 0x50
 80033aa:	f894 3051 	ldrb.w	r3, [r4, #81]	@ 0x51
 80033ae:	f8c4 9038 	str.w	r9, [r4, #56]	@ 0x38
 80033b2:	2b04      	cmp	r3, #4
 80033b4:	bf1c      	itt	ne
 80033b6:	2305      	movne	r3, #5
 80033b8:	f884 3051 	strbne.w	r3, [r4, #81]	@ 0x51
 80033bc:	2300      	movs	r3, #0
 80033be:	6563      	str	r3, [r4, #84]	@ 0x54
 80033c0:	e9c4 3310 	strd	r3, r3, [r4, #64]	@ 0x40
 80033c4:	6823      	ldr	r3, [r4, #0]
 80033c6:	87e6      	strh	r6, [r4, #62]	@ 0x3e
 80033c8:	86e6      	strh	r6, [r4, #54]	@ 0x36
 80033ca:	6819      	ldr	r1, [r3, #0]
 80033cc:	87a6      	strh	r6, [r4, #60]	@ 0x3c
 80033ce:	0649      	lsls	r1, r1, #25
 80033d0:	bf58      	it	pl
 80033d2:	6819      	ldrpl	r1, [r3, #0]
 80033d4:	6325      	str	r5, [r4, #48]	@ 0x30
 80033d6:	bf58      	it	pl
 80033d8:	f041 0140 	orrpl.w	r1, r1, #64	@ 0x40
 80033dc:	86a6      	strh	r6, [r4, #52]	@ 0x34
 80033de:	bf58      	it	pl
 80033e0:	6019      	strpl	r1, [r3, #0]
 80033e2:	68e1      	ldr	r1, [r4, #12]
 80033e4:	f5b1 6f00 	cmp.w	r1, #2048	@ 0x800
 80033e8:	d155      	bne.n	8003496 <HAL_SPI_TransmitReceive+0x142>
 80033ea:	b10a      	cbz	r2, 80033f0 <HAL_SPI_TransmitReceive+0x9c>
 80033ec:	2e01      	cmp	r6, #1
 80033ee:	d107      	bne.n	8003400 <HAL_SPI_TransmitReceive+0xac>
 80033f0:	f835 2b02 	ldrh.w	r2, [r5], #2
 80033f4:	60da      	str	r2, [r3, #12]
 80033f6:	8ee3      	ldrh	r3, [r4, #54]	@ 0x36
 80033f8:	6325      	str	r5, [r4, #48]	@ 0x30
 80033fa:	3b01      	subs	r3, #1
 80033fc:	b29b      	uxth	r3, r3
 80033fe:	86e3      	strh	r3, [r4, #54]	@ 0x36
 8003400:	2501      	movs	r5, #1
 8003402:	8ee3      	ldrh	r3, [r4, #54]	@ 0x36
 8003404:	b29b      	uxth	r3, r3
 8003406:	b98b      	cbnz	r3, 800342c <HAL_SPI_TransmitReceive+0xd8>
 8003408:	8fe3      	ldrh	r3, [r4, #62]	@ 0x3e
 800340a:	b29b      	uxth	r3, r3
 800340c:	b973      	cbnz	r3, 800342c <HAL_SPI_TransmitReceive+0xd8>
 800340e:	463a      	mov	r2, r7
 8003410:	4641      	mov	r1, r8
 8003412:	4620      	mov	r0, r4
 8003414:	f7ff fe7a 	bl	800310c <SPI_EndRxTxTransaction>
 8003418:	2800      	cmp	r0, #0
 800341a:	f000 8081 	beq.w	8003520 <HAL_SPI_TransmitReceive+0x1cc>
 800341e:	2320      	movs	r3, #32
 8003420:	6563      	str	r3, [r4, #84]	@ 0x54
 8003422:	2300      	movs	r3, #0
 8003424:	f884 3050 	strb.w	r3, [r4, #80]	@ 0x50
 8003428:	2001      	movs	r0, #1
 800342a:	e031      	b.n	8003490 <HAL_SPI_TransmitReceive+0x13c>
 800342c:	6821      	ldr	r1, [r4, #0]
 800342e:	688b      	ldr	r3, [r1, #8]
 8003430:	079a      	lsls	r2, r3, #30
 8003432:	d50d      	bpl.n	8003450 <HAL_SPI_TransmitReceive+0xfc>
 8003434:	8ee3      	ldrh	r3, [r4, #54]	@ 0x36
 8003436:	b29b      	uxth	r3, r3
 8003438:	b153      	cbz	r3, 8003450 <HAL_SPI_TransmitReceive+0xfc>
 800343a:	b145      	cbz	r5, 800344e <HAL_SPI_TransmitReceive+0xfa>
 800343c:	6b23      	ldr	r3, [r4, #48]	@ 0x30
 800343e:	f833 2b02 	ldrh.w	r2, [r3], #2
 8003442:	60ca      	str	r2, [r1, #12]
 8003444:	6323      	str	r3, [r4, #48]	@ 0x30
 8003446:	8ee3      	ldrh	r3, [r4, #54]	@ 0x36
 8003448:	3b01      	subs	r3, #1
 800344a:	b29b      	uxth	r3, r3
 800344c:	86e3      	strh	r3, [r4, #54]	@ 0x36
 800344e:	2500      	movs	r5, #0
 8003450:	688a      	ldr	r2, [r1, #8]
 8003452:	f012 0201 	ands.w	r2, r2, #1
 8003456:	d00c      	beq.n	8003472 <HAL_SPI_TransmitReceive+0x11e>
 8003458:	8fe3      	ldrh	r3, [r4, #62]	@ 0x3e
 800345a:	b29b      	uxth	r3, r3
 800345c:	b14b      	cbz	r3, 8003472 <HAL_SPI_TransmitReceive+0x11e>
 800345e:	4615      	mov	r5, r2
 8003460:	68c9      	ldr	r1, [r1, #12]
 8003462:	6ba3      	ldr	r3, [r4, #56]	@ 0x38
 8003464:	f823 1b02 	strh.w	r1, [r3], #2
 8003468:	63a3      	str	r3, [r4, #56]	@ 0x38
 800346a:	8fe3      	ldrh	r3, [r4, #62]	@ 0x3e
 800346c:	3b01      	subs	r3, #1
 800346e:	b29b      	uxth	r3, r3
 8003470:	87e3      	strh	r3, [r4, #62]	@ 0x3e
 8003472:	f7fe fc17 	bl	8001ca4 <HAL_GetTick>
 8003476:	1bc0      	subs	r0, r0, r7
 8003478:	4540      	cmp	r0, r8
 800347a:	d3c2      	bcc.n	8003402 <HAL_SPI_TransmitReceive+0xae>
 800347c:	f1b8 3fff 	cmp.w	r8, #4294967295
 8003480:	d0bf      	beq.n	8003402 <HAL_SPI_TransmitReceive+0xae>
 8003482:	2301      	movs	r3, #1
 8003484:	f884 3051 	strb.w	r3, [r4, #81]	@ 0x51
 8003488:	2300      	movs	r3, #0
 800348a:	2003      	movs	r0, #3
 800348c:	f884 3050 	strb.w	r3, [r4, #80]	@ 0x50
 8003490:	b003      	add	sp, #12
 8003492:	e8bd 83f0 	ldmia.w	sp!, {r4, r5, r6, r7, r8, r9, pc}
 8003496:	b10a      	cbz	r2, 800349c <HAL_SPI_TransmitReceive+0x148>
 8003498:	2e01      	cmp	r6, #1
 800349a:	d108      	bne.n	80034ae <HAL_SPI_TransmitReceive+0x15a>
 800349c:	782a      	ldrb	r2, [r5, #0]
 800349e:	731a      	strb	r2, [r3, #12]
 80034a0:	6b23      	ldr	r3, [r4, #48]	@ 0x30
 80034a2:	3301      	adds	r3, #1
 80034a4:	6323      	str	r3, [r4, #48]	@ 0x30
 80034a6:	8ee3      	ldrh	r3, [r4, #54]	@ 0x36
 80034a8:	3b01      	subs	r3, #1
 80034aa:	b29b      	uxth	r3, r3
 80034ac:	86e3      	strh	r3, [r4, #54]	@ 0x36
 80034ae:	2501      	movs	r5, #1
 80034b0:	e02d      	b.n	800350e <HAL_SPI_TransmitReceive+0x1ba>
 80034b2:	6822      	ldr	r2, [r4, #0]
 80034b4:	6893      	ldr	r3, [r2, #8]
 80034b6:	079b      	lsls	r3, r3, #30
 80034b8:	d50e      	bpl.n	80034d8 <HAL_SPI_TransmitReceive+0x184>
 80034ba:	8ee3      	ldrh	r3, [r4, #54]	@ 0x36
 80034bc:	b29b      	uxth	r3, r3
 80034be:	b15b      	cbz	r3, 80034d8 <HAL_SPI_TransmitReceive+0x184>
 80034c0:	b14d      	cbz	r5, 80034d6 <HAL_SPI_TransmitReceive+0x182>
 80034c2:	6b23      	ldr	r3, [r4, #48]	@ 0x30
 80034c4:	781b      	ldrb	r3, [r3, #0]
 80034c6:	7313      	strb	r3, [r2, #12]
 80034c8:	6b23      	ldr	r3, [r4, #48]	@ 0x30
 80034ca:	3301      	adds	r3, #1
 80034cc:	6323      	str	r3, [r4, #48]	@ 0x30
 80034ce:	8ee3      	ldrh	r3, [r4, #54]	@ 0x36
 80034d0:	3b01      	subs	r3, #1
 80034d2:	b29b      	uxth	r3, r3
 80034d4:	86e3      	strh	r3, [r4, #54]	@ 0x36
 80034d6:	2500      	movs	r5, #0
 80034d8:	6822      	ldr	r2, [r4, #0]
 80034da:	6891      	ldr	r1, [r2, #8]
 80034dc:	f011 0101 	ands.w	r1, r1, #1
 80034e0:	d00d      	beq.n	80034fe <HAL_SPI_TransmitReceive+0x1aa>
 80034e2:	8fe3      	ldrh	r3, [r4, #62]	@ 0x3e
 80034e4:	b29b      	uxth	r3, r3
 80034e6:	b153      	cbz	r3, 80034fe <HAL_SPI_TransmitReceive+0x1aa>
 80034e8:	460d      	mov	r5, r1
 80034ea:	68d2      	ldr	r2, [r2, #12]
 80034ec:	6ba3      	ldr	r3, [r4, #56]	@ 0x38
 80034ee:	701a      	strb	r2, [r3, #0]
 80034f0:	6ba3      	ldr	r3, [r4, #56]	@ 0x38
 80034f2:	3301      	adds	r3, #1
 80034f4:	63a3      	str	r3, [r4, #56]	@ 0x38
 80034f6:	8fe3      	ldrh	r3, [r4, #62]	@ 0x3e
 80034f8:	3b01      	subs	r3, #1
 80034fa:	b29b      	uxth	r3, r3
 80034fc:	87e3      	strh	r3, [r4, #62]	@ 0x3e
 80034fe:	f7fe fbd1 	bl	8001ca4 <HAL_GetTick>
 8003502:	1bc0      	subs	r0, r0, r7
 8003504:	4540      	cmp	r0, r8
 8003506:	d302      	bcc.n	800350e <HAL_SPI_TransmitReceive+0x1ba>
 8003508:	f1b8 3fff 	cmp.w	r8, #4294967295
 800350c:	d1b9      	bne.n	8003482 <HAL_SPI_TransmitReceive+0x12e>
 800350e:	8ee3      	ldrh	r3, [r4, #54]	@ 0x36
 8003510:	b29b      	uxth	r3, r3
 8003512:	2b00      	cmp	r3, #0
 8003514:	d1cd      	bne.n	80034b2 <HAL_SPI_TransmitReceive+0x15e>
 8003516:	8fe3      	ldrh	r3, [r4, #62]	@ 0x3e
 8003518:	b29b      	uxth	r3, r3
 800351a:	2b00      	cmp	r3, #0
 800351c:	d1c9      	bne.n	80034b2 <HAL_SPI_TransmitReceive+0x15e>
 800351e:	e776      	b.n	800340e <HAL_SPI_TransmitReceive+0xba>
 8003520:	68a3      	ldr	r3, [r4, #8]
 8003522:	b933      	cbnz	r3, 8003532 <HAL_SPI_TransmitReceive+0x1de>
 8003524:	9301      	str	r3, [sp, #4]
 8003526:	6823      	ldr	r3, [r4, #0]
 8003528:	68da      	ldr	r2, [r3, #12]
 800352a:	9201      	str	r2, [sp, #4]
 800352c:	689b      	ldr	r3, [r3, #8]
 800352e:	9301      	str	r3, [sp, #4]
 8003530:	9b01      	ldr	r3, [sp, #4]
 8003532:	2301      	movs	r3, #1
 8003534:	f884 3051 	strb.w	r3, [r4, #81]	@ 0x51
 8003538:	2300      	movs	r3, #0
 800353a:	6d60      	ldr	r0, [r4, #84]	@ 0x54
 800353c:	f884 3050 	strb.w	r3, [r4, #80]	@ 0x50
 8003540:	1ac0      	subs	r0, r0, r3
 8003542:	bf18      	it	ne
 8003544:	2001      	movne	r0, #1
 8003546:	e7a3      	b.n	8003490 <HAL_SPI_TransmitReceive+0x13c>
 8003548:	2002      	movs	r0, #2
 800354a:	e7a1      	b.n	8003490 <HAL_SPI_TransmitReceive+0x13c>

0800354c <UART_EndRxTransfer>:
 800354c:	6802      	ldr	r2, [r0, #0]
 800354e:	f102 030c 	add.w	r3, r2, #12
 8003552:	e853 3f00 	ldrex	r3, [r3]
 8003556:	f423 7390 	bic.w	r3, r3, #288	@ 0x120
 800355a:	320c      	adds	r2, #12
 800355c:	e842 3100 	strex	r1, r3, [r2]
 8003560:	6802      	ldr	r2, [r0, #0]
 8003562:	2900      	cmp	r1, #0
 8003564:	d1f2      	bne.n	800354c <UART_EndRxTransfer>
 8003566:	f102 0314 	add.w	r3, r2, #20
 800356a:	e853 3f00 	ldrex	r3, [r3]
 800356e:	f023 0301 	bic.w	r3, r3, #1
 8003572:	f102 0c14 	add.w	ip, r2, #20
 8003576:	e84c 3100 	strex	r1, r3, [ip]
 800357a:	2900      	cmp	r1, #0
 800357c:	d1f3      	bne.n	8003566 <UART_EndRxTransfer+0x1a>
 800357e:	6b03      	ldr	r3, [r0, #48]	@ 0x30
 8003580:	2b01      	cmp	r3, #1
 8003582:	d10b      	bne.n	800359c <UART_EndRxTransfer+0x50>
 8003584:	f102 030c 	add.w	r3, r2, #12
 8003588:	e853 3f00 	ldrex	r3, [r3]
 800358c:	f023 0310 	bic.w	r3, r3, #16
 8003590:	f102 0c0c 	add.w	ip, r2, #12
 8003594:	e84c 3100 	strex	r1, r3, [ip]
 8003598:	2900      	cmp	r1, #0
 800359a:	d1f3      	bne.n	8003584 <UART_EndRxTransfer+0x38>
 800359c:	2320      	movs	r3, #32
 800359e:	f880 3042 	strb.w	r3, [r0, #66]	@ 0x42
 80035a2:	2300      	movs	r3, #0
 80035a4:	6303      	str	r3, [r0, #48]	@ 0x30
 80035a6:	4770      	bx	lr

080035a8 <UART_SetConfig>:
 80035a8:	b510      	push	{r4, lr}
 80035aa:	4604      	mov	r4, r0
 80035ac:	6803      	ldr	r3, [r0, #0]
 80035ae:	68c1      	ldr	r1, [r0, #12]
 80035b0:	691a      	ldr	r2, [r3, #16]
 80035b2:	f422 5240 	bic.w	r2, r2, #12288	@ 0x3000
 80035b6:	430a      	orrs	r2, r1
 80035b8:	611a      	str	r2, [r3, #16]
 80035ba:	6882      	ldr	r2, [r0, #8]
 80035bc:	6900      	ldr	r0, [r0, #16]
 80035be:	68d9      	ldr	r1, [r3, #12]
 80035c0:	4302      	orrs	r2, r0
 80035c2:	6960      	ldr	r0, [r4, #20]
 80035c4:	f421 51b0 	bic.w	r1, r1, #5632	@ 0x1600
 80035c8:	f021 010c 	bic.w	r1, r1, #12
 80035cc:	4302      	orrs	r2, r0
 80035ce:	430a      	orrs	r2, r1
 80035d0:	60da      	str	r2, [r3, #12]
 80035d2:	695a      	ldr	r2, [r3, #20]
 80035d4:	69a1      	ldr	r1, [r4, #24]
 80035d6:	f422 7240 	bic.w	r2, r2, #768	@ 0x300
 80035da:	430a      	orrs	r2, r1
 80035dc:	615a      	str	r2, [r3, #20]
 80035de:	4a0e      	ldr	r2, [pc, #56]	@ (8003618 <UART_SetConfig+0x70>)
 80035e0:	4293      	cmp	r3, r2
 80035e2:	d115      	bne.n	8003610 <UART_SetConfig+0x68>
 80035e4:	f7ff fd26 	bl	8003034 <HAL_RCC_GetPCLK2Freq>
 80035e8:	2319      	movs	r3, #25
 80035ea:	4343      	muls	r3, r0
 80035ec:	6862      	ldr	r2, [r4, #4]
 80035ee:	6820      	ldr	r0, [r4, #0]
 80035f0:	0092      	lsls	r2, r2, #2
 80035f2:	fbb3 f3f2 	udiv	r3, r3, r2
 80035f6:	2264      	movs	r2, #100	@ 0x64
 80035f8:	fbb3 f1f2 	udiv	r1, r3, r2
 80035fc:	fb02 3311 	mls	r3, r2, r1, r3
 8003600:	011b      	lsls	r3, r3, #4
 8003602:	3332      	adds	r3, #50	@ 0x32
 8003604:	fbb3 f3f2 	udiv	r3, r3, r2
 8003608:	eb03 1301 	add.w	r3, r3, r1, lsl #4
 800360c:	6083      	str	r3, [r0, #8]
 800360e:	bd10      	pop	{r4, pc}
 8003610:	f7ff fd00 	bl	8003014 <HAL_RCC_GetPCLK1Freq>
 8003614:	e7e8      	b.n	80035e8 <UART_SetConfig+0x40>
 8003616:	bf00      	nop
 8003618:	40013800 	.word	0x40013800

0800361c <UART_WaitOnFlagUntilTimeout.constprop.0>:
 800361c:	b5f7      	push	{r0, r1, r2, r4, r5, r6, r7, lr}
 800361e:	4605      	mov	r5, r0
 8003620:	460c      	mov	r4, r1
 8003622:	4617      	mov	r7, r2
 8003624:	461e      	mov	r6, r3
 8003626:	682a      	ldr	r2, [r5, #0]
 8003628:	6813      	ldr	r3, [r2, #0]
 800362a:	ea34 0303 	bics.w	r3, r4, r3
 800362e:	d101      	bne.n	8003634 <UART_WaitOnFlagUntilTimeout.constprop.0+0x18>
 8003630:	2000      	movs	r0, #0
 8003632:	e021      	b.n	8003678 <UART_WaitOnFlagUntilTimeout.constprop.0+0x5c>
 8003634:	1c70      	adds	r0, r6, #1
 8003636:	d0f7      	beq.n	8003628 <UART_WaitOnFlagUntilTimeout.constprop.0+0xc>
 8003638:	f7fe fb34 	bl	8001ca4 <HAL_GetTick>
 800363c:	1bc0      	subs	r0, r0, r7
 800363e:	4286      	cmp	r6, r0
 8003640:	d31c      	bcc.n	800367c <UART_WaitOnFlagUntilTimeout.constprop.0+0x60>
 8003642:	b1de      	cbz	r6, 800367c <UART_WaitOnFlagUntilTimeout.constprop.0+0x60>
 8003644:	682b      	ldr	r3, [r5, #0]
 8003646:	68da      	ldr	r2, [r3, #12]
 8003648:	0751      	lsls	r1, r2, #29
 800364a:	d5ec      	bpl.n	8003626 <UART_WaitOnFlagUntilTimeout.constprop.0+0xa>
 800364c:	2c80      	cmp	r4, #128	@ 0x80
 800364e:	d0ea      	beq.n	8003626 <UART_WaitOnFlagUntilTimeout.constprop.0+0xa>
 8003650:	2c40      	cmp	r4, #64	@ 0x40
 8003652:	d0e8      	beq.n	8003626 <UART_WaitOnFlagUntilTimeout.constprop.0+0xa>
 8003654:	681a      	ldr	r2, [r3, #0]
 8003656:	0712      	lsls	r2, r2, #28
 8003658:	d5e5      	bpl.n	8003626 <UART_WaitOnFlagUntilTimeout.constprop.0+0xa>
 800365a:	2400      	movs	r4, #0
 800365c:	9401      	str	r4, [sp, #4]
 800365e:	681a      	ldr	r2, [r3, #0]
 8003660:	4628      	mov	r0, r5
 8003662:	9201      	str	r2, [sp, #4]
 8003664:	685b      	ldr	r3, [r3, #4]
 8003666:	9301      	str	r3, [sp, #4]
 8003668:	9b01      	ldr	r3, [sp, #4]
 800366a:	f7ff ff6f 	bl	800354c <UART_EndRxTransfer>
 800366e:	2308      	movs	r3, #8
 8003670:	2001      	movs	r0, #1
 8003672:	646b      	str	r3, [r5, #68]	@ 0x44
 8003674:	f885 4040 	strb.w	r4, [r5, #64]	@ 0x40
 8003678:	b003      	add	sp, #12
 800367a:	bdf0      	pop	{r4, r5, r6, r7, pc}
 800367c:	2003      	movs	r0, #3
 800367e:	e7fb      	b.n	8003678 <UART_WaitOnFlagUntilTimeout.constprop.0+0x5c>

08003680 <HAL_UART_Init>:
 8003680:	b510      	push	{r4, lr}
 8003682:	4604      	mov	r4, r0
 8003684:	b348      	cbz	r0, 80036da <HAL_UART_Init+0x5a>
 8003686:	f890 3041 	ldrb.w	r3, [r0, #65]	@ 0x41
 800368a:	f003 02ff 	and.w	r2, r3, #255	@ 0xff
 800368e:	b91b      	cbnz	r3, 8003698 <HAL_UART_Init+0x18>
 8003690:	f880 2040 	strb.w	r2, [r0, #64]	@ 0x40
 8003694:	f7fe fa08 	bl	8001aa8 <HAL_UART_MspInit>
 8003698:	2324      	movs	r3, #36	@ 0x24
 800369a:	6822      	ldr	r2, [r4, #0]
 800369c:	f884 3041 	strb.w	r3, [r4, #65]	@ 0x41
 80036a0:	68d3      	ldr	r3, [r2, #12]
 80036a2:	4620      	mov	r0, r4
 80036a4:	f423 5300 	bic.w	r3, r3, #8192	@ 0x2000
 80036a8:	60d3      	str	r3, [r2, #12]
 80036aa:	f7ff ff7d 	bl	80035a8 <UART_SetConfig>
 80036ae:	6823      	ldr	r3, [r4, #0]
 80036b0:	2000      	movs	r0, #0
 80036b2:	691a      	ldr	r2, [r3, #16]
 80036b4:	f422 4290 	bic.w	r2, r2, #18432	@ 0x4800
 80036b8:	611a      	str	r2, [r3, #16]
 80036ba:	695a      	ldr	r2, [r3, #20]
 80036bc:	f022 022a 	bic.w	r2, r2, #42	@ 0x2a
 80036c0:	615a      	str	r2, [r3, #20]
 80036c2:	68da      	ldr	r2, [r3, #12]
 80036c4:	f442 5200 	orr.w	r2, r2, #8192	@ 0x2000
 80036c8:	60da      	str	r2, [r3, #12]
 80036ca:	2320      	movs	r3, #32
 80036cc:	6460      	str	r0, [r4, #68]	@ 0x44
 80036ce:	f884 3041 	strb.w	r3, [r4, #65]	@ 0x41
 80036d2:	f884 3042 	strb.w	r3, [r4, #66]	@ 0x42
 80036d6:	6360      	str	r0, [r4, #52]	@ 0x34
 80036d8:	bd10      	pop	{r4, pc}
 80036da:	2001      	movs	r0, #1
 80036dc:	e7fc      	b.n	80036d8 <HAL_UART_Init+0x58>

080036de <HAL_UART_Transmit>:
 80036de:	e92d 43f8 	stmdb	sp!, {r3, r4, r5, r6, r7, r8, r9, lr}
 80036e2:	4698      	mov	r8, r3
 80036e4:	f890 3041 	ldrb.w	r3, [r0, #65]	@ 0x41
 80036e8:	4604      	mov	r4, r0
 80036ea:	2b20      	cmp	r3, #32
 80036ec:	460e      	mov	r6, r1
 80036ee:	4617      	mov	r7, r2
 80036f0:	d13f      	bne.n	8003772 <HAL_UART_Transmit+0x94>
 80036f2:	2900      	cmp	r1, #0
 80036f4:	d03f      	beq.n	8003776 <HAL_UART_Transmit+0x98>
 80036f6:	2a00      	cmp	r2, #0
 80036f8:	d03d      	beq.n	8003776 <HAL_UART_Transmit+0x98>
 80036fa:	2321      	movs	r3, #33	@ 0x21
 80036fc:	2500      	movs	r5, #0
 80036fe:	6445      	str	r5, [r0, #68]	@ 0x44
 8003700:	f880 3041 	strb.w	r3, [r0, #65]	@ 0x41
 8003704:	f7fe face 	bl	8001ca4 <HAL_GetTick>
 8003708:	68a3      	ldr	r3, [r4, #8]
 800370a:	4681      	mov	r9, r0
 800370c:	f5b3 5f80 	cmp.w	r3, #4096	@ 0x1000
 8003710:	84a7      	strh	r7, [r4, #36]	@ 0x24
 8003712:	84e7      	strh	r7, [r4, #38]	@ 0x26
 8003714:	d103      	bne.n	800371e <HAL_UART_Transmit+0x40>
 8003716:	6923      	ldr	r3, [r4, #16]
 8003718:	b90b      	cbnz	r3, 800371e <HAL_UART_Transmit+0x40>
 800371a:	4635      	mov	r5, r6
 800371c:	461e      	mov	r6, r3
 800371e:	8ce3      	ldrh	r3, [r4, #38]	@ 0x26
 8003720:	b29b      	uxth	r3, r3
 8003722:	b953      	cbnz	r3, 800373a <HAL_UART_Transmit+0x5c>
 8003724:	4643      	mov	r3, r8
 8003726:	464a      	mov	r2, r9
 8003728:	2140      	movs	r1, #64	@ 0x40
 800372a:	4620      	mov	r0, r4
 800372c:	f7ff ff76 	bl	800361c <UART_WaitOnFlagUntilTimeout.constprop.0>
 8003730:	2320      	movs	r3, #32
 8003732:	b950      	cbnz	r0, 800374a <HAL_UART_Transmit+0x6c>
 8003734:	f884 3041 	strb.w	r3, [r4, #65]	@ 0x41
 8003738:	e00a      	b.n	8003750 <HAL_UART_Transmit+0x72>
 800373a:	4643      	mov	r3, r8
 800373c:	464a      	mov	r2, r9
 800373e:	2180      	movs	r1, #128	@ 0x80
 8003740:	4620      	mov	r0, r4
 8003742:	f7ff ff6b 	bl	800361c <UART_WaitOnFlagUntilTimeout.constprop.0>
 8003746:	b128      	cbz	r0, 8003754 <HAL_UART_Transmit+0x76>
 8003748:	2320      	movs	r3, #32
 800374a:	2003      	movs	r0, #3
 800374c:	f884 3041 	strb.w	r3, [r4, #65]	@ 0x41
 8003750:	e8bd 83f8 	ldmia.w	sp!, {r3, r4, r5, r6, r7, r8, r9, pc}
 8003754:	6822      	ldr	r2, [r4, #0]
 8003756:	b94e      	cbnz	r6, 800376c <HAL_UART_Transmit+0x8e>
 8003758:	f835 3b02 	ldrh.w	r3, [r5], #2
 800375c:	f3c3 0308 	ubfx	r3, r3, #0, #9
 8003760:	6053      	str	r3, [r2, #4]
 8003762:	8ce1      	ldrh	r1, [r4, #38]	@ 0x26
 8003764:	3901      	subs	r1, #1
 8003766:	b289      	uxth	r1, r1
 8003768:	84e1      	strh	r1, [r4, #38]	@ 0x26
 800376a:	e7d8      	b.n	800371e <HAL_UART_Transmit+0x40>
 800376c:	f816 3b01 	ldrb.w	r3, [r6], #1
 8003770:	e7f6      	b.n	8003760 <HAL_UART_Transmit+0x82>
 8003772:	2002      	movs	r0, #2
 8003774:	e7ec      	b.n	8003750 <HAL_UART_Transmit+0x72>
 8003776:	2001      	movs	r0, #1
 8003778:	e7ea      	b.n	8003750 <HAL_UART_Transmit+0x72>
	...

0800377c <MX_FATFS_Init>:
 800377c:	b508      	push	{r3, lr}
 800377e:	4903      	ldr	r1, [pc, #12]	@ (800378c <MX_FATFS_Init+0x10>)
 8003780:	4803      	ldr	r0, [pc, #12]	@ (8003790 <MX_FATFS_Init+0x14>)
 8003782:	f001 fc9b 	bl	80050bc <FATFS_LinkDriver>
 8003786:	4b03      	ldr	r3, [pc, #12]	@ (8003794 <MX_FATFS_Init+0x18>)
 8003788:	7018      	strb	r0, [r3, #0]
 800378a:	bd08      	pop	{r3, pc}
 800378c:	20002230 	.word	0x20002230
 8003790:	20000010 	.word	0x20000010
 8003794:	20002234 	.word	0x20002234

08003798 <get_fattime>:
 8003798:	2000      	movs	r0, #0
 800379a:	4770      	bx	lr

0800379c <USER_initialize>:
 800379c:	b508      	push	{r3, lr}
 800379e:	f7fd fcd7 	bl	8001150 <SD_disk_initialize>
 80037a2:	b2c0      	uxtb	r0, r0
 80037a4:	bd08      	pop	{r3, pc}

080037a6 <USER_status>:
 80037a6:	b508      	push	{r3, lr}
 80037a8:	f7fd fd7e 	bl	80012a8 <SD_disk_status>
 80037ac:	b2c0      	uxtb	r0, r0
 80037ae:	bd08      	pop	{r3, pc}

080037b0 <USER_read>:
 80037b0:	b508      	push	{r3, lr}
 80037b2:	f7fd fd83 	bl	80012bc <SD_disk_read>
 80037b6:	b2c0      	uxtb	r0, r0
 80037b8:	bd08      	pop	{r3, pc}

080037ba <USER_write>:
 80037ba:	b508      	push	{r3, lr}
 80037bc:	f7fd fdc4 	bl	8001348 <SD_disk_write>
 80037c0:	b2c0      	uxtb	r0, r0
 80037c2:	bd08      	pop	{r3, pc}

080037c4 <USER_ioctl>:
 80037c4:	b508      	push	{r3, lr}
 80037c6:	f7fd fe17 	bl	80013f8 <SD_disk_ioctl>
 80037ca:	b2c0      	uxtb	r0, r0
 80037cc:	bd08      	pop	{r3, pc}
	...

080037d0 <disk_status>:
 80037d0:	4b03      	ldr	r3, [pc, #12]	@ (80037e0 <disk_status+0x10>)
 80037d2:	181a      	adds	r2, r3, r0
 80037d4:	eb03 0380 	add.w	r3, r3, r0, lsl #2
 80037d8:	685b      	ldr	r3, [r3, #4]
 80037da:	7a10      	ldrb	r0, [r2, #8]
 80037dc:	685b      	ldr	r3, [r3, #4]
 80037de:	4718      	bx	r3
 80037e0:	20002458 	.word	0x20002458

080037e4 <disk_initialize>:
 80037e4:	4b06      	ldr	r3, [pc, #24]	@ (8003800 <disk_initialize+0x1c>)
 80037e6:	5c1a      	ldrb	r2, [r3, r0]
 80037e8:	b942      	cbnz	r2, 80037fc <disk_initialize+0x18>
 80037ea:	2201      	movs	r2, #1
 80037ec:	541a      	strb	r2, [r3, r0]
 80037ee:	181a      	adds	r2, r3, r0
 80037f0:	eb03 0380 	add.w	r3, r3, r0, lsl #2
 80037f4:	685b      	ldr	r3, [r3, #4]
 80037f6:	7a10      	ldrb	r0, [r2, #8]
 80037f8:	681b      	ldr	r3, [r3, #0]
 80037fa:	4718      	bx	r3
 80037fc:	2000      	movs	r0, #0
 80037fe:	4770      	bx	lr
 8003800:	20002458 	.word	0x20002458

08003804 <disk_read>:
 8003804:	b430      	push	{r4, r5}
 8003806:	4c05      	ldr	r4, [pc, #20]	@ (800381c <disk_read+0x18>)
 8003808:	1825      	adds	r5, r4, r0
 800380a:	eb04 0480 	add.w	r4, r4, r0, lsl #2
 800380e:	6860      	ldr	r0, [r4, #4]
 8003810:	6884      	ldr	r4, [r0, #8]
 8003812:	7a28      	ldrb	r0, [r5, #8]
 8003814:	46a4      	mov	ip, r4
 8003816:	bc30      	pop	{r4, r5}
 8003818:	4760      	bx	ip
 800381a:	bf00      	nop
 800381c:	20002458 	.word	0x20002458

08003820 <disk_write>:
 8003820:	b430      	push	{r4, r5}
 8003822:	4c05      	ldr	r4, [pc, #20]	@ (8003838 <disk_write+0x18>)
 8003824:	1825      	adds	r5, r4, r0
 8003826:	eb04 0480 	add.w	r4, r4, r0, lsl #2
 800382a:	6860      	ldr	r0, [r4, #4]
 800382c:	68c4      	ldr	r4, [r0, #12]
 800382e:	7a28      	ldrb	r0, [r5, #8]
 8003830:	46a4      	mov	ip, r4
 8003832:	bc30      	pop	{r4, r5}
 8003834:	4760      	bx	ip
 8003836:	bf00      	nop
 8003838:	20002458 	.word	0x20002458

0800383c <disk_ioctl>:
 800383c:	b410      	push	{r4}
 800383e:	4b04      	ldr	r3, [pc, #16]	@ (8003850 <disk_ioctl+0x14>)
 8003840:	181c      	adds	r4, r3, r0
 8003842:	eb03 0380 	add.w	r3, r3, r0, lsl #2
 8003846:	685b      	ldr	r3, [r3, #4]
 8003848:	7a20      	ldrb	r0, [r4, #8]
 800384a:	691b      	ldr	r3, [r3, #16]
 800384c:	bc10      	pop	{r4}
 800384e:	4718      	bx	r3
 8003850:	20002458 	.word	0x20002458

08003854 <mem_cpy>:
 8003854:	3801      	subs	r0, #1
 8003856:	440a      	add	r2, r1
 8003858:	4291      	cmp	r1, r2
 800385a:	d100      	bne.n	800385e <mem_cpy+0xa>
 800385c:	4770      	bx	lr
 800385e:	f811 3b01 	ldrb.w	r3, [r1], #1
 8003862:	f800 3f01 	strb.w	r3, [r0, #1]!
 8003866:	e7f7      	b.n	8003858 <mem_cpy+0x4>

08003868 <mem_set>:
 8003868:	4402      	add	r2, r0
 800386a:	4290      	cmp	r0, r2
 800386c:	d100      	bne.n	8003870 <mem_set+0x8>
 800386e:	4770      	bx	lr
 8003870:	f800 1b01 	strb.w	r1, [r0], #1
 8003874:	e7f9      	b.n	800386a <mem_set+0x2>
	...

08003878 <chk_lock>:
 8003878:	4b1d      	ldr	r3, [pc, #116]	@ (80038f0 <chk_lock+0x78>)
 800387a:	b530      	push	{r4, r5, lr}
 800387c:	681c      	ldr	r4, [r3, #0]
 800387e:	4602      	mov	r2, r0
 8003880:	b174      	cbz	r4, 80038a0 <chk_lock+0x28>
 8003882:	f500 5080 	add.w	r0, r0, #4096	@ 0x1000
 8003886:	6805      	ldr	r5, [r0, #0]
 8003888:	42ac      	cmp	r4, r5
 800388a:	d107      	bne.n	800389c <chk_lock+0x24>
 800388c:	685d      	ldr	r5, [r3, #4]
 800388e:	6884      	ldr	r4, [r0, #8]
 8003890:	42a5      	cmp	r5, r4
 8003892:	d103      	bne.n	800389c <chk_lock+0x24>
 8003894:	891c      	ldrh	r4, [r3, #8]
 8003896:	88c0      	ldrh	r0, [r0, #6]
 8003898:	4284      	cmp	r4, r0
 800389a:	d014      	beq.n	80038c6 <chk_lock+0x4e>
 800389c:	2400      	movs	r4, #0
 800389e:	e000      	b.n	80038a2 <chk_lock+0x2a>
 80038a0:	2401      	movs	r4, #1
 80038a2:	68d8      	ldr	r0, [r3, #12]
 80038a4:	b1c8      	cbz	r0, 80038da <chk_lock+0x62>
 80038a6:	f502 5280 	add.w	r2, r2, #4096	@ 0x1000
 80038aa:	6815      	ldr	r5, [r2, #0]
 80038ac:	42a8      	cmp	r0, r5
 80038ae:	d107      	bne.n	80038c0 <chk_lock+0x48>
 80038b0:	691d      	ldr	r5, [r3, #16]
 80038b2:	6890      	ldr	r0, [r2, #8]
 80038b4:	4285      	cmp	r5, r0
 80038b6:	d103      	bne.n	80038c0 <chk_lock+0x48>
 80038b8:	8a98      	ldrh	r0, [r3, #20]
 80038ba:	88d2      	ldrh	r2, [r2, #6]
 80038bc:	4290      	cmp	r0, r2
 80038be:	d006      	beq.n	80038ce <chk_lock+0x56>
 80038c0:	b13c      	cbz	r4, 80038d2 <chk_lock+0x5a>
 80038c2:	2000      	movs	r0, #0
 80038c4:	e009      	b.n	80038da <chk_lock+0x62>
 80038c6:	2200      	movs	r2, #0
 80038c8:	b141      	cbz	r1, 80038dc <chk_lock+0x64>
 80038ca:	2010      	movs	r0, #16
 80038cc:	e005      	b.n	80038da <chk_lock+0x62>
 80038ce:	2201      	movs	r2, #1
 80038d0:	e7fa      	b.n	80038c8 <chk_lock+0x50>
 80038d2:	2902      	cmp	r1, #2
 80038d4:	bf0c      	ite	eq
 80038d6:	2000      	moveq	r0, #0
 80038d8:	2012      	movne	r0, #18
 80038da:	bd30      	pop	{r4, r5, pc}
 80038dc:	210c      	movs	r1, #12
 80038de:	fb01 3302 	mla	r3, r1, r2, r3
 80038e2:	8958      	ldrh	r0, [r3, #10]
 80038e4:	f5a0 7380 	sub.w	r3, r0, #256	@ 0x100
 80038e8:	4258      	negs	r0, r3
 80038ea:	4158      	adcs	r0, r3
 80038ec:	0100      	lsls	r0, r0, #4
 80038ee:	e7f4      	b.n	80038da <chk_lock+0x62>
 80038f0:	20002438 	.word	0x20002438

080038f4 <inc_lock>:
 80038f4:	4b22      	ldr	r3, [pc, #136]	@ (8003980 <inc_lock+0x8c>)
 80038f6:	f500 5280 	add.w	r2, r0, #4096	@ 0x1000
 80038fa:	b5f0      	push	{r4, r5, r6, r7, lr}
 80038fc:	6818      	ldr	r0, [r3, #0]
 80038fe:	6816      	ldr	r6, [r2, #0]
 8003900:	4286      	cmp	r6, r0
 8003902:	d107      	bne.n	8003914 <inc_lock+0x20>
 8003904:	685d      	ldr	r5, [r3, #4]
 8003906:	6894      	ldr	r4, [r2, #8]
 8003908:	42a5      	cmp	r5, r4
 800390a:	d103      	bne.n	8003914 <inc_lock+0x20>
 800390c:	891d      	ldrh	r5, [r3, #8]
 800390e:	88d4      	ldrh	r4, [r2, #6]
 8003910:	42a5      	cmp	r5, r4
 8003912:	d01c      	beq.n	800394e <inc_lock+0x5a>
 8003914:	68dc      	ldr	r4, [r3, #12]
 8003916:	42b4      	cmp	r4, r6
 8003918:	d11b      	bne.n	8003952 <inc_lock+0x5e>
 800391a:	691f      	ldr	r7, [r3, #16]
 800391c:	6895      	ldr	r5, [r2, #8]
 800391e:	42af      	cmp	r7, r5
 8003920:	d117      	bne.n	8003952 <inc_lock+0x5e>
 8003922:	8a9f      	ldrh	r7, [r3, #20]
 8003924:	88d5      	ldrh	r5, [r2, #6]
 8003926:	42af      	cmp	r7, r5
 8003928:	d113      	bne.n	8003952 <inc_lock+0x5e>
 800392a:	2001      	movs	r0, #1
 800392c:	220c      	movs	r2, #12
 800392e:	fb02 3200 	mla	r2, r2, r0, r3
 8003932:	8952      	ldrh	r2, [r2, #10]
 8003934:	b9f9      	cbnz	r1, 8003976 <inc_lock+0x82>
 8003936:	220c      	movs	r2, #12
 8003938:	fb02 3200 	mla	r2, r2, r0, r3
 800393c:	8952      	ldrh	r2, [r2, #10]
 800393e:	3201      	adds	r2, #1
 8003940:	b292      	uxth	r2, r2
 8003942:	210c      	movs	r1, #12
 8003944:	fb01 3300 	mla	r3, r1, r0, r3
 8003948:	3001      	adds	r0, #1
 800394a:	815a      	strh	r2, [r3, #10]
 800394c:	bdf0      	pop	{r4, r5, r6, r7, pc}
 800394e:	2000      	movs	r0, #0
 8003950:	e7ec      	b.n	800392c <inc_lock+0x38>
 8003952:	b108      	cbz	r0, 8003958 <inc_lock+0x64>
 8003954:	b98c      	cbnz	r4, 800397a <inc_lock+0x86>
 8003956:	2001      	movs	r0, #1
 8003958:	240c      	movs	r4, #12
 800395a:	4344      	muls	r4, r0
 800395c:	191d      	adds	r5, r3, r4
 800395e:	511e      	str	r6, [r3, r4]
 8003960:	6894      	ldr	r4, [r2, #8]
 8003962:	88d2      	ldrh	r2, [r2, #6]
 8003964:	606c      	str	r4, [r5, #4]
 8003966:	812a      	strh	r2, [r5, #8]
 8003968:	2200      	movs	r2, #0
 800396a:	816a      	strh	r2, [r5, #10]
 800396c:	2900      	cmp	r1, #0
 800396e:	d0e2      	beq.n	8003936 <inc_lock+0x42>
 8003970:	f44f 7280 	mov.w	r2, #256	@ 0x100
 8003974:	e7e5      	b.n	8003942 <inc_lock+0x4e>
 8003976:	2a00      	cmp	r2, #0
 8003978:	d0fa      	beq.n	8003970 <inc_lock+0x7c>
 800397a:	2000      	movs	r0, #0
 800397c:	e7e6      	b.n	800394c <inc_lock+0x58>
 800397e:	bf00      	nop
 8003980:	20002438 	.word	0x20002438

08003984 <dec_lock>:
 8003984:	3801      	subs	r0, #1
 8003986:	2801      	cmp	r0, #1
 8003988:	d817      	bhi.n	80039ba <dec_lock+0x36>
 800398a:	220c      	movs	r2, #12
 800398c:	490c      	ldr	r1, [pc, #48]	@ (80039c0 <dec_lock+0x3c>)
 800398e:	fb02 1200 	mla	r2, r2, r0, r1
 8003992:	8953      	ldrh	r3, [r2, #10]
 8003994:	f5b3 7f80 	cmp.w	r3, #256	@ 0x100
 8003998:	d106      	bne.n	80039a8 <dec_lock+0x24>
 800399a:	2300      	movs	r3, #0
 800399c:	8153      	strh	r3, [r2, #10]
 800399e:	230c      	movs	r3, #12
 80039a0:	4358      	muls	r0, r3
 80039a2:	2300      	movs	r3, #0
 80039a4:	500b      	str	r3, [r1, r0]
 80039a6:	e006      	b.n	80039b6 <dec_lock+0x32>
 80039a8:	2b00      	cmp	r3, #0
 80039aa:	d0f8      	beq.n	800399e <dec_lock+0x1a>
 80039ac:	3b01      	subs	r3, #1
 80039ae:	b29b      	uxth	r3, r3
 80039b0:	8153      	strh	r3, [r2, #10]
 80039b2:	2b00      	cmp	r3, #0
 80039b4:	d0f3      	beq.n	800399e <dec_lock+0x1a>
 80039b6:	2000      	movs	r0, #0
 80039b8:	4770      	bx	lr
 80039ba:	2002      	movs	r0, #2
 80039bc:	4770      	bx	lr
 80039be:	bf00      	nop
 80039c0:	20002438 	.word	0x20002438

080039c4 <clear_lock>:
 80039c4:	4b05      	ldr	r3, [pc, #20]	@ (80039dc <clear_lock+0x18>)
 80039c6:	681a      	ldr	r2, [r3, #0]
 80039c8:	4290      	cmp	r0, r2
 80039ca:	bf04      	itt	eq
 80039cc:	2200      	moveq	r2, #0
 80039ce:	601a      	streq	r2, [r3, #0]
 80039d0:	68da      	ldr	r2, [r3, #12]
 80039d2:	4290      	cmp	r0, r2
 80039d4:	bf04      	itt	eq
 80039d6:	2200      	moveq	r2, #0
 80039d8:	60da      	streq	r2, [r3, #12]
 80039da:	4770      	bx	lr
 80039dc:	20002438 	.word	0x20002438

080039e0 <clmt_clust>:
 80039e0:	f500 5080 	add.w	r0, r0, #4096	@ 0x1000
 80039e4:	6802      	ldr	r2, [r0, #0]
 80039e6:	6a43      	ldr	r3, [r0, #36]	@ 0x24
 80039e8:	f502 5280 	add.w	r2, r2, #4096	@ 0x1000
 80039ec:	8950      	ldrh	r0, [r2, #10]
 80039ee:	7892      	ldrb	r2, [r2, #2]
 80039f0:	fbb1 f1f0 	udiv	r1, r1, r0
 80039f4:	fbb1 f1f2 	udiv	r1, r1, r2
 80039f8:	3304      	adds	r3, #4
 80039fa:	6818      	ldr	r0, [r3, #0]
 80039fc:	b130      	cbz	r0, 8003a0c <clmt_clust+0x2c>
 80039fe:	4281      	cmp	r1, r0
 8003a00:	d302      	bcc.n	8003a08 <clmt_clust+0x28>
 8003a02:	1a09      	subs	r1, r1, r0
 8003a04:	3308      	adds	r3, #8
 8003a06:	e7f8      	b.n	80039fa <clmt_clust+0x1a>
 8003a08:	6858      	ldr	r0, [r3, #4]
 8003a0a:	4408      	add	r0, r1
 8003a0c:	4770      	bx	lr

08003a0e <sum_sfn>:
 8003a0e:	4603      	mov	r3, r0
 8003a10:	f100 010b 	add.w	r1, r0, #11
 8003a14:	2000      	movs	r0, #0
 8003a16:	01c2      	lsls	r2, r0, #7
 8003a18:	ea42 0250 	orr.w	r2, r2, r0, lsr #1
 8003a1c:	f813 0b01 	ldrb.w	r0, [r3], #1
 8003a20:	4402      	add	r2, r0
 8003a22:	428b      	cmp	r3, r1
 8003a24:	f002 00ff 	and.w	r0, r2, #255	@ 0xff
 8003a28:	d1f5      	bne.n	8003a16 <sum_sfn+0x8>
 8003a2a:	4770      	bx	lr

08003a2c <get_ldnumber>:
 8003a2c:	6803      	ldr	r3, [r0, #0]
 8003a2e:	b510      	push	{r4, lr}
 8003a30:	b18b      	cbz	r3, 8003a56 <get_ldnumber+0x2a>
 8003a32:	4619      	mov	r1, r3
 8003a34:	460a      	mov	r2, r1
 8003a36:	f811 4b01 	ldrb.w	r4, [r1], #1
 8003a3a:	2c1f      	cmp	r4, #31
 8003a3c:	d909      	bls.n	8003a52 <get_ldnumber+0x26>
 8003a3e:	2c3a      	cmp	r4, #58	@ 0x3a
 8003a40:	d1f8      	bne.n	8003a34 <get_ldnumber+0x8>
 8003a42:	7819      	ldrb	r1, [r3, #0]
 8003a44:	2930      	cmp	r1, #48	@ 0x30
 8003a46:	d106      	bne.n	8003a56 <get_ldnumber+0x2a>
 8003a48:	3301      	adds	r3, #1
 8003a4a:	429a      	cmp	r2, r3
 8003a4c:	d103      	bne.n	8003a56 <get_ldnumber+0x2a>
 8003a4e:	3201      	adds	r2, #1
 8003a50:	6002      	str	r2, [r0, #0]
 8003a52:	2000      	movs	r0, #0
 8003a54:	bd10      	pop	{r4, pc}
 8003a56:	f04f 30ff 	mov.w	r0, #4294967295
 8003a5a:	e7fb      	b.n	8003a54 <get_ldnumber+0x28>

08003a5c <sync_window>:
 8003a5c:	b5f8      	push	{r3, r4, r5, r6, r7, lr}
 8003a5e:	f500 5480 	add.w	r4, r0, #4096	@ 0x1000
 8003a62:	7923      	ldrb	r3, [r4, #4]
 8003a64:	4606      	mov	r6, r0
 8003a66:	b90b      	cbnz	r3, 8003a6c <sync_window+0x10>
 8003a68:	2000      	movs	r0, #0
 8003a6a:	bdf8      	pop	{r3, r4, r5, r6, r7, pc}
 8003a6c:	6ae5      	ldr	r5, [r4, #44]	@ 0x2c
 8003a6e:	4601      	mov	r1, r0
 8003a70:	2301      	movs	r3, #1
 8003a72:	462a      	mov	r2, r5
 8003a74:	7860      	ldrb	r0, [r4, #1]
 8003a76:	f7ff fed3 	bl	8003820 <disk_write>
 8003a7a:	b990      	cbnz	r0, 8003aa2 <sync_window+0x46>
 8003a7c:	6a23      	ldr	r3, [r4, #32]
 8003a7e:	69a2      	ldr	r2, [r4, #24]
 8003a80:	1aeb      	subs	r3, r5, r3
 8003a82:	4293      	cmp	r3, r2
 8003a84:	7120      	strb	r0, [r4, #4]
 8003a86:	d2ef      	bcs.n	8003a68 <sync_window+0xc>
 8003a88:	78e7      	ldrb	r7, [r4, #3]
 8003a8a:	2f01      	cmp	r7, #1
 8003a8c:	d9ec      	bls.n	8003a68 <sync_window+0xc>
 8003a8e:	69a3      	ldr	r3, [r4, #24]
 8003a90:	4631      	mov	r1, r6
 8003a92:	441d      	add	r5, r3
 8003a94:	462a      	mov	r2, r5
 8003a96:	2301      	movs	r3, #1
 8003a98:	7860      	ldrb	r0, [r4, #1]
 8003a9a:	f7ff fec1 	bl	8003820 <disk_write>
 8003a9e:	3f01      	subs	r7, #1
 8003aa0:	e7f3      	b.n	8003a8a <sync_window+0x2e>
 8003aa2:	2001      	movs	r0, #1
 8003aa4:	e7e1      	b.n	8003a6a <sync_window+0xe>

08003aa6 <validate>:
 8003aa6:	b508      	push	{r3, lr}
 8003aa8:	b188      	cbz	r0, 8003ace <validate+0x28>
 8003aaa:	f500 5080 	add.w	r0, r0, #4096	@ 0x1000
 8003aae:	6803      	ldr	r3, [r0, #0]
 8003ab0:	b16b      	cbz	r3, 8003ace <validate+0x28>
 8003ab2:	f503 5380 	add.w	r3, r3, #4096	@ 0x1000
 8003ab6:	781a      	ldrb	r2, [r3, #0]
 8003ab8:	b14a      	cbz	r2, 8003ace <validate+0x28>
 8003aba:	88d9      	ldrh	r1, [r3, #6]
 8003abc:	8882      	ldrh	r2, [r0, #4]
 8003abe:	4291      	cmp	r1, r2
 8003ac0:	d105      	bne.n	8003ace <validate+0x28>
 8003ac2:	7858      	ldrb	r0, [r3, #1]
 8003ac4:	f7ff fe84 	bl	80037d0 <disk_status>
 8003ac8:	f010 0001 	ands.w	r0, r0, #1
 8003acc:	d000      	beq.n	8003ad0 <validate+0x2a>
 8003ace:	2009      	movs	r0, #9
 8003ad0:	bd08      	pop	{r3, pc}

08003ad2 <move_window>:
 8003ad2:	b570      	push	{r4, r5, r6, lr}
 8003ad4:	f500 5680 	add.w	r6, r0, #4096	@ 0x1000
 8003ad8:	6af3      	ldr	r3, [r6, #44]	@ 0x2c
 8003ada:	4605      	mov	r5, r0
 8003adc:	428b      	cmp	r3, r1
 8003ade:	460c      	mov	r4, r1
 8003ae0:	d00f      	beq.n	8003b02 <move_window+0x30>
 8003ae2:	f7ff ffbb 	bl	8003a5c <sync_window>
 8003ae6:	b958      	cbnz	r0, 8003b00 <move_window+0x2e>
 8003ae8:	4622      	mov	r2, r4
 8003aea:	2301      	movs	r3, #1
 8003aec:	4629      	mov	r1, r5
 8003aee:	7870      	ldrb	r0, [r6, #1]
 8003af0:	f7ff fe88 	bl	8003804 <disk_read>
 8003af4:	2800      	cmp	r0, #0
 8003af6:	bf1c      	itt	ne
 8003af8:	f04f 34ff 	movne.w	r4, #4294967295
 8003afc:	2001      	movne	r0, #1
 8003afe:	62f4      	str	r4, [r6, #44]	@ 0x2c
 8003b00:	bd70      	pop	{r4, r5, r6, pc}
 8003b02:	2000      	movs	r0, #0
 8003b04:	e7fc      	b.n	8003b00 <move_window+0x2e>
	...

08003b08 <check_fs>:
 8003b08:	2200      	movs	r2, #0
 8003b0a:	f500 5380 	add.w	r3, r0, #4096	@ 0x1000
 8003b0e:	b510      	push	{r4, lr}
 8003b10:	711a      	strb	r2, [r3, #4]
 8003b12:	f04f 32ff 	mov.w	r2, #4294967295
 8003b16:	62da      	str	r2, [r3, #44]	@ 0x2c
 8003b18:	4604      	mov	r4, r0
 8003b1a:	f7ff ffda 	bl	8003ad2 <move_window>
 8003b1e:	b9a0      	cbnz	r0, 8003b4a <check_fs+0x42>
 8003b20:	f64a 2355 	movw	r3, #43605	@ 0xaa55
 8003b24:	f8b4 21fe 	ldrh.w	r2, [r4, #510]	@ 0x1fe
 8003b28:	429a      	cmp	r2, r3
 8003b2a:	d110      	bne.n	8003b4e <check_fs+0x46>
 8003b2c:	f8d4 3036 	ldr.w	r3, [r4, #54]	@ 0x36
 8003b30:	4a08      	ldr	r2, [pc, #32]	@ (8003b54 <check_fs+0x4c>)
 8003b32:	f023 437f 	bic.w	r3, r3, #4278190080	@ 0xff000000
 8003b36:	4293      	cmp	r3, r2
 8003b38:	d006      	beq.n	8003b48 <check_fs+0x40>
 8003b3a:	f8d4 0052 	ldr.w	r0, [r4, #82]	@ 0x52
 8003b3e:	f020 407f 	bic.w	r0, r0, #4278190080	@ 0xff000000
 8003b42:	1a80      	subs	r0, r0, r2
 8003b44:	bf18      	it	ne
 8003b46:	2001      	movne	r0, #1
 8003b48:	bd10      	pop	{r4, pc}
 8003b4a:	2003      	movs	r0, #3
 8003b4c:	e7fc      	b.n	8003b48 <check_fs+0x40>
 8003b4e:	2002      	movs	r0, #2
 8003b50:	e7fa      	b.n	8003b48 <check_fs+0x40>
 8003b52:	bf00      	nop
 8003b54:	00544146 	.word	0x00544146

08003b58 <find_volume>:
 8003b58:	2300      	movs	r3, #0
 8003b5a:	e92d 43f0 	stmdb	sp!, {r4, r5, r6, r7, r8, r9, lr}
 8003b5e:	4605      	mov	r5, r0
 8003b60:	b085      	sub	sp, #20
 8003b62:	6003      	str	r3, [r0, #0]
 8003b64:	4608      	mov	r0, r1
 8003b66:	4617      	mov	r7, r2
 8003b68:	f7ff ff60 	bl	8003a2c <get_ldnumber>
 8003b6c:	1e06      	subs	r6, r0, #0
 8003b6e:	f2c0 810f 	blt.w	8003d90 <find_volume+0x238>
 8003b72:	4b8a      	ldr	r3, [pc, #552]	@ (8003d9c <find_volume+0x244>)
 8003b74:	f853 4026 	ldr.w	r4, [r3, r6, lsl #2]
 8003b78:	2c00      	cmp	r4, #0
 8003b7a:	f000 810b 	beq.w	8003d94 <find_volume+0x23c>
 8003b7e:	602c      	str	r4, [r5, #0]
 8003b80:	f504 5580 	add.w	r5, r4, #4096	@ 0x1000
 8003b84:	782b      	ldrb	r3, [r5, #0]
 8003b86:	b173      	cbz	r3, 8003ba6 <find_volume+0x4e>
 8003b88:	7868      	ldrb	r0, [r5, #1]
 8003b8a:	f7ff fe21 	bl	80037d0 <disk_status>
 8003b8e:	07c3      	lsls	r3, r0, #31
 8003b90:	d409      	bmi.n	8003ba6 <find_volume+0x4e>
 8003b92:	2f00      	cmp	r7, #0
 8003b94:	f000 80d8 	beq.w	8003d48 <find_volume+0x1f0>
 8003b98:	0741      	lsls	r1, r0, #29
 8003b9a:	f140 80d5 	bpl.w	8003d48 <find_volume+0x1f0>
 8003b9e:	200a      	movs	r0, #10
 8003ba0:	b005      	add	sp, #20
 8003ba2:	e8bd 83f0 	ldmia.w	sp!, {r4, r5, r6, r7, r8, r9, pc}
 8003ba6:	2300      	movs	r3, #0
 8003ba8:	b2f0      	uxtb	r0, r6
 8003baa:	702b      	strb	r3, [r5, #0]
 8003bac:	7068      	strb	r0, [r5, #1]
 8003bae:	f7ff fe19 	bl	80037e4 <disk_initialize>
 8003bb2:	07c2      	lsls	r2, r0, #31
 8003bb4:	f100 80f0 	bmi.w	8003d98 <find_volume+0x240>
 8003bb8:	b10f      	cbz	r7, 8003bbe <find_volume+0x66>
 8003bba:	0743      	lsls	r3, r0, #29
 8003bbc:	d4ef      	bmi.n	8003b9e <find_volume+0x46>
 8003bbe:	f504 5280 	add.w	r2, r4, #4096	@ 0x1000
 8003bc2:	2102      	movs	r1, #2
 8003bc4:	7868      	ldrb	r0, [r5, #1]
 8003bc6:	320a      	adds	r2, #10
 8003bc8:	f7ff fe38 	bl	800383c <disk_ioctl>
 8003bcc:	4601      	mov	r1, r0
 8003bce:	b108      	cbz	r0, 8003bd4 <find_volume+0x7c>
 8003bd0:	2001      	movs	r0, #1
 8003bd2:	e7e5      	b.n	8003ba0 <find_volume+0x48>
 8003bd4:	896b      	ldrh	r3, [r5, #10]
 8003bd6:	f5a3 7300 	sub.w	r3, r3, #512	@ 0x200
 8003bda:	b29b      	uxth	r3, r3
 8003bdc:	f5b3 6f60 	cmp.w	r3, #3584	@ 0xe00
 8003be0:	d8f6      	bhi.n	8003bd0 <find_volume+0x78>
 8003be2:	4620      	mov	r0, r4
 8003be4:	f7ff ff90 	bl	8003b08 <check_fs>
 8003be8:	2801      	cmp	r0, #1
 8003bea:	4606      	mov	r6, r0
 8003bec:	f040 80b6 	bne.w	8003d5c <find_volume+0x204>
 8003bf0:	46e8      	mov	r8, sp
 8003bf2:	4641      	mov	r1, r8
 8003bf4:	f504 73df 	add.w	r3, r4, #446	@ 0x1be
 8003bf8:	f504 70ff 	add.w	r0, r4, #510	@ 0x1fe
 8003bfc:	791a      	ldrb	r2, [r3, #4]
 8003bfe:	b102      	cbz	r2, 8003c02 <find_volume+0xaa>
 8003c00:	689a      	ldr	r2, [r3, #8]
 8003c02:	3310      	adds	r3, #16
 8003c04:	4283      	cmp	r3, r0
 8003c06:	f841 2b04 	str.w	r2, [r1], #4
 8003c0a:	d1f7      	bne.n	8003bfc <find_volume+0xa4>
 8003c0c:	2700      	movs	r7, #0
 8003c0e:	f858 6b04 	ldr.w	r6, [r8], #4
 8003c12:	2e00      	cmp	r6, #0
 8003c14:	f000 809a 	beq.w	8003d4c <find_volume+0x1f4>
 8003c18:	4631      	mov	r1, r6
 8003c1a:	4620      	mov	r0, r4
 8003c1c:	f7ff ff74 	bl	8003b08 <check_fs>
 8003c20:	2800      	cmp	r0, #0
 8003c22:	f040 8094 	bne.w	8003d4e <find_volume+0x1f6>
 8003c26:	f8b5 c00a 	ldrh.w	ip, [r5, #10]
 8003c2a:	f8b4 300b 	ldrh.w	r3, [r4, #11]
 8003c2e:	4563      	cmp	r3, ip
 8003c30:	f040 809a 	bne.w	8003d68 <find_volume+0x210>
 8003c34:	8ae0      	ldrh	r0, [r4, #22]
 8003c36:	b900      	cbnz	r0, 8003c3a <find_volume+0xe2>
 8003c38:	6a60      	ldr	r0, [r4, #36]	@ 0x24
 8003c3a:	f894 e010 	ldrb.w	lr, [r4, #16]
 8003c3e:	61a8      	str	r0, [r5, #24]
 8003c40:	f10e 33ff 	add.w	r3, lr, #4294967295
 8003c44:	2b01      	cmp	r3, #1
 8003c46:	f885 e003 	strb.w	lr, [r5, #3]
 8003c4a:	f200 808d 	bhi.w	8003d68 <find_volume+0x210>
 8003c4e:	7b67      	ldrb	r7, [r4, #13]
 8003c50:	70af      	strb	r7, [r5, #2]
 8003c52:	2f00      	cmp	r7, #0
 8003c54:	f000 8088 	beq.w	8003d68 <find_volume+0x210>
 8003c58:	1e7b      	subs	r3, r7, #1
 8003c5a:	423b      	tst	r3, r7
 8003c5c:	f040 8084 	bne.w	8003d68 <find_volume+0x210>
 8003c60:	f8b4 8011 	ldrh.w	r8, [r4, #17]
 8003c64:	ea4f 135c 	mov.w	r3, ip, lsr #5
 8003c68:	fbb8 f2f3 	udiv	r2, r8, r3
 8003c6c:	fb03 8312 	mls	r3, r3, r2, r8
 8003c70:	b29b      	uxth	r3, r3
 8003c72:	f8a5 8008 	strh.w	r8, [r5, #8]
 8003c76:	2b00      	cmp	r3, #0
 8003c78:	d176      	bne.n	8003d68 <find_volume+0x210>
 8003c7a:	f8b4 3013 	ldrh.w	r3, [r4, #19]
 8003c7e:	b903      	cbnz	r3, 8003c82 <find_volume+0x12a>
 8003c80:	6a23      	ldr	r3, [r4, #32]
 8003c82:	89e1      	ldrh	r1, [r4, #14]
 8003c84:	2900      	cmp	r1, #0
 8003c86:	d06f      	beq.n	8003d68 <find_volume+0x210>
 8003c88:	fb00 fe0e 	mul.w	lr, r0, lr
 8003c8c:	440a      	add	r2, r1
 8003c8e:	4472      	add	r2, lr
 8003c90:	4293      	cmp	r3, r2
 8003c92:	d369      	bcc.n	8003d68 <find_volume+0x210>
 8003c94:	1a9b      	subs	r3, r3, r2
 8003c96:	42bb      	cmp	r3, r7
 8003c98:	fbb3 f9f7 	udiv	r9, r3, r7
 8003c9c:	d364      	bcc.n	8003d68 <find_volume+0x210>
 8003c9e:	f640 73f5 	movw	r3, #4085	@ 0xff5
 8003ca2:	4599      	cmp	r9, r3
 8003ca4:	d962      	bls.n	8003d6c <find_volume+0x214>
 8003ca6:	f64f 77f5 	movw	r7, #65525	@ 0xfff5
 8003caa:	45b9      	cmp	r9, r7
 8003cac:	bf8c      	ite	hi
 8003cae:	2703      	movhi	r7, #3
 8003cb0:	2702      	movls	r7, #2
 8003cb2:	f109 0302 	add.w	r3, r9, #2
 8003cb6:	4431      	add	r1, r6
 8003cb8:	4432      	add	r2, r6
 8003cba:	2f03      	cmp	r7, #3
 8003cbc:	616b      	str	r3, [r5, #20]
 8003cbe:	61ee      	str	r6, [r5, #28]
 8003cc0:	6229      	str	r1, [r5, #32]
 8003cc2:	62aa      	str	r2, [r5, #40]	@ 0x28
 8003cc4:	d154      	bne.n	8003d70 <find_volume+0x218>
 8003cc6:	f1b8 0f00 	cmp.w	r8, #0
 8003cca:	d14d      	bne.n	8003d68 <find_volume+0x210>
 8003ccc:	6ae1      	ldr	r1, [r4, #44]	@ 0x2c
 8003cce:	009b      	lsls	r3, r3, #2
 8003cd0:	f10c 32ff 	add.w	r2, ip, #4294967295
 8003cd4:	4413      	add	r3, r2
 8003cd6:	fbb3 f3fc 	udiv	r3, r3, ip
 8003cda:	4283      	cmp	r3, r0
 8003cdc:	6269      	str	r1, [r5, #36]	@ 0x24
 8003cde:	d843      	bhi.n	8003d68 <find_volume+0x210>
 8003ce0:	f04f 33ff 	mov.w	r3, #4294967295
 8003ce4:	e9c5 3303 	strd	r3, r3, [r5, #12]
 8003ce8:	2380      	movs	r3, #128	@ 0x80
 8003cea:	2f03      	cmp	r7, #3
 8003cec:	716b      	strb	r3, [r5, #5]
 8003cee:	d121      	bne.n	8003d34 <find_volume+0x1dc>
 8003cf0:	8e23      	ldrh	r3, [r4, #48]	@ 0x30
 8003cf2:	2b01      	cmp	r3, #1
 8003cf4:	d11e      	bne.n	8003d34 <find_volume+0x1dc>
 8003cf6:	4620      	mov	r0, r4
 8003cf8:	1c71      	adds	r1, r6, #1
 8003cfa:	f7ff feea 	bl	8003ad2 <move_window>
 8003cfe:	b9c8      	cbnz	r0, 8003d34 <find_volume+0x1dc>
 8003d00:	f64a 2355 	movw	r3, #43605	@ 0xaa55
 8003d04:	7168      	strb	r0, [r5, #5]
 8003d06:	f8b4 21fe 	ldrh.w	r2, [r4, #510]	@ 0x1fe
 8003d0a:	429a      	cmp	r2, r3
 8003d0c:	d112      	bne.n	8003d34 <find_volume+0x1dc>
 8003d0e:	6822      	ldr	r2, [r4, #0]
 8003d10:	4b23      	ldr	r3, [pc, #140]	@ (8003da0 <find_volume+0x248>)
 8003d12:	429a      	cmp	r2, r3
 8003d14:	d10e      	bne.n	8003d34 <find_volume+0x1dc>
 8003d16:	f103 53ff 	add.w	r3, r3, #534773760	@ 0x1fe00000
 8003d1a:	f8d4 21e4 	ldr.w	r2, [r4, #484]	@ 0x1e4
 8003d1e:	f503 5300 	add.w	r3, r3, #8192	@ 0x2000
 8003d22:	3320      	adds	r3, #32
 8003d24:	429a      	cmp	r2, r3
 8003d26:	bf01      	itttt	eq
 8003d28:	f8d4 31e8 	ldreq.w	r3, [r4, #488]	@ 0x1e8
 8003d2c:	612b      	streq	r3, [r5, #16]
 8003d2e:	f8d4 31ec 	ldreq.w	r3, [r4, #492]	@ 0x1ec
 8003d32:	60eb      	streq	r3, [r5, #12]
 8003d34:	4a1b      	ldr	r2, [pc, #108]	@ (8003da4 <find_volume+0x24c>)
 8003d36:	4620      	mov	r0, r4
 8003d38:	8813      	ldrh	r3, [r2, #0]
 8003d3a:	702f      	strb	r7, [r5, #0]
 8003d3c:	3301      	adds	r3, #1
 8003d3e:	b29b      	uxth	r3, r3
 8003d40:	80eb      	strh	r3, [r5, #6]
 8003d42:	8013      	strh	r3, [r2, #0]
 8003d44:	f7ff fe3e 	bl	80039c4 <clear_lock>
 8003d48:	2000      	movs	r0, #0
 8003d4a:	e729      	b.n	8003ba0 <find_volume+0x48>
 8003d4c:	2002      	movs	r0, #2
 8003d4e:	3701      	adds	r7, #1
 8003d50:	2f04      	cmp	r7, #4
 8003d52:	f47f af5c 	bne.w	8003c0e <find_volume+0xb6>
 8003d56:	2803      	cmp	r0, #3
 8003d58:	d106      	bne.n	8003d68 <find_volume+0x210>
 8003d5a:	e739      	b.n	8003bd0 <find_volume+0x78>
 8003d5c:	2803      	cmp	r0, #3
 8003d5e:	f43f af37 	beq.w	8003bd0 <find_volume+0x78>
 8003d62:	2800      	cmp	r0, #0
 8003d64:	f43f af5f 	beq.w	8003c26 <find_volume+0xce>
 8003d68:	200d      	movs	r0, #13
 8003d6a:	e719      	b.n	8003ba0 <find_volume+0x48>
 8003d6c:	2701      	movs	r7, #1
 8003d6e:	e7a0      	b.n	8003cb2 <find_volume+0x15a>
 8003d70:	f1b8 0f00 	cmp.w	r8, #0
 8003d74:	d0f8      	beq.n	8003d68 <find_volume+0x210>
 8003d76:	2f02      	cmp	r7, #2
 8003d78:	ea4f 0243 	mov.w	r2, r3, lsl #1
 8003d7c:	bf1a      	itte	ne
 8003d7e:	18d2      	addne	r2, r2, r3
 8003d80:	f003 0301 	andne.w	r3, r3, #1
 8003d84:	4613      	moveq	r3, r2
 8003d86:	4471      	add	r1, lr
 8003d88:	bf18      	it	ne
 8003d8a:	eb03 0352 	addne.w	r3, r3, r2, lsr #1
 8003d8e:	e79f      	b.n	8003cd0 <find_volume+0x178>
 8003d90:	200b      	movs	r0, #11
 8003d92:	e705      	b.n	8003ba0 <find_volume+0x48>
 8003d94:	200c      	movs	r0, #12
 8003d96:	e703      	b.n	8003ba0 <find_volume+0x48>
 8003d98:	2003      	movs	r0, #3
 8003d9a:	e701      	b.n	8003ba0 <find_volume+0x48>
 8003d9c:	20002454 	.word	0x20002454
 8003da0:	41615252 	.word	0x41615252
 8003da4:	20002450 	.word	0x20002450

08003da8 <sync_fs>:
 8003da8:	b570      	push	{r4, r5, r6, lr}
 8003daa:	4605      	mov	r5, r0
 8003dac:	f7ff fe56 	bl	8003a5c <sync_window>
 8003db0:	4606      	mov	r6, r0
 8003db2:	bb78      	cbnz	r0, 8003e14 <sync_fs+0x6c>
 8003db4:	f505 5480 	add.w	r4, r5, #4096	@ 0x1000
 8003db8:	7823      	ldrb	r3, [r4, #0]
 8003dba:	2b03      	cmp	r3, #3
 8003dbc:	d122      	bne.n	8003e04 <sync_fs+0x5c>
 8003dbe:	7963      	ldrb	r3, [r4, #5]
 8003dc0:	2b01      	cmp	r3, #1
 8003dc2:	d11f      	bne.n	8003e04 <sync_fs+0x5c>
 8003dc4:	4601      	mov	r1, r0
 8003dc6:	8962      	ldrh	r2, [r4, #10]
 8003dc8:	4628      	mov	r0, r5
 8003dca:	f7ff fd4d 	bl	8003868 <mem_set>
 8003dce:	f64a 2255 	movw	r2, #43605	@ 0xaa55
 8003dd2:	f8a5 21fe 	strh.w	r2, [r5, #510]	@ 0x1fe
 8003dd6:	4a10      	ldr	r2, [pc, #64]	@ (8003e18 <sync_fs+0x70>)
 8003dd8:	4629      	mov	r1, r5
 8003dda:	602a      	str	r2, [r5, #0]
 8003ddc:	f102 52ff 	add.w	r2, r2, #534773760	@ 0x1fe00000
 8003de0:	f502 5200 	add.w	r2, r2, #8192	@ 0x2000
 8003de4:	3220      	adds	r2, #32
 8003de6:	f8c5 21e4 	str.w	r2, [r5, #484]	@ 0x1e4
 8003dea:	6922      	ldr	r2, [r4, #16]
 8003dec:	f8c5 21e8 	str.w	r2, [r5, #488]	@ 0x1e8
 8003df0:	68e2      	ldr	r2, [r4, #12]
 8003df2:	f8c5 21ec 	str.w	r2, [r5, #492]	@ 0x1ec
 8003df6:	69e2      	ldr	r2, [r4, #28]
 8003df8:	7860      	ldrb	r0, [r4, #1]
 8003dfa:	3201      	adds	r2, #1
 8003dfc:	62e2      	str	r2, [r4, #44]	@ 0x2c
 8003dfe:	f7ff fd0f 	bl	8003820 <disk_write>
 8003e02:	7166      	strb	r6, [r4, #5]
 8003e04:	2200      	movs	r2, #0
 8003e06:	7860      	ldrb	r0, [r4, #1]
 8003e08:	4611      	mov	r1, r2
 8003e0a:	f7ff fd17 	bl	800383c <disk_ioctl>
 8003e0e:	3800      	subs	r0, #0
 8003e10:	bf18      	it	ne
 8003e12:	2001      	movne	r0, #1
 8003e14:	bd70      	pop	{r4, r5, r6, pc}
 8003e16:	bf00      	nop
 8003e18:	41615252 	.word	0x41615252

08003e1c <ld_clust.isra.0>:
 8003e1c:	2803      	cmp	r0, #3
 8003e1e:	8b4b      	ldrh	r3, [r1, #26]
 8003e20:	bf04      	itt	eq
 8003e22:	8a8a      	ldrheq	r2, [r1, #20]
 8003e24:	ea43 4302 	orreq.w	r3, r3, r2, lsl #16
 8003e28:	4618      	mov	r0, r3
 8003e2a:	4770      	bx	lr

08003e2c <clust2sect>:
 8003e2c:	f500 5080 	add.w	r0, r0, #4096	@ 0x1000
 8003e30:	6943      	ldr	r3, [r0, #20]
 8003e32:	3902      	subs	r1, #2
 8003e34:	3b02      	subs	r3, #2
 8003e36:	428b      	cmp	r3, r1
 8003e38:	bf83      	ittte	hi
 8003e3a:	7883      	ldrbhi	r3, [r0, #2]
 8003e3c:	6a80      	ldrhi	r0, [r0, #40]	@ 0x28
 8003e3e:	fb01 0003 	mlahi	r0, r1, r3, r0
 8003e42:	2000      	movls	r0, #0
 8003e44:	4770      	bx	lr

08003e46 <get_fat>:
 8003e46:	2901      	cmp	r1, #1
 8003e48:	e92d 41f0 	stmdb	sp!, {r4, r5, r6, r7, r8, lr}
 8003e4c:	4606      	mov	r6, r0
 8003e4e:	460d      	mov	r5, r1
 8003e50:	d96d      	bls.n	8003f2e <get_fat+0xe8>
 8003e52:	f500 5780 	add.w	r7, r0, #4096	@ 0x1000
 8003e56:	697b      	ldr	r3, [r7, #20]
 8003e58:	428b      	cmp	r3, r1
 8003e5a:	d968      	bls.n	8003f2e <get_fat+0xe8>
 8003e5c:	783b      	ldrb	r3, [r7, #0]
 8003e5e:	2b02      	cmp	r3, #2
 8003e60:	d031      	beq.n	8003ec6 <get_fat+0x80>
 8003e62:	2b03      	cmp	r3, #3
 8003e64:	d045      	beq.n	8003ef2 <get_fat+0xac>
 8003e66:	2b01      	cmp	r3, #1
 8003e68:	d161      	bne.n	8003f2e <get_fat+0xe8>
 8003e6a:	897b      	ldrh	r3, [r7, #10]
 8003e6c:	eb01 0451 	add.w	r4, r1, r1, lsr #1
 8003e70:	fbb4 f3f3 	udiv	r3, r4, r3
 8003e74:	6a39      	ldr	r1, [r7, #32]
 8003e76:	4419      	add	r1, r3
 8003e78:	f7ff fe2b 	bl	8003ad2 <move_window>
 8003e7c:	b118      	cbz	r0, 8003e86 <get_fat+0x40>
 8003e7e:	f04f 30ff 	mov.w	r0, #4294967295
 8003e82:	e8bd 81f0 	ldmia.w	sp!, {r4, r5, r6, r7, r8, pc}
 8003e86:	8979      	ldrh	r1, [r7, #10]
 8003e88:	f104 0801 	add.w	r8, r4, #1
 8003e8c:	fbb4 f3f1 	udiv	r3, r4, r1
 8003e90:	fb01 4413 	mls	r4, r1, r3, r4
 8003e94:	fbb8 f1f1 	udiv	r1, r8, r1
 8003e98:	6a3b      	ldr	r3, [r7, #32]
 8003e9a:	4630      	mov	r0, r6
 8003e9c:	4419      	add	r1, r3
 8003e9e:	5d34      	ldrb	r4, [r6, r4]
 8003ea0:	f7ff fe17 	bl	8003ad2 <move_window>
 8003ea4:	2800      	cmp	r0, #0
 8003ea6:	d1ea      	bne.n	8003e7e <get_fat+0x38>
 8003ea8:	897b      	ldrh	r3, [r7, #10]
 8003eaa:	fbb8 f2f3 	udiv	r2, r8, r3
 8003eae:	fb03 8812 	mls	r8, r3, r2, r8
 8003eb2:	f816 3008 	ldrb.w	r3, [r6, r8]
 8003eb6:	ea44 2003 	orr.w	r0, r4, r3, lsl #8
 8003eba:	07eb      	lsls	r3, r5, #31
 8003ebc:	bf4c      	ite	mi
 8003ebe:	0900      	lsrmi	r0, r0, #4
 8003ec0:	f3c0 000b 	ubfxpl	r0, r0, #0, #12
 8003ec4:	e7dd      	b.n	8003e82 <get_fat+0x3c>
 8003ec6:	897b      	ldrh	r3, [r7, #10]
 8003ec8:	085b      	lsrs	r3, r3, #1
 8003eca:	fbb1 f3f3 	udiv	r3, r1, r3
 8003ece:	6a39      	ldr	r1, [r7, #32]
 8003ed0:	4419      	add	r1, r3
 8003ed2:	f7ff fdfe 	bl	8003ad2 <move_window>
 8003ed6:	2800      	cmp	r0, #0
 8003ed8:	d1d1      	bne.n	8003e7e <get_fat+0x38>
 8003eda:	897b      	ldrh	r3, [r7, #10]
 8003edc:	006d      	lsls	r5, r5, #1
 8003ede:	fbb5 f2f3 	udiv	r2, r5, r3
 8003ee2:	fb03 5512 	mls	r5, r3, r2, r5
 8003ee6:	1973      	adds	r3, r6, r5
 8003ee8:	785b      	ldrb	r3, [r3, #1]
 8003eea:	5d70      	ldrb	r0, [r6, r5]
 8003eec:	ea40 2003 	orr.w	r0, r0, r3, lsl #8
 8003ef0:	e7c7      	b.n	8003e82 <get_fat+0x3c>
 8003ef2:	897b      	ldrh	r3, [r7, #10]
 8003ef4:	089b      	lsrs	r3, r3, #2
 8003ef6:	fbb1 f3f3 	udiv	r3, r1, r3
 8003efa:	6a39      	ldr	r1, [r7, #32]
 8003efc:	4419      	add	r1, r3
 8003efe:	f7ff fde8 	bl	8003ad2 <move_window>
 8003f02:	2800      	cmp	r0, #0
 8003f04:	d1bb      	bne.n	8003e7e <get_fat+0x38>
 8003f06:	897b      	ldrh	r3, [r7, #10]
 8003f08:	00ad      	lsls	r5, r5, #2
 8003f0a:	fbb5 f2f3 	udiv	r2, r5, r3
 8003f0e:	fb03 5512 	mls	r5, r3, r2, r5
 8003f12:	1973      	adds	r3, r6, r5
 8003f14:	7898      	ldrb	r0, [r3, #2]
 8003f16:	78da      	ldrb	r2, [r3, #3]
 8003f18:	0400      	lsls	r0, r0, #16
 8003f1a:	ea40 6002 	orr.w	r0, r0, r2, lsl #24
 8003f1e:	5d72      	ldrb	r2, [r6, r5]
 8003f20:	785b      	ldrb	r3, [r3, #1]
 8003f22:	4310      	orrs	r0, r2
 8003f24:	ea40 2003 	orr.w	r0, r0, r3, lsl #8
 8003f28:	f020 4070 	bic.w	r0, r0, #4026531840	@ 0xf0000000
 8003f2c:	e7a9      	b.n	8003e82 <get_fat+0x3c>
 8003f2e:	2001      	movs	r0, #1
 8003f30:	e7a7      	b.n	8003e82 <get_fat+0x3c>

08003f32 <dir_sdi>:
 8003f32:	b570      	push	{r4, r5, r6, lr}
 8003f34:	f500 5480 	add.w	r4, r0, #4096	@ 0x1000
 8003f38:	68a2      	ldr	r2, [r4, #8]
 8003f3a:	460d      	mov	r5, r1
 8003f3c:	2a01      	cmp	r2, #1
 8003f3e:	80e1      	strh	r1, [r4, #6]
 8003f40:	d101      	bne.n	8003f46 <dir_sdi+0x14>
 8003f42:	2002      	movs	r0, #2
 8003f44:	bd70      	pop	{r4, r5, r6, pc}
 8003f46:	6823      	ldr	r3, [r4, #0]
 8003f48:	f503 5380 	add.w	r3, r3, #4096	@ 0x1000
 8003f4c:	6959      	ldr	r1, [r3, #20]
 8003f4e:	4291      	cmp	r1, r2
 8003f50:	d9f7      	bls.n	8003f42 <dir_sdi+0x10>
 8003f52:	b9da      	cbnz	r2, 8003f8c <dir_sdi+0x5a>
 8003f54:	7819      	ldrb	r1, [r3, #0]
 8003f56:	2903      	cmp	r1, #3
 8003f58:	d101      	bne.n	8003f5e <dir_sdi+0x2c>
 8003f5a:	6a59      	ldr	r1, [r3, #36]	@ 0x24
 8003f5c:	b9b9      	cbnz	r1, 8003f8e <dir_sdi+0x5c>
 8003f5e:	8919      	ldrh	r1, [r3, #8]
 8003f60:	42a9      	cmp	r1, r5
 8003f62:	d9ee      	bls.n	8003f42 <dir_sdi+0x10>
 8003f64:	6a58      	ldr	r0, [r3, #36]	@ 0x24
 8003f66:	60e2      	str	r2, [r4, #12]
 8003f68:	2800      	cmp	r0, #0
 8003f6a:	d0ea      	beq.n	8003f42 <dir_sdi+0x10>
 8003f6c:	6823      	ldr	r3, [r4, #0]
 8003f6e:	f503 5280 	add.w	r2, r3, #4096	@ 0x1000
 8003f72:	8952      	ldrh	r2, [r2, #10]
 8003f74:	0952      	lsrs	r2, r2, #5
 8003f76:	fbb5 f1f2 	udiv	r1, r5, r2
 8003f7a:	fb02 5511 	mls	r5, r2, r1, r5
 8003f7e:	4408      	add	r0, r1
 8003f80:	eb03 1345 	add.w	r3, r3, r5, lsl #5
 8003f84:	6120      	str	r0, [r4, #16]
 8003f86:	6163      	str	r3, [r4, #20]
 8003f88:	2000      	movs	r0, #0
 8003f8a:	e7db      	b.n	8003f44 <dir_sdi+0x12>
 8003f8c:	4611      	mov	r1, r2
 8003f8e:	460a      	mov	r2, r1
 8003f90:	895e      	ldrh	r6, [r3, #10]
 8003f92:	789b      	ldrb	r3, [r3, #2]
 8003f94:	0976      	lsrs	r6, r6, #5
 8003f96:	435e      	muls	r6, r3
 8003f98:	42b5      	cmp	r5, r6
 8003f9a:	4611      	mov	r1, r2
 8003f9c:	6820      	ldr	r0, [r4, #0]
 8003f9e:	d202      	bcs.n	8003fa6 <dir_sdi+0x74>
 8003fa0:	f7ff ff44 	bl	8003e2c <clust2sect>
 8003fa4:	e7df      	b.n	8003f66 <dir_sdi+0x34>
 8003fa6:	f7ff ff4e 	bl	8003e46 <get_fat>
 8003faa:	1c43      	adds	r3, r0, #1
 8003fac:	4602      	mov	r2, r0
 8003fae:	d009      	beq.n	8003fc4 <dir_sdi+0x92>
 8003fb0:	2801      	cmp	r0, #1
 8003fb2:	d9c6      	bls.n	8003f42 <dir_sdi+0x10>
 8003fb4:	6823      	ldr	r3, [r4, #0]
 8003fb6:	f503 5380 	add.w	r3, r3, #4096	@ 0x1000
 8003fba:	695b      	ldr	r3, [r3, #20]
 8003fbc:	4283      	cmp	r3, r0
 8003fbe:	d9c0      	bls.n	8003f42 <dir_sdi+0x10>
 8003fc0:	1bad      	subs	r5, r5, r6
 8003fc2:	e7e9      	b.n	8003f98 <dir_sdi+0x66>
 8003fc4:	2001      	movs	r0, #1
 8003fc6:	e7bd      	b.n	8003f44 <dir_sdi+0x12>

08003fc8 <put_fat>:
 8003fc8:	2901      	cmp	r1, #1
 8003fca:	e92d 43f8 	stmdb	sp!, {r3, r4, r5, r6, r7, r8, r9, lr}
 8003fce:	4606      	mov	r6, r0
 8003fd0:	460c      	mov	r4, r1
 8003fd2:	4617      	mov	r7, r2
 8003fd4:	f240 8081 	bls.w	80040da <put_fat+0x112>
 8003fd8:	f500 5580 	add.w	r5, r0, #4096	@ 0x1000
 8003fdc:	696b      	ldr	r3, [r5, #20]
 8003fde:	428b      	cmp	r3, r1
 8003fe0:	d97b      	bls.n	80040da <put_fat+0x112>
 8003fe2:	782b      	ldrb	r3, [r5, #0]
 8003fe4:	2b02      	cmp	r3, #2
 8003fe6:	d042      	beq.n	800406e <put_fat+0xa6>
 8003fe8:	2b03      	cmp	r3, #3
 8003fea:	d056      	beq.n	800409a <put_fat+0xd2>
 8003fec:	2b01      	cmp	r3, #1
 8003fee:	d174      	bne.n	80040da <put_fat+0x112>
 8003ff0:	896b      	ldrh	r3, [r5, #10]
 8003ff2:	eb01 0851 	add.w	r8, r1, r1, lsr #1
 8003ff6:	fbb8 f3f3 	udiv	r3, r8, r3
 8003ffa:	6a29      	ldr	r1, [r5, #32]
 8003ffc:	4419      	add	r1, r3
 8003ffe:	f7ff fd68 	bl	8003ad2 <move_window>
 8004002:	bb50      	cbnz	r0, 800405a <put_fat+0x92>
 8004004:	8969      	ldrh	r1, [r5, #10]
 8004006:	f108 0901 	add.w	r9, r8, #1
 800400a:	fbb8 f3f1 	udiv	r3, r8, r1
 800400e:	fb01 8813 	mls	r8, r1, r3, r8
 8004012:	f014 0401 	ands.w	r4, r4, #1
 8004016:	bf18      	it	ne
 8004018:	f816 2008 	ldrbne.w	r2, [r6, r8]
 800401c:	b2fb      	uxtb	r3, r7
 800401e:	bf1e      	ittt	ne
 8004020:	f002 020f 	andne.w	r2, r2, #15
 8004024:	ea42 1303 	orrne.w	r3, r2, r3, lsl #4
 8004028:	b2db      	uxtbne	r3, r3
 800402a:	f806 3008 	strb.w	r3, [r6, r8]
 800402e:	2301      	movs	r3, #1
 8004030:	fbb9 f1f1 	udiv	r1, r9, r1
 8004034:	712b      	strb	r3, [r5, #4]
 8004036:	6a2b      	ldr	r3, [r5, #32]
 8004038:	4630      	mov	r0, r6
 800403a:	4419      	add	r1, r3
 800403c:	f7ff fd49 	bl	8003ad2 <move_window>
 8004040:	b958      	cbnz	r0, 800405a <put_fat+0x92>
 8004042:	896b      	ldrh	r3, [r5, #10]
 8004044:	fbb9 f2f3 	udiv	r2, r9, r3
 8004048:	fb03 9912 	mls	r9, r3, r2, r9
 800404c:	b13c      	cbz	r4, 800405e <put_fat+0x96>
 800404e:	f3c7 1707 	ubfx	r7, r7, #4, #8
 8004052:	f806 7009 	strb.w	r7, [r6, r9]
 8004056:	2301      	movs	r3, #1
 8004058:	712b      	strb	r3, [r5, #4]
 800405a:	e8bd 83f8 	ldmia.w	sp!, {r3, r4, r5, r6, r7, r8, r9, pc}
 800405e:	f816 3009 	ldrb.w	r3, [r6, r9]
 8004062:	f3c7 2703 	ubfx	r7, r7, #8, #4
 8004066:	f023 030f 	bic.w	r3, r3, #15
 800406a:	431f      	orrs	r7, r3
 800406c:	e7f1      	b.n	8004052 <put_fat+0x8a>
 800406e:	896b      	ldrh	r3, [r5, #10]
 8004070:	085b      	lsrs	r3, r3, #1
 8004072:	fbb1 f3f3 	udiv	r3, r1, r3
 8004076:	6a29      	ldr	r1, [r5, #32]
 8004078:	4419      	add	r1, r3
 800407a:	f7ff fd2a 	bl	8003ad2 <move_window>
 800407e:	2800      	cmp	r0, #0
 8004080:	d1eb      	bne.n	800405a <put_fat+0x92>
 8004082:	896b      	ldrh	r3, [r5, #10]
 8004084:	0064      	lsls	r4, r4, #1
 8004086:	fbb4 f2f3 	udiv	r2, r4, r3
 800408a:	fb03 4412 	mls	r4, r3, r2, r4
 800408e:	5537      	strb	r7, [r6, r4]
 8004090:	4434      	add	r4, r6
 8004092:	f3c7 2707 	ubfx	r7, r7, #8, #8
 8004096:	7067      	strb	r7, [r4, #1]
 8004098:	e7dd      	b.n	8004056 <put_fat+0x8e>
 800409a:	896b      	ldrh	r3, [r5, #10]
 800409c:	089b      	lsrs	r3, r3, #2
 800409e:	fbb1 f3f3 	udiv	r3, r1, r3
 80040a2:	6a29      	ldr	r1, [r5, #32]
 80040a4:	4419      	add	r1, r3
 80040a6:	f7ff fd14 	bl	8003ad2 <move_window>
 80040aa:	2800      	cmp	r0, #0
 80040ac:	d1d5      	bne.n	800405a <put_fat+0x92>
 80040ae:	896b      	ldrh	r3, [r5, #10]
 80040b0:	00a4      	lsls	r4, r4, #2
 80040b2:	fbb4 f2f3 	udiv	r2, r4, r3
 80040b6:	fb03 4412 	mls	r4, r3, r2, r4
 80040ba:	1931      	adds	r1, r6, r4
 80040bc:	78cb      	ldrb	r3, [r1, #3]
 80040be:	061b      	lsls	r3, r3, #24
 80040c0:	f003 4370 	and.w	r3, r3, #4026531840	@ 0xf0000000
 80040c4:	ea43 0207 	orr.w	r2, r3, r7
 80040c8:	f3c2 2307 	ubfx	r3, r2, #8, #8
 80040cc:	5532      	strb	r2, [r6, r4]
 80040ce:	704b      	strb	r3, [r1, #1]
 80040d0:	0c13      	lsrs	r3, r2, #16
 80040d2:	0e12      	lsrs	r2, r2, #24
 80040d4:	708b      	strb	r3, [r1, #2]
 80040d6:	70ca      	strb	r2, [r1, #3]
 80040d8:	e7bd      	b.n	8004056 <put_fat+0x8e>
 80040da:	2002      	movs	r0, #2
 80040dc:	e7bd      	b.n	800405a <put_fat+0x92>

080040de <create_chain>:
 80040de:	e92d 41f0 	stmdb	sp!, {r4, r5, r6, r7, r8, lr}
 80040e2:	4606      	mov	r6, r0
 80040e4:	4688      	mov	r8, r1
 80040e6:	b991      	cbnz	r1, 800410e <create_chain+0x30>
 80040e8:	f500 5380 	add.w	r3, r0, #4096	@ 0x1000
 80040ec:	68dd      	ldr	r5, [r3, #12]
 80040ee:	b305      	cbz	r5, 8004132 <create_chain+0x54>
 80040f0:	695b      	ldr	r3, [r3, #20]
 80040f2:	42ab      	cmp	r3, r5
 80040f4:	bf98      	it	ls
 80040f6:	2501      	movls	r5, #1
 80040f8:	462c      	mov	r4, r5
 80040fa:	f506 5780 	add.w	r7, r6, #4096	@ 0x1000
 80040fe:	697b      	ldr	r3, [r7, #20]
 8004100:	3401      	adds	r4, #1
 8004102:	42a3      	cmp	r3, r4
 8004104:	d818      	bhi.n	8004138 <create_chain+0x5a>
 8004106:	2d01      	cmp	r5, #1
 8004108:	d115      	bne.n	8004136 <create_chain+0x58>
 800410a:	2400      	movs	r4, #0
 800410c:	e005      	b.n	800411a <create_chain+0x3c>
 800410e:	f7ff fe9a 	bl	8003e46 <get_fat>
 8004112:	2801      	cmp	r0, #1
 8004114:	4604      	mov	r4, r0
 8004116:	d803      	bhi.n	8004120 <create_chain+0x42>
 8004118:	2401      	movs	r4, #1
 800411a:	4620      	mov	r0, r4
 800411c:	e8bd 81f0 	ldmia.w	sp!, {r4, r5, r6, r7, r8, pc}
 8004120:	1c60      	adds	r0, r4, #1
 8004122:	d033      	beq.n	800418c <create_chain+0xae>
 8004124:	f506 5380 	add.w	r3, r6, #4096	@ 0x1000
 8004128:	695b      	ldr	r3, [r3, #20]
 800412a:	42a3      	cmp	r3, r4
 800412c:	d8f5      	bhi.n	800411a <create_chain+0x3c>
 800412e:	4645      	mov	r5, r8
 8004130:	e7e2      	b.n	80040f8 <create_chain+0x1a>
 8004132:	2501      	movs	r5, #1
 8004134:	e7e0      	b.n	80040f8 <create_chain+0x1a>
 8004136:	2402      	movs	r4, #2
 8004138:	4621      	mov	r1, r4
 800413a:	4630      	mov	r0, r6
 800413c:	f7ff fe83 	bl	8003e46 <get_fat>
 8004140:	b130      	cbz	r0, 8004150 <create_chain+0x72>
 8004142:	1c41      	adds	r1, r0, #1
 8004144:	d022      	beq.n	800418c <create_chain+0xae>
 8004146:	2801      	cmp	r0, #1
 8004148:	d0e6      	beq.n	8004118 <create_chain+0x3a>
 800414a:	42ac      	cmp	r4, r5
 800414c:	d1d7      	bne.n	80040fe <create_chain+0x20>
 800414e:	e7dc      	b.n	800410a <create_chain+0x2c>
 8004150:	f06f 4270 	mvn.w	r2, #4026531840	@ 0xf0000000
 8004154:	4621      	mov	r1, r4
 8004156:	4630      	mov	r0, r6
 8004158:	f7ff ff36 	bl	8003fc8 <put_fat>
 800415c:	b9a0      	cbnz	r0, 8004188 <create_chain+0xaa>
 800415e:	f1b8 0f00 	cmp.w	r8, #0
 8004162:	d10a      	bne.n	800417a <create_chain+0x9c>
 8004164:	693b      	ldr	r3, [r7, #16]
 8004166:	60fc      	str	r4, [r7, #12]
 8004168:	1c5a      	adds	r2, r3, #1
 800416a:	d0d6      	beq.n	800411a <create_chain+0x3c>
 800416c:	3b01      	subs	r3, #1
 800416e:	613b      	str	r3, [r7, #16]
 8004170:	797b      	ldrb	r3, [r7, #5]
 8004172:	f043 0301 	orr.w	r3, r3, #1
 8004176:	717b      	strb	r3, [r7, #5]
 8004178:	e7cf      	b.n	800411a <create_chain+0x3c>
 800417a:	4622      	mov	r2, r4
 800417c:	4641      	mov	r1, r8
 800417e:	4630      	mov	r0, r6
 8004180:	f7ff ff22 	bl	8003fc8 <put_fat>
 8004184:	2800      	cmp	r0, #0
 8004186:	d0ed      	beq.n	8004164 <create_chain+0x86>
 8004188:	2801      	cmp	r0, #1
 800418a:	d1c5      	bne.n	8004118 <create_chain+0x3a>
 800418c:	f04f 34ff 	mov.w	r4, #4294967295
 8004190:	e7c3      	b.n	800411a <create_chain+0x3c>

08004192 <dir_next>:
 8004192:	e92d 41f0 	stmdb	sp!, {r4, r5, r6, r7, r8, lr}
 8004196:	f500 5480 	add.w	r4, r0, #4096	@ 0x1000
 800419a:	88e6      	ldrh	r6, [r4, #6]
 800419c:	4688      	mov	r8, r1
 800419e:	3601      	adds	r6, #1
 80041a0:	b2b3      	uxth	r3, r6
 80041a2:	b913      	cbnz	r3, 80041aa <dir_next+0x18>
 80041a4:	2004      	movs	r0, #4
 80041a6:	e8bd 81f0 	ldmia.w	sp!, {r4, r5, r6, r7, r8, pc}
 80041aa:	6922      	ldr	r2, [r4, #16]
 80041ac:	2a00      	cmp	r2, #0
 80041ae:	d0f9      	beq.n	80041a4 <dir_next+0x12>
 80041b0:	6820      	ldr	r0, [r4, #0]
 80041b2:	f500 5780 	add.w	r7, r0, #4096	@ 0x1000
 80041b6:	897b      	ldrh	r3, [r7, #10]
 80041b8:	095b      	lsrs	r3, r3, #5
 80041ba:	fbb6 f5f3 	udiv	r5, r6, r3
 80041be:	fb03 6315 	mls	r3, r3, r5, r6
 80041c2:	b933      	cbnz	r3, 80041d2 <dir_next+0x40>
 80041c4:	68e1      	ldr	r1, [r4, #12]
 80041c6:	3201      	adds	r2, #1
 80041c8:	6122      	str	r2, [r4, #16]
 80041ca:	b989      	cbnz	r1, 80041f0 <dir_next+0x5e>
 80041cc:	893b      	ldrh	r3, [r7, #8]
 80041ce:	42b3      	cmp	r3, r6
 80041d0:	d9e8      	bls.n	80041a4 <dir_next+0x12>
 80041d2:	6823      	ldr	r3, [r4, #0]
 80041d4:	80e6      	strh	r6, [r4, #6]
 80041d6:	f503 5280 	add.w	r2, r3, #4096	@ 0x1000
 80041da:	8952      	ldrh	r2, [r2, #10]
 80041dc:	2000      	movs	r0, #0
 80041de:	0952      	lsrs	r2, r2, #5
 80041e0:	fbb6 f1f2 	udiv	r1, r6, r2
 80041e4:	fb02 6611 	mls	r6, r2, r1, r6
 80041e8:	eb03 1346 	add.w	r3, r3, r6, lsl #5
 80041ec:	6163      	str	r3, [r4, #20]
 80041ee:	e7da      	b.n	80041a6 <dir_next+0x14>
 80041f0:	78bf      	ldrb	r7, [r7, #2]
 80041f2:	3f01      	subs	r7, #1
 80041f4:	402f      	ands	r7, r5
 80041f6:	d1ec      	bne.n	80041d2 <dir_next+0x40>
 80041f8:	f7ff fe25 	bl	8003e46 <get_fat>
 80041fc:	2801      	cmp	r0, #1
 80041fe:	4605      	mov	r5, r0
 8004200:	d801      	bhi.n	8004206 <dir_next+0x74>
 8004202:	2002      	movs	r0, #2
 8004204:	e7cf      	b.n	80041a6 <dir_next+0x14>
 8004206:	1c42      	adds	r2, r0, #1
 8004208:	d101      	bne.n	800420e <dir_next+0x7c>
 800420a:	2001      	movs	r0, #1
 800420c:	e7cb      	b.n	80041a6 <dir_next+0x14>
 800420e:	6820      	ldr	r0, [r4, #0]
 8004210:	f500 5380 	add.w	r3, r0, #4096	@ 0x1000
 8004214:	695b      	ldr	r3, [r3, #20]
 8004216:	42ab      	cmp	r3, r5
 8004218:	d82b      	bhi.n	8004272 <dir_next+0xe0>
 800421a:	f1b8 0f00 	cmp.w	r8, #0
 800421e:	d0c1      	beq.n	80041a4 <dir_next+0x12>
 8004220:	68e1      	ldr	r1, [r4, #12]
 8004222:	f7ff ff5c 	bl	80040de <create_chain>
 8004226:	4605      	mov	r5, r0
 8004228:	2800      	cmp	r0, #0
 800422a:	d037      	beq.n	800429c <dir_next+0x10a>
 800422c:	2801      	cmp	r0, #1
 800422e:	d0e8      	beq.n	8004202 <dir_next+0x70>
 8004230:	1c43      	adds	r3, r0, #1
 8004232:	d0ea      	beq.n	800420a <dir_next+0x78>
 8004234:	6820      	ldr	r0, [r4, #0]
 8004236:	f7ff fc11 	bl	8003a5c <sync_window>
 800423a:	4601      	mov	r1, r0
 800423c:	2800      	cmp	r0, #0
 800423e:	d1e4      	bne.n	800420a <dir_next+0x78>
 8004240:	6820      	ldr	r0, [r4, #0]
 8004242:	f04f 0801 	mov.w	r8, #1
 8004246:	f500 5380 	add.w	r3, r0, #4096	@ 0x1000
 800424a:	895a      	ldrh	r2, [r3, #10]
 800424c:	f7ff fb0c 	bl	8003868 <mem_set>
 8004250:	6822      	ldr	r2, [r4, #0]
 8004252:	4629      	mov	r1, r5
 8004254:	4610      	mov	r0, r2
 8004256:	f7ff fde9 	bl	8003e2c <clust2sect>
 800425a:	f502 5280 	add.w	r2, r2, #4096	@ 0x1000
 800425e:	62d0      	str	r0, [r2, #44]	@ 0x2c
 8004260:	6820      	ldr	r0, [r4, #0]
 8004262:	f500 5380 	add.w	r3, r0, #4096	@ 0x1000
 8004266:	789a      	ldrb	r2, [r3, #2]
 8004268:	42ba      	cmp	r2, r7
 800426a:	d809      	bhi.n	8004280 <dir_next+0xee>
 800426c:	6ada      	ldr	r2, [r3, #44]	@ 0x2c
 800426e:	1bd2      	subs	r2, r2, r7
 8004270:	62da      	str	r2, [r3, #44]	@ 0x2c
 8004272:	4629      	mov	r1, r5
 8004274:	6820      	ldr	r0, [r4, #0]
 8004276:	60e5      	str	r5, [r4, #12]
 8004278:	f7ff fdd8 	bl	8003e2c <clust2sect>
 800427c:	6120      	str	r0, [r4, #16]
 800427e:	e7a8      	b.n	80041d2 <dir_next+0x40>
 8004280:	f883 8004 	strb.w	r8, [r3, #4]
 8004284:	f7ff fbea 	bl	8003a5c <sync_window>
 8004288:	2800      	cmp	r0, #0
 800428a:	d1be      	bne.n	800420a <dir_next+0x78>
 800428c:	6823      	ldr	r3, [r4, #0]
 800428e:	3701      	adds	r7, #1
 8004290:	f503 5380 	add.w	r3, r3, #4096	@ 0x1000
 8004294:	6ada      	ldr	r2, [r3, #44]	@ 0x2c
 8004296:	3201      	adds	r2, #1
 8004298:	62da      	str	r2, [r3, #44]	@ 0x2c
 800429a:	e7e1      	b.n	8004260 <dir_next+0xce>
 800429c:	2007      	movs	r0, #7
 800429e:	e782      	b.n	80041a6 <dir_next+0x14>

080042a0 <dir_find>:
 80042a0:	e92d 4ff0 	stmdb	sp!, {r4, r5, r6, r7, r8, r9, sl, fp, lr}
 80042a4:	2100      	movs	r1, #0
 80042a6:	b085      	sub	sp, #20
 80042a8:	9001      	str	r0, [sp, #4]
 80042aa:	f7ff fe42 	bl	8003f32 <dir_sdi>
 80042ae:	4605      	mov	r5, r0
 80042b0:	2800      	cmp	r0, #0
 80042b2:	d167      	bne.n	8004384 <dir_find+0xe4>
 80042b4:	f04f 09ff 	mov.w	r9, #255	@ 0xff
 80042b8:	f64f 7bff 	movw	fp, #65535	@ 0xffff
 80042bc:	464e      	mov	r6, r9
 80042be:	9b01      	ldr	r3, [sp, #4]
 80042c0:	f503 5780 	add.w	r7, r3, #4096	@ 0x1000
 80042c4:	f8a7 b024 	strh.w	fp, [r7, #36]	@ 0x24
 80042c8:	6939      	ldr	r1, [r7, #16]
 80042ca:	6838      	ldr	r0, [r7, #0]
 80042cc:	f7ff fc01 	bl	8003ad2 <move_window>
 80042d0:	4605      	mov	r5, r0
 80042d2:	2800      	cmp	r0, #0
 80042d4:	d156      	bne.n	8004384 <dir_find+0xe4>
 80042d6:	697c      	ldr	r4, [r7, #20]
 80042d8:	7822      	ldrb	r2, [r4, #0]
 80042da:	2a00      	cmp	r2, #0
 80042dc:	d075      	beq.n	80043ca <dir_find+0x12a>
 80042de:	2ae5      	cmp	r2, #229	@ 0xe5
 80042e0:	7ae1      	ldrb	r1, [r4, #11]
 80042e2:	d005      	beq.n	80042f0 <dir_find+0x50>
 80042e4:	0708      	lsls	r0, r1, #28
 80042e6:	f001 033f 	and.w	r3, r1, #63	@ 0x3f
 80042ea:	d504      	bpl.n	80042f6 <dir_find+0x56>
 80042ec:	2b0f      	cmp	r3, #15
 80042ee:	d004      	beq.n	80042fa <dir_find+0x5a>
 80042f0:	f8a7 b024 	strh.w	fp, [r7, #36]	@ 0x24
 80042f4:	e04c      	b.n	8004390 <dir_find+0xf0>
 80042f6:	2b0f      	cmp	r3, #15
 80042f8:	d151      	bne.n	800439e <dir_find+0xfe>
 80042fa:	f8d7 8020 	ldr.w	r8, [r7, #32]
 80042fe:	f1b8 0f00 	cmp.w	r8, #0
 8004302:	d038      	beq.n	8004376 <dir_find+0xd6>
 8004304:	0651      	lsls	r1, r2, #25
 8004306:	d541      	bpl.n	800438c <dir_find+0xec>
 8004308:	f002 06bf 	and.w	r6, r2, #191	@ 0xbf
 800430c:	88fa      	ldrh	r2, [r7, #6]
 800430e:	f894 900d 	ldrb.w	r9, [r4, #13]
 8004312:	84ba      	strh	r2, [r7, #36]	@ 0x24
 8004314:	7b62      	ldrb	r2, [r4, #13]
 8004316:	454a      	cmp	r2, r9
 8004318:	d13a      	bne.n	8004390 <dir_find+0xf0>
 800431a:	220d      	movs	r2, #13
 800431c:	2301      	movs	r3, #1
 800431e:	7825      	ldrb	r5, [r4, #0]
 8004320:	f8df a0ac 	ldr.w	sl, [pc, #172]	@ 80043d0 <dir_find+0x130>
 8004324:	f025 0540 	bic.w	r5, r5, #64	@ 0x40
 8004328:	3d01      	subs	r5, #1
 800432a:	4355      	muls	r5, r2
 800432c:	f81a 2b01 	ldrb.w	r2, [sl], #1
 8004330:	18a1      	adds	r1, r4, r2
 8004332:	7849      	ldrb	r1, [r1, #1]
 8004334:	5ca2      	ldrb	r2, [r4, r2]
 8004336:	ea42 2001 	orr.w	r0, r2, r1, lsl #8
 800433a:	b35b      	cbz	r3, 8004394 <dir_find+0xf4>
 800433c:	f000 fede 	bl	80050fc <ff_wtoupper>
 8004340:	2dfe      	cmp	r5, #254	@ 0xfe
 8004342:	d825      	bhi.n	8004390 <dir_find+0xf0>
 8004344:	9003      	str	r0, [sp, #12]
 8004346:	1c69      	adds	r1, r5, #1
 8004348:	f838 0015 	ldrh.w	r0, [r8, r5, lsl #1]
 800434c:	9102      	str	r1, [sp, #8]
 800434e:	f000 fed5 	bl	80050fc <ff_wtoupper>
 8004352:	9a03      	ldr	r2, [sp, #12]
 8004354:	4603      	mov	r3, r0
 8004356:	4282      	cmp	r2, r0
 8004358:	d11a      	bne.n	8004390 <dir_find+0xf0>
 800435a:	9902      	ldr	r1, [sp, #8]
 800435c:	460d      	mov	r5, r1
 800435e:	4a1d      	ldr	r2, [pc, #116]	@ (80043d4 <dir_find+0x134>)
 8004360:	4592      	cmp	sl, r2
 8004362:	d1e3      	bne.n	800432c <dir_find+0x8c>
 8004364:	7822      	ldrb	r2, [r4, #0]
 8004366:	0652      	lsls	r2, r2, #25
 8004368:	d503      	bpl.n	8004372 <dir_find+0xd2>
 800436a:	b113      	cbz	r3, 8004372 <dir_find+0xd2>
 800436c:	f838 3015 	ldrh.w	r3, [r8, r5, lsl #1]
 8004370:	b973      	cbnz	r3, 8004390 <dir_find+0xf0>
 8004372:	3e01      	subs	r6, #1
 8004374:	b2f6      	uxtb	r6, r6
 8004376:	2100      	movs	r1, #0
 8004378:	9801      	ldr	r0, [sp, #4]
 800437a:	f7ff ff0a 	bl	8004192 <dir_next>
 800437e:	4605      	mov	r5, r0
 8004380:	2800      	cmp	r0, #0
 8004382:	d0a1      	beq.n	80042c8 <dir_find+0x28>
 8004384:	4628      	mov	r0, r5
 8004386:	b005      	add	sp, #20
 8004388:	e8bd 8ff0 	ldmia.w	sp!, {r4, r5, r6, r7, r8, r9, sl, fp, pc}
 800438c:	42b2      	cmp	r2, r6
 800438e:	d0c1      	beq.n	8004314 <dir_find+0x74>
 8004390:	26ff      	movs	r6, #255	@ 0xff
 8004392:	e7f0      	b.n	8004376 <dir_find+0xd6>
 8004394:	f64f 72ff 	movw	r2, #65535	@ 0xffff
 8004398:	4290      	cmp	r0, r2
 800439a:	d0e0      	beq.n	800435e <dir_find+0xbe>
 800439c:	e7f8      	b.n	8004390 <dir_find+0xf0>
 800439e:	b926      	cbnz	r6, 80043aa <dir_find+0x10a>
 80043a0:	4620      	mov	r0, r4
 80043a2:	f7ff fb34 	bl	8003a0e <sum_sfn>
 80043a6:	4548      	cmp	r0, r9
 80043a8:	d0ec      	beq.n	8004384 <dir_find+0xe4>
 80043aa:	69bb      	ldr	r3, [r7, #24]
 80043ac:	7add      	ldrb	r5, [r3, #11]
 80043ae:	f015 0501 	ands.w	r5, r5, #1
 80043b2:	d19d      	bne.n	80042f0 <dir_find+0x50>
 80043b4:	f104 000b 	add.w	r0, r4, #11
 80043b8:	4284      	cmp	r4, r0
 80043ba:	d0e3      	beq.n	8004384 <dir_find+0xe4>
 80043bc:	f814 1b01 	ldrb.w	r1, [r4], #1
 80043c0:	f813 2b01 	ldrb.w	r2, [r3], #1
 80043c4:	4291      	cmp	r1, r2
 80043c6:	d0f7      	beq.n	80043b8 <dir_find+0x118>
 80043c8:	e792      	b.n	80042f0 <dir_find+0x50>
 80043ca:	2504      	movs	r5, #4
 80043cc:	e7da      	b.n	8004384 <dir_find+0xe4>
 80043ce:	bf00      	nop
 80043d0:	0800674b 	.word	0x0800674b
 80043d4:	08006758 	.word	0x08006758

080043d8 <follow_path>:
 80043d8:	e92d 4ff7 	stmdb	sp!, {r0, r1, r2, r4, r5, r6, r7, r8, r9, sl, fp, lr}
 80043dc:	780b      	ldrb	r3, [r1, #0]
 80043de:	460f      	mov	r7, r1
 80043e0:	2b2f      	cmp	r3, #47	@ 0x2f
 80043e2:	9000      	str	r0, [sp, #0]
 80043e4:	d001      	beq.n	80043ea <follow_path+0x12>
 80043e6:	2b5c      	cmp	r3, #92	@ 0x5c
 80043e8:	d100      	bne.n	80043ec <follow_path+0x14>
 80043ea:	3701      	adds	r7, #1
 80043ec:	9b00      	ldr	r3, [sp, #0]
 80043ee:	f503 5880 	add.w	r8, r3, #4096	@ 0x1000
 80043f2:	2300      	movs	r3, #0
 80043f4:	f8c8 3008 	str.w	r3, [r8, #8]
 80043f8:	783b      	ldrb	r3, [r7, #0]
 80043fa:	2b1f      	cmp	r3, #31
 80043fc:	f200 80ac 	bhi.w	8004558 <follow_path+0x180>
 8004400:	2100      	movs	r1, #0
 8004402:	9800      	ldr	r0, [sp, #0]
 8004404:	f7ff fd95 	bl	8003f32 <dir_sdi>
 8004408:	2300      	movs	r3, #0
 800440a:	f8c8 3014 	str.w	r3, [r8, #20]
 800440e:	b003      	add	sp, #12
 8004410:	e8bd 8ff0 	ldmia.w	sp!, {r4, r5, r6, r7, r8, r9, sl, fp, pc}
 8004414:	463e      	mov	r6, r7
 8004416:	f829 0f02 	strh.w	r0, [r9, #2]!
 800441a:	e0ac      	b.n	8004576 <follow_path+0x19e>
 800441c:	442f      	add	r7, r5
 800441e:	eb0b 0246 	add.w	r2, fp, r6, lsl #1
 8004422:	2e00      	cmp	r6, #0
 8004424:	f000 80c6 	beq.w	80045b4 <follow_path+0x1dc>
 8004428:	f832 1d02 	ldrh.w	r1, [r2, #-2]!
 800442c:	2920      	cmp	r1, #32
 800442e:	d001      	beq.n	8004434 <follow_path+0x5c>
 8004430:	292e      	cmp	r1, #46	@ 0x2e
 8004432:	d101      	bne.n	8004438 <follow_path+0x60>
 8004434:	3e01      	subs	r6, #1
 8004436:	e7f4      	b.n	8004422 <follow_path+0x4a>
 8004438:	f04f 0300 	mov.w	r3, #0
 800443c:	2120      	movs	r1, #32
 800443e:	220b      	movs	r2, #11
 8004440:	f8d8 0018 	ldr.w	r0, [r8, #24]
 8004444:	f82b 3016 	strh.w	r3, [fp, r6, lsl #1]
 8004448:	f7ff fa0e 	bl	8003868 <mem_set>
 800444c:	2100      	movs	r1, #0
 800444e:	eb0b 0546 	add.w	r5, fp, r6, lsl #1
 8004452:	f83b 2011 	ldrh.w	r2, [fp, r1, lsl #1]
 8004456:	2a20      	cmp	r2, #32
 8004458:	d025      	beq.n	80044a6 <follow_path+0xce>
 800445a:	2a2e      	cmp	r2, #46	@ 0x2e
 800445c:	d023      	beq.n	80044a6 <follow_path+0xce>
 800445e:	2c1f      	cmp	r4, #31
 8004460:	bf8c      	ite	hi
 8004462:	2400      	movhi	r4, #0
 8004464:	2401      	movls	r4, #1
 8004466:	00a4      	lsls	r4, r4, #2
 8004468:	b109      	cbz	r1, 800446e <follow_path+0x96>
 800446a:	f044 0403 	orr.w	r4, r4, #3
 800446e:	f835 2d02 	ldrh.w	r2, [r5, #-2]!
 8004472:	2a2e      	cmp	r2, #46	@ 0x2e
 8004474:	d001      	beq.n	800447a <follow_path+0xa2>
 8004476:	3e01      	subs	r6, #1
 8004478:	d1f9      	bne.n	800446e <follow_path+0x96>
 800447a:	f04f 0a00 	mov.w	sl, #0
 800447e:	f04f 0908 	mov.w	r9, #8
 8004482:	4655      	mov	r5, sl
 8004484:	f83b 0011 	ldrh.w	r0, [fp, r1, lsl #1]
 8004488:	1c4a      	adds	r2, r1, #1
 800448a:	2800      	cmp	r0, #0
 800448c:	f000 80a1 	beq.w	80045d2 <follow_path+0x1fa>
 8004490:	2820      	cmp	r0, #32
 8004492:	d004      	beq.n	800449e <follow_path+0xc6>
 8004494:	282e      	cmp	r0, #46	@ 0x2e
 8004496:	d108      	bne.n	80044aa <follow_path+0xd2>
 8004498:	42b2      	cmp	r2, r6
 800449a:	f000 808f 	beq.w	80045bc <follow_path+0x1e4>
 800449e:	f044 0403 	orr.w	r4, r4, #3
 80044a2:	4611      	mov	r1, r2
 80044a4:	e7ee      	b.n	8004484 <follow_path+0xac>
 80044a6:	3101      	adds	r1, #1
 80044a8:	e7d3      	b.n	8004452 <follow_path+0x7a>
 80044aa:	45ca      	cmp	sl, r9
 80044ac:	f080 8089 	bcs.w	80045c2 <follow_path+0x1ea>
 80044b0:	42b2      	cmp	r2, r6
 80044b2:	d111      	bne.n	80044d8 <follow_path+0x100>
 80044b4:	f1b9 0f0b 	cmp.w	r9, #11
 80044b8:	d106      	bne.n	80044c8 <follow_path+0xf0>
 80044ba:	e086      	b.n	80045ca <follow_path+0x1f2>
 80044bc:	42b2      	cmp	r2, r6
 80044be:	d003      	beq.n	80044c8 <follow_path+0xf0>
 80044c0:	f044 0403 	orr.w	r4, r4, #3
 80044c4:	f200 8085 	bhi.w	80045d2 <follow_path+0x1fa>
 80044c8:	00ad      	lsls	r5, r5, #2
 80044ca:	4632      	mov	r2, r6
 80044cc:	f04f 090b 	mov.w	r9, #11
 80044d0:	f04f 0a08 	mov.w	sl, #8
 80044d4:	b2ed      	uxtb	r5, r5
 80044d6:	e7e4      	b.n	80044a2 <follow_path+0xca>
 80044d8:	287f      	cmp	r0, #127	@ 0x7f
 80044da:	d90c      	bls.n	80044f6 <follow_path+0x11e>
 80044dc:	2100      	movs	r1, #0
 80044de:	9201      	str	r2, [sp, #4]
 80044e0:	f000 fdf0 	bl	80050c4 <ff_convert>
 80044e4:	f044 0402 	orr.w	r4, r4, #2
 80044e8:	9a01      	ldr	r2, [sp, #4]
 80044ea:	b150      	cbz	r0, 8004502 <follow_path+0x12a>
 80044ec:	4953      	ldr	r1, [pc, #332]	@ (800463c <follow_path+0x264>)
 80044ee:	4401      	add	r1, r0
 80044f0:	f811 0c80 	ldrb.w	r0, [r1, #-128]
 80044f4:	b128      	cbz	r0, 8004502 <follow_path+0x12a>
 80044f6:	4b52      	ldr	r3, [pc, #328]	@ (8004640 <follow_path+0x268>)
 80044f8:	f813 1b01 	ldrb.w	r1, [r3], #1
 80044fc:	b159      	cbz	r1, 8004516 <follow_path+0x13e>
 80044fe:	4288      	cmp	r0, r1
 8004500:	d1fa      	bne.n	80044f8 <follow_path+0x120>
 8004502:	205f      	movs	r0, #95	@ 0x5f
 8004504:	f044 0403 	orr.w	r4, r4, #3
 8004508:	f8d8 1018 	ldr.w	r1, [r8, #24]
 800450c:	f801 000a 	strb.w	r0, [r1, sl]
 8004510:	f10a 0a01 	add.w	sl, sl, #1
 8004514:	e7c5      	b.n	80044a2 <follow_path+0xca>
 8004516:	f1a0 0141 	sub.w	r1, r0, #65	@ 0x41
 800451a:	2919      	cmp	r1, #25
 800451c:	d802      	bhi.n	8004524 <follow_path+0x14c>
 800451e:	f045 0502 	orr.w	r5, r5, #2
 8004522:	e7f1      	b.n	8004508 <follow_path+0x130>
 8004524:	f1a0 0161 	sub.w	r1, r0, #97	@ 0x61
 8004528:	2919      	cmp	r1, #25
 800452a:	bf9e      	ittt	ls
 800452c:	3820      	subls	r0, #32
 800452e:	f045 0501 	orrls.w	r5, r5, #1
 8004532:	b280      	uxthls	r0, r0
 8004534:	e7e8      	b.n	8004508 <follow_path+0x130>
 8004536:	075a      	lsls	r2, r3, #29
 8004538:	f53f af69 	bmi.w	800440e <follow_path+0x36>
 800453c:	f8d8 1014 	ldr.w	r1, [r8, #20]
 8004540:	7acb      	ldrb	r3, [r1, #11]
 8004542:	06db      	lsls	r3, r3, #27
 8004544:	d538      	bpl.n	80045b8 <follow_path+0x1e0>
 8004546:	f8d8 3000 	ldr.w	r3, [r8]
 800454a:	f503 5380 	add.w	r3, r3, #4096	@ 0x1000
 800454e:	7818      	ldrb	r0, [r3, #0]
 8004550:	f7ff fc64 	bl	8003e1c <ld_clust.isra.0>
 8004554:	f8c8 0008 	str.w	r0, [r8, #8]
 8004558:	783b      	ldrb	r3, [r7, #0]
 800455a:	463d      	mov	r5, r7
 800455c:	2b2f      	cmp	r3, #47	@ 0x2f
 800455e:	f107 0701 	add.w	r7, r7, #1
 8004562:	d0f9      	beq.n	8004558 <follow_path+0x180>
 8004564:	2b5c      	cmp	r3, #92	@ 0x5c
 8004566:	d0f7      	beq.n	8004558 <follow_path+0x180>
 8004568:	2600      	movs	r6, #0
 800456a:	f8d8 b020 	ldr.w	fp, [r8, #32]
 800456e:	f105 3aff 	add.w	sl, r5, #4294967295
 8004572:	f1ab 0902 	sub.w	r9, fp, #2
 8004576:	f81a 4f01 	ldrb.w	r4, [sl, #1]!
 800457a:	1c77      	adds	r7, r6, #1
 800457c:	2c1f      	cmp	r4, #31
 800457e:	f67f af4d 	bls.w	800441c <follow_path+0x44>
 8004582:	2c2f      	cmp	r4, #47	@ 0x2f
 8004584:	f43f af4a 	beq.w	800441c <follow_path+0x44>
 8004588:	2c5c      	cmp	r4, #92	@ 0x5c
 800458a:	f43f af47 	beq.w	800441c <follow_path+0x44>
 800458e:	f5b7 7f80 	cmp.w	r7, #256	@ 0x100
 8004592:	d00f      	beq.n	80045b4 <follow_path+0x1dc>
 8004594:	2101      	movs	r1, #1
 8004596:	4620      	mov	r0, r4
 8004598:	f000 fd94 	bl	80050c4 <ff_convert>
 800459c:	b150      	cbz	r0, 80045b4 <follow_path+0x1dc>
 800459e:	287f      	cmp	r0, #127	@ 0x7f
 80045a0:	f63f af38 	bhi.w	8004414 <follow_path+0x3c>
 80045a4:	4927      	ldr	r1, [pc, #156]	@ (8004644 <follow_path+0x26c>)
 80045a6:	f811 2b01 	ldrb.w	r2, [r1], #1
 80045aa:	2a00      	cmp	r2, #0
 80045ac:	f43f af32 	beq.w	8004414 <follow_path+0x3c>
 80045b0:	4282      	cmp	r2, r0
 80045b2:	d1f8      	bne.n	80045a6 <follow_path+0x1ce>
 80045b4:	2006      	movs	r0, #6
 80045b6:	e72a      	b.n	800440e <follow_path+0x36>
 80045b8:	2005      	movs	r0, #5
 80045ba:	e728      	b.n	800440e <follow_path+0x36>
 80045bc:	45ca      	cmp	sl, r9
 80045be:	f4ff af79 	bcc.w	80044b4 <follow_path+0xdc>
 80045c2:	f1b9 0f0b 	cmp.w	r9, #11
 80045c6:	f47f af79 	bne.w	80044bc <follow_path+0xe4>
 80045ca:	f04f 090b 	mov.w	r9, #11
 80045ce:	f044 0403 	orr.w	r4, r4, #3
 80045d2:	f8d8 3018 	ldr.w	r3, [r8, #24]
 80045d6:	781a      	ldrb	r2, [r3, #0]
 80045d8:	2ae5      	cmp	r2, #229	@ 0xe5
 80045da:	bf04      	itt	eq
 80045dc:	2205      	moveq	r2, #5
 80045de:	701a      	strbeq	r2, [r3, #0]
 80045e0:	f1b9 0f08 	cmp.w	r9, #8
 80045e4:	bf04      	itt	eq
 80045e6:	00ad      	lsleq	r5, r5, #2
 80045e8:	b2ed      	uxtbeq	r5, r5
 80045ea:	f005 030c 	and.w	r3, r5, #12
 80045ee:	2b0c      	cmp	r3, #12
 80045f0:	d003      	beq.n	80045fa <follow_path+0x222>
 80045f2:	f005 0203 	and.w	r2, r5, #3
 80045f6:	2a03      	cmp	r2, #3
 80045f8:	d101      	bne.n	80045fe <follow_path+0x226>
 80045fa:	f044 0402 	orr.w	r4, r4, #2
 80045fe:	07a1      	lsls	r1, r4, #30
 8004600:	d409      	bmi.n	8004616 <follow_path+0x23e>
 8004602:	f005 0503 	and.w	r5, r5, #3
 8004606:	2d01      	cmp	r5, #1
 8004608:	bf08      	it	eq
 800460a:	f044 0410 	orreq.w	r4, r4, #16
 800460e:	2b04      	cmp	r3, #4
 8004610:	bf08      	it	eq
 8004612:	f044 0408 	orreq.w	r4, r4, #8
 8004616:	f8d8 3018 	ldr.w	r3, [r8, #24]
 800461a:	9800      	ldr	r0, [sp, #0]
 800461c:	72dc      	strb	r4, [r3, #11]
 800461e:	f7ff fe3f 	bl	80042a0 <dir_find>
 8004622:	f8d8 3018 	ldr.w	r3, [r8, #24]
 8004626:	7adb      	ldrb	r3, [r3, #11]
 8004628:	2800      	cmp	r0, #0
 800462a:	d084      	beq.n	8004536 <follow_path+0x15e>
 800462c:	2804      	cmp	r0, #4
 800462e:	f47f aeee 	bne.w	800440e <follow_path+0x36>
 8004632:	f013 0f04 	tst.w	r3, #4
 8004636:	bf08      	it	eq
 8004638:	2005      	moveq	r0, #5
 800463a:	e6e8      	b.n	800440e <follow_path+0x36>
 800463c:	08006758 	.word	0x08006758
 8004640:	080066e7 	.word	0x080066e7
 8004644:	080066de 	.word	0x080066de

08004648 <dir_register>:
 8004648:	e92d 4ff0 	stmdb	sp!, {r4, r5, r6, r7, r8, r9, sl, fp, lr}
 800464c:	f500 5480 	add.w	r4, r0, #4096	@ 0x1000
 8004650:	69a5      	ldr	r5, [r4, #24]
 8004652:	b089      	sub	sp, #36	@ 0x24
 8004654:	4606      	mov	r6, r0
 8004656:	220c      	movs	r2, #12
 8004658:	4629      	mov	r1, r5
 800465a:	a805      	add	r0, sp, #20
 800465c:	f8d4 9020 	ldr.w	r9, [r4, #32]
 8004660:	f7ff f8f8 	bl	8003854 <mem_cpy>
 8004664:	f89d b01f 	ldrb.w	fp, [sp, #31]
 8004668:	f01b 0f01 	tst.w	fp, #1
 800466c:	f000 8085 	beq.w	800477a <dir_register+0x132>
 8004670:	2300      	movs	r3, #0
 8004672:	f04f 0801 	mov.w	r8, #1
 8004676:	f8df a228 	ldr.w	sl, [pc, #552]	@ 80048a0 <dir_register+0x258>
 800467a:	72eb      	strb	r3, [r5, #11]
 800467c:	6223      	str	r3, [r4, #32]
 800467e:	220b      	movs	r2, #11
 8004680:	4628      	mov	r0, r5
 8004682:	a905      	add	r1, sp, #20
 8004684:	f7ff f8e6 	bl	8003854 <mem_cpy>
 8004688:	f1b8 0f05 	cmp.w	r8, #5
 800468c:	d953      	bls.n	8004736 <dir_register+0xee>
 800468e:	4643      	mov	r3, r8
 8004690:	f1a9 0002 	sub.w	r0, r9, #2
 8004694:	f830 2f02 	ldrh.w	r2, [r0, #2]!
 8004698:	2a00      	cmp	r2, #0
 800469a:	d13e      	bne.n	800471a <dir_register+0xd2>
 800469c:	2207      	movs	r2, #7
 800469e:	a805      	add	r0, sp, #20
 80046a0:	f003 070f 	and.w	r7, r3, #15
 80046a4:	f107 0130 	add.w	r1, r7, #48	@ 0x30
 80046a8:	2939      	cmp	r1, #57	@ 0x39
 80046aa:	bf88      	it	hi
 80046ac:	f107 0137 	addhi.w	r1, r7, #55	@ 0x37
 80046b0:	2b0f      	cmp	r3, #15
 80046b2:	f800 1d01 	strb.w	r1, [r0, #-1]!
 80046b6:	f102 32ff 	add.w	r2, r2, #4294967295
 80046ba:	ea4f 1113 	mov.w	r1, r3, lsr #4
 80046be:	d83c      	bhi.n	800473a <dir_register+0xf2>
 80046c0:	217e      	movs	r1, #126	@ 0x7e
 80046c2:	f102 0320 	add.w	r3, r2, #32
 80046c6:	446b      	add	r3, sp
 80046c8:	f803 1c14 	strb.w	r1, [r3, #-20]
 80046cc:	2300      	movs	r3, #0
 80046ce:	1e6f      	subs	r7, r5, #1
 80046d0:	4293      	cmp	r3, r2
 80046d2:	d003      	beq.n	80046dc <dir_register+0x94>
 80046d4:	1c59      	adds	r1, r3, #1
 80046d6:	5c78      	ldrb	r0, [r7, r1]
 80046d8:	2820      	cmp	r0, #32
 80046da:	d130      	bne.n	800473e <dir_register+0xf6>
 80046dc:	442b      	add	r3, r5
 80046de:	2a07      	cmp	r2, #7
 80046e0:	bf8f      	iteee	hi
 80046e2:	2120      	movhi	r1, #32
 80046e4:	f102 0120 	addls.w	r1, r2, #32
 80046e8:	4469      	addls	r1, sp
 80046ea:	f811 1c14 	ldrbls.w	r1, [r1, #-20]
 80046ee:	bf98      	it	ls
 80046f0:	3201      	addls	r2, #1
 80046f2:	f803 1b01 	strb.w	r1, [r3], #1
 80046f6:	1b59      	subs	r1, r3, r5
 80046f8:	2907      	cmp	r1, #7
 80046fa:	d9f0      	bls.n	80046de <dir_register+0x96>
 80046fc:	4630      	mov	r0, r6
 80046fe:	f7ff fdcf 	bl	80042a0 <dir_find>
 8004702:	4607      	mov	r7, r0
 8004704:	bb98      	cbnz	r0, 800476e <dir_register+0x126>
 8004706:	f108 0801 	add.w	r8, r8, #1
 800470a:	f1b8 0f64 	cmp.w	r8, #100	@ 0x64
 800470e:	d1b6      	bne.n	800467e <dir_register+0x36>
 8004710:	2707      	movs	r7, #7
 8004712:	4638      	mov	r0, r7
 8004714:	b009      	add	sp, #36	@ 0x24
 8004716:	e8bd 8ff0 	ldmia.w	sp!, {r4, r5, r6, r7, r8, r9, sl, fp, pc}
 800471a:	2110      	movs	r1, #16
 800471c:	f002 0701 	and.w	r7, r2, #1
 8004720:	eb07 0343 	add.w	r3, r7, r3, lsl #1
 8004724:	03df      	lsls	r7, r3, #15
 8004726:	bf48      	it	mi
 8004728:	ea83 030a 	eormi.w	r3, r3, sl
 800472c:	3901      	subs	r1, #1
 800472e:	ea4f 0252 	mov.w	r2, r2, lsr #1
 8004732:	d1f3      	bne.n	800471c <dir_register+0xd4>
 8004734:	e7ae      	b.n	8004694 <dir_register+0x4c>
 8004736:	4643      	mov	r3, r8
 8004738:	e7b0      	b.n	800469c <dir_register+0x54>
 800473a:	460b      	mov	r3, r1
 800473c:	e7b0      	b.n	80046a0 <dir_register+0x58>
 800473e:	460b      	mov	r3, r1
 8004740:	e7c6      	b.n	80046d0 <dir_register+0x88>
 8004742:	3501      	adds	r5, #1
 8004744:	f839 3015 	ldrh.w	r3, [r9, r5, lsl #1]
 8004748:	2b00      	cmp	r3, #0
 800474a:	d1fa      	bne.n	8004742 <dir_register+0xfa>
 800474c:	230d      	movs	r3, #13
 800474e:	3519      	adds	r5, #25
 8004750:	fbb5 f5f3 	udiv	r5, r5, r3
 8004754:	e015      	b.n	8004782 <dir_register+0x13a>
 8004756:	2500      	movs	r5, #0
 8004758:	e7f4      	b.n	8004744 <dir_register+0xfc>
 800475a:	4680      	mov	r8, r0
 800475c:	2101      	movs	r1, #1
 800475e:	4630      	mov	r0, r6
 8004760:	f7ff fd17 	bl	8004192 <dir_next>
 8004764:	4607      	mov	r7, r0
 8004766:	b1a0      	cbz	r0, 8004792 <dir_register+0x14a>
 8004768:	2f04      	cmp	r7, #4
 800476a:	d0d1      	beq.n	8004710 <dir_register+0xc8>
 800476c:	e7d1      	b.n	8004712 <dir_register+0xca>
 800476e:	2804      	cmp	r0, #4
 8004770:	d1cf      	bne.n	8004712 <dir_register+0xca>
 8004772:	f885 b00b 	strb.w	fp, [r5, #11]
 8004776:	f8c4 9020 	str.w	r9, [r4, #32]
 800477a:	f01b 0f02 	tst.w	fp, #2
 800477e:	d1ea      	bne.n	8004756 <dir_register+0x10e>
 8004780:	2501      	movs	r5, #1
 8004782:	2100      	movs	r1, #0
 8004784:	4630      	mov	r0, r6
 8004786:	f7ff fbd4 	bl	8003f32 <dir_sdi>
 800478a:	4607      	mov	r7, r0
 800478c:	2800      	cmp	r0, #0
 800478e:	d1eb      	bne.n	8004768 <dir_register+0x120>
 8004790:	4680      	mov	r8, r0
 8004792:	6921      	ldr	r1, [r4, #16]
 8004794:	6820      	ldr	r0, [r4, #0]
 8004796:	f7ff f99c 	bl	8003ad2 <move_window>
 800479a:	4607      	mov	r7, r0
 800479c:	2800      	cmp	r0, #0
 800479e:	d1e3      	bne.n	8004768 <dir_register+0x120>
 80047a0:	6963      	ldr	r3, [r4, #20]
 80047a2:	781b      	ldrb	r3, [r3, #0]
 80047a4:	2be5      	cmp	r3, #229	@ 0xe5
 80047a6:	d001      	beq.n	80047ac <dir_register+0x164>
 80047a8:	2b00      	cmp	r3, #0
 80047aa:	d1d6      	bne.n	800475a <dir_register+0x112>
 80047ac:	f108 0801 	add.w	r8, r8, #1
 80047b0:	4545      	cmp	r5, r8
 80047b2:	d1d3      	bne.n	800475c <dir_register+0x114>
 80047b4:	3d01      	subs	r5, #1
 80047b6:	d055      	beq.n	8004864 <dir_register+0x21c>
 80047b8:	88e1      	ldrh	r1, [r4, #6]
 80047ba:	4630      	mov	r0, r6
 80047bc:	1b49      	subs	r1, r1, r5
 80047be:	f7ff fbb8 	bl	8003f32 <dir_sdi>
 80047c2:	4607      	mov	r7, r0
 80047c4:	2800      	cmp	r0, #0
 80047c6:	d1a4      	bne.n	8004712 <dir_register+0xca>
 80047c8:	69a0      	ldr	r0, [r4, #24]
 80047ca:	f7ff f920 	bl	8003a0e <sum_sfn>
 80047ce:	f04f 080f 	mov.w	r8, #15
 80047d2:	f64f 79ff 	movw	r9, #65535	@ 0xffff
 80047d6:	9001      	str	r0, [sp, #4]
 80047d8:	6921      	ldr	r1, [r4, #16]
 80047da:	6820      	ldr	r0, [r4, #0]
 80047dc:	f7ff f979 	bl	8003ad2 <move_window>
 80047e0:	4603      	mov	r3, r0
 80047e2:	4607      	mov	r7, r0
 80047e4:	2800      	cmp	r0, #0
 80047e6:	d194      	bne.n	8004712 <dir_register+0xca>
 80047e8:	6962      	ldr	r2, [r4, #20]
 80047ea:	f8d4 e020 	ldr.w	lr, [r4, #32]
 80047ee:	7310      	strb	r0, [r2, #12]
 80047f0:	7690      	strb	r0, [r2, #26]
 80047f2:	76d0      	strb	r0, [r2, #27]
 80047f4:	200d      	movs	r0, #13
 80047f6:	469c      	mov	ip, r3
 80047f8:	9901      	ldr	r1, [sp, #4]
 80047fa:	b2ef      	uxtb	r7, r5
 80047fc:	7351      	strb	r1, [r2, #13]
 80047fe:	1e79      	subs	r1, r7, #1
 8004800:	4341      	muls	r1, r0
 8004802:	f8df a0a0 	ldr.w	sl, [pc, #160]	@ 80048a4 <dir_register+0x25c>
 8004806:	f882 800b 	strb.w	r8, [r2, #11]
 800480a:	454b      	cmp	r3, r9
 800480c:	bf18      	it	ne
 800480e:	f83e 3011 	ldrhne.w	r3, [lr, r1, lsl #1]
 8004812:	f81a 0b01 	ldrb.w	r0, [sl], #1
 8004816:	f10c 0c01 	add.w	ip, ip, #1
 800481a:	5413      	strb	r3, [r2, r0]
 800481c:	bf18      	it	ne
 800481e:	3101      	addne	r1, #1
 8004820:	ea4f 2b13 	mov.w	fp, r3, lsr #8
 8004824:	4410      	add	r0, r2
 8004826:	2b00      	cmp	r3, #0
 8004828:	bf08      	it	eq
 800482a:	464b      	moveq	r3, r9
 800482c:	f1bc 0f0d 	cmp.w	ip, #13
 8004830:	f880 b001 	strb.w	fp, [r0, #1]
 8004834:	d1e9      	bne.n	800480a <dir_register+0x1c2>
 8004836:	454b      	cmp	r3, r9
 8004838:	d002      	beq.n	8004840 <dir_register+0x1f8>
 800483a:	f83e 3011 	ldrh.w	r3, [lr, r1, lsl #1]
 800483e:	b90b      	cbnz	r3, 8004844 <dir_register+0x1fc>
 8004840:	f047 0740 	orr.w	r7, r7, #64	@ 0x40
 8004844:	7017      	strb	r7, [r2, #0]
 8004846:	2201      	movs	r2, #1
 8004848:	6823      	ldr	r3, [r4, #0]
 800484a:	2100      	movs	r1, #0
 800484c:	f503 5380 	add.w	r3, r3, #4096	@ 0x1000
 8004850:	4630      	mov	r0, r6
 8004852:	711a      	strb	r2, [r3, #4]
 8004854:	f7ff fc9d 	bl	8004192 <dir_next>
 8004858:	4607      	mov	r7, r0
 800485a:	2800      	cmp	r0, #0
 800485c:	f47f af59 	bne.w	8004712 <dir_register+0xca>
 8004860:	3d01      	subs	r5, #1
 8004862:	d1b9      	bne.n	80047d8 <dir_register+0x190>
 8004864:	6921      	ldr	r1, [r4, #16]
 8004866:	6820      	ldr	r0, [r4, #0]
 8004868:	f7ff f933 	bl	8003ad2 <move_window>
 800486c:	4607      	mov	r7, r0
 800486e:	2800      	cmp	r0, #0
 8004870:	f47f af4f 	bne.w	8004712 <dir_register+0xca>
 8004874:	4601      	mov	r1, r0
 8004876:	2220      	movs	r2, #32
 8004878:	6960      	ldr	r0, [r4, #20]
 800487a:	f7fe fff5 	bl	8003868 <mem_set>
 800487e:	e9d4 0105 	ldrd	r0, r1, [r4, #20]
 8004882:	220b      	movs	r2, #11
 8004884:	f7fe ffe6 	bl	8003854 <mem_cpy>
 8004888:	e9d4 2305 	ldrd	r2, r3, [r4, #20]
 800488c:	7adb      	ldrb	r3, [r3, #11]
 800488e:	f003 0318 	and.w	r3, r3, #24
 8004892:	7313      	strb	r3, [r2, #12]
 8004894:	2201      	movs	r2, #1
 8004896:	6823      	ldr	r3, [r4, #0]
 8004898:	f503 5380 	add.w	r3, r3, #4096	@ 0x1000
 800489c:	711a      	strb	r2, [r3, #4]
 800489e:	e738      	b.n	8004712 <dir_register+0xca>
 80048a0:	00011021 	.word	0x00011021
 80048a4:	0800674b 	.word	0x0800674b

080048a8 <remove_chain>:
 80048a8:	2901      	cmp	r1, #1
 80048aa:	b5f8      	push	{r3, r4, r5, r6, r7, lr}
 80048ac:	4607      	mov	r7, r0
 80048ae:	460c      	mov	r4, r1
 80048b0:	d801      	bhi.n	80048b6 <remove_chain+0xe>
 80048b2:	2002      	movs	r0, #2
 80048b4:	bdf8      	pop	{r3, r4, r5, r6, r7, pc}
 80048b6:	f500 5580 	add.w	r5, r0, #4096	@ 0x1000
 80048ba:	696b      	ldr	r3, [r5, #20]
 80048bc:	428b      	cmp	r3, r1
 80048be:	d9f8      	bls.n	80048b2 <remove_chain+0xa>
 80048c0:	696b      	ldr	r3, [r5, #20]
 80048c2:	42a3      	cmp	r3, r4
 80048c4:	d905      	bls.n	80048d2 <remove_chain+0x2a>
 80048c6:	4621      	mov	r1, r4
 80048c8:	4638      	mov	r0, r7
 80048ca:	f7ff fabc 	bl	8003e46 <get_fat>
 80048ce:	4606      	mov	r6, r0
 80048d0:	b908      	cbnz	r0, 80048d6 <remove_chain+0x2e>
 80048d2:	2000      	movs	r0, #0
 80048d4:	e7ee      	b.n	80048b4 <remove_chain+0xc>
 80048d6:	2801      	cmp	r0, #1
 80048d8:	d0eb      	beq.n	80048b2 <remove_chain+0xa>
 80048da:	1c41      	adds	r1, r0, #1
 80048dc:	d011      	beq.n	8004902 <remove_chain+0x5a>
 80048de:	2200      	movs	r2, #0
 80048e0:	4621      	mov	r1, r4
 80048e2:	4638      	mov	r0, r7
 80048e4:	f7ff fb70 	bl	8003fc8 <put_fat>
 80048e8:	2800      	cmp	r0, #0
 80048ea:	d1e3      	bne.n	80048b4 <remove_chain+0xc>
 80048ec:	692b      	ldr	r3, [r5, #16]
 80048ee:	1c5a      	adds	r2, r3, #1
 80048f0:	d005      	beq.n	80048fe <remove_chain+0x56>
 80048f2:	3301      	adds	r3, #1
 80048f4:	612b      	str	r3, [r5, #16]
 80048f6:	796b      	ldrb	r3, [r5, #5]
 80048f8:	f043 0301 	orr.w	r3, r3, #1
 80048fc:	716b      	strb	r3, [r5, #5]
 80048fe:	4634      	mov	r4, r6
 8004900:	e7de      	b.n	80048c0 <remove_chain+0x18>
 8004902:	2001      	movs	r0, #1
 8004904:	e7d6      	b.n	80048b4 <remove_chain+0xc>
	...

08004908 <f_mount>:
 8004908:	b530      	push	{r4, r5, lr}
 800490a:	b085      	sub	sp, #20
 800490c:	e9cd 1000 	strd	r1, r0, [sp]
 8004910:	a803      	add	r0, sp, #12
 8004912:	9103      	str	r1, [sp, #12]
 8004914:	4614      	mov	r4, r2
 8004916:	f7ff f889 	bl	8003a2c <get_ldnumber>
 800491a:	1e01      	subs	r1, r0, #0
 800491c:	db1d      	blt.n	800495a <f_mount+0x52>
 800491e:	4d10      	ldr	r5, [pc, #64]	@ (8004960 <f_mount+0x58>)
 8004920:	f855 0021 	ldr.w	r0, [r5, r1, lsl #2]
 8004924:	b128      	cbz	r0, 8004932 <f_mount+0x2a>
 8004926:	f7ff f84d 	bl	80039c4 <clear_lock>
 800492a:	2300      	movs	r3, #0
 800492c:	f500 5080 	add.w	r0, r0, #4096	@ 0x1000
 8004930:	7003      	strb	r3, [r0, #0]
 8004932:	9b01      	ldr	r3, [sp, #4]
 8004934:	b923      	cbnz	r3, 8004940 <f_mount+0x38>
 8004936:	f845 3021 	str.w	r3, [r5, r1, lsl #2]
 800493a:	2000      	movs	r0, #0
 800493c:	b005      	add	sp, #20
 800493e:	bd30      	pop	{r4, r5, pc}
 8004940:	2200      	movs	r2, #0
 8004942:	f503 5080 	add.w	r0, r3, #4096	@ 0x1000
 8004946:	2c01      	cmp	r4, #1
 8004948:	7002      	strb	r2, [r0, #0]
 800494a:	f845 3021 	str.w	r3, [r5, r1, lsl #2]
 800494e:	d1f4      	bne.n	800493a <f_mount+0x32>
 8004950:	4669      	mov	r1, sp
 8004952:	a801      	add	r0, sp, #4
 8004954:	f7ff f900 	bl	8003b58 <find_volume>
 8004958:	e7f0      	b.n	800493c <f_mount+0x34>
 800495a:	200b      	movs	r0, #11
 800495c:	e7ee      	b.n	800493c <f_mount+0x34>
 800495e:	bf00      	nop
 8004960:	20002454 	.word	0x20002454

08004964 <f_open>:
 8004964:	e92d 4ff0 	stmdb	sp!, {r4, r5, r6, r7, r8, r9, sl, fp, lr}
 8004968:	f5ad 5d82 	sub.w	sp, sp, #4160	@ 0x1040
 800496c:	b081      	sub	sp, #4
 800496e:	ac10      	add	r4, sp, #64	@ 0x40
 8004970:	4690      	mov	r8, r2
 8004972:	f844 1c3c 	str.w	r1, [r4, #-60]
 8004976:	2800      	cmp	r0, #0
 8004978:	f000 80c3 	beq.w	8004b02 <f_open+0x19e>
 800497c:	2300      	movs	r3, #0
 800497e:	f500 5580 	add.w	r5, r0, #4096	@ 0x1000
 8004982:	f002 071e 	and.w	r7, r2, #30
 8004986:	f50d 5080 	add.w	r0, sp, #4096	@ 0x1000
 800498a:	463a      	mov	r2, r7
 800498c:	602b      	str	r3, [r5, #0]
 800498e:	a901      	add	r1, sp, #4
 8004990:	3018      	adds	r0, #24
 8004992:	f7ff f8e1 	bl	8003b58 <find_volume>
 8004996:	2800      	cmp	r0, #0
 8004998:	f040 8097 	bne.w	8004aca <f_open+0x166>
 800499c:	ab03      	add	r3, sp, #12
 800499e:	f8c4 3ff0 	str.w	r3, [r4, #4080]	@ 0xff0
 80049a2:	4b5c      	ldr	r3, [pc, #368]	@ (8004b14 <f_open+0x1b0>)
 80049a4:	f854 1c3c 	ldr.w	r1, [r4, #-60]
 80049a8:	a806      	add	r0, sp, #24
 80049aa:	f8c4 3ff8 	str.w	r3, [r4, #4088]	@ 0xff8
 80049ae:	f7ff fd13 	bl	80043d8 <follow_path>
 80049b2:	f8d4 6fec 	ldr.w	r6, [r4, #4076]	@ 0xfec
 80049b6:	b940      	cbnz	r0, 80049ca <f_open+0x66>
 80049b8:	2e00      	cmp	r6, #0
 80049ba:	f000 808b 	beq.w	8004ad4 <f_open+0x170>
 80049be:	1e39      	subs	r1, r7, #0
 80049c0:	bf18      	it	ne
 80049c2:	2101      	movne	r1, #1
 80049c4:	a806      	add	r0, sp, #24
 80049c6:	f7fe ff57 	bl	8003878 <chk_lock>
 80049ca:	f018 0f1c 	tst.w	r8, #28
 80049ce:	f008 071f 	and.w	r7, r8, #31
 80049d2:	f000 808a 	beq.w	8004aea <f_open+0x186>
 80049d6:	2800      	cmp	r0, #0
 80049d8:	d07e      	beq.n	8004ad8 <f_open+0x174>
 80049da:	2804      	cmp	r0, #4
 80049dc:	d175      	bne.n	8004aca <f_open+0x166>
 80049de:	4b4e      	ldr	r3, [pc, #312]	@ (8004b18 <f_open+0x1b4>)
 80049e0:	681a      	ldr	r2, [r3, #0]
 80049e2:	b11a      	cbz	r2, 80049ec <f_open+0x88>
 80049e4:	68db      	ldr	r3, [r3, #12]
 80049e6:	2b00      	cmp	r3, #0
 80049e8:	f040 808d 	bne.w	8004b06 <f_open+0x1a2>
 80049ec:	a806      	add	r0, sp, #24
 80049ee:	f7ff fe2b 	bl	8004648 <dir_register>
 80049f2:	2800      	cmp	r0, #0
 80049f4:	d169      	bne.n	8004aca <f_open+0x166>
 80049f6:	f8d4 6fec 	ldr.w	r6, [r4, #4076]	@ 0xfec
 80049fa:	f047 0708 	orr.w	r7, r7, #8
 80049fe:	0738      	lsls	r0, r7, #28
 8004a00:	f8d4 9fd8 	ldr.w	r9, [r4, #4056]	@ 0xfd8
 8004a04:	d53b      	bpl.n	8004a7e <f_open+0x11a>
 8004a06:	f7fe fec7 	bl	8003798 <get_fattime>
 8004a0a:	f04f 0800 	mov.w	r8, #0
 8004a0e:	f3c0 2307 	ubfx	r3, r0, #8, #8
 8004a12:	73b0      	strb	r0, [r6, #14]
 8004a14:	73f3      	strb	r3, [r6, #15]
 8004a16:	0c03      	lsrs	r3, r0, #16
 8004a18:	0e00      	lsrs	r0, r0, #24
 8004a1a:	7433      	strb	r3, [r6, #16]
 8004a1c:	7470      	strb	r0, [r6, #17]
 8004a1e:	f886 800b 	strb.w	r8, [r6, #11]
 8004a22:	f886 801c 	strb.w	r8, [r6, #28]
 8004a26:	f886 801d 	strb.w	r8, [r6, #29]
 8004a2a:	f886 801e 	strb.w	r8, [r6, #30]
 8004a2e:	f886 801f 	strb.w	r8, [r6, #31]
 8004a32:	f509 5a80 	add.w	sl, r9, #4096	@ 0x1000
 8004a36:	f89a 0000 	ldrb.w	r0, [sl]
 8004a3a:	4631      	mov	r1, r6
 8004a3c:	f7ff f9ee 	bl	8003e1c <ld_clust.isra.0>
 8004a40:	2301      	movs	r3, #1
 8004a42:	f886 801a 	strb.w	r8, [r6, #26]
 8004a46:	f886 801b 	strb.w	r8, [r6, #27]
 8004a4a:	f886 8014 	strb.w	r8, [r6, #20]
 8004a4e:	f886 8015 	strb.w	r8, [r6, #21]
 8004a52:	4683      	mov	fp, r0
 8004a54:	f88a 3004 	strb.w	r3, [sl, #4]
 8004a58:	b178      	cbz	r0, 8004a7a <f_open+0x116>
 8004a5a:	4601      	mov	r1, r0
 8004a5c:	4648      	mov	r0, r9
 8004a5e:	f8da 802c 	ldr.w	r8, [sl, #44]	@ 0x2c
 8004a62:	f7ff ff21 	bl	80048a8 <remove_chain>
 8004a66:	bb80      	cbnz	r0, 8004aca <f_open+0x166>
 8004a68:	f10b 30ff 	add.w	r0, fp, #4294967295
 8004a6c:	f8ca 000c 	str.w	r0, [sl, #12]
 8004a70:	4641      	mov	r1, r8
 8004a72:	4648      	mov	r0, r9
 8004a74:	f7ff f82d 	bl	8003ad2 <move_window>
 8004a78:	bb38      	cbnz	r0, 8004aca <f_open+0x166>
 8004a7a:	f047 0720 	orr.w	r7, r7, #32
 8004a7e:	f8d4 9fd8 	ldr.w	r9, [r4, #4056]	@ 0xfd8
 8004a82:	2f01      	cmp	r7, #1
 8004a84:	f509 5880 	add.w	r8, r9, #4096	@ 0x1000
 8004a88:	f8d8 302c 	ldr.w	r3, [r8, #44]	@ 0x2c
 8004a8c:	bf94      	ite	ls
 8004a8e:	2100      	movls	r1, #0
 8004a90:	2101      	movhi	r1, #1
 8004a92:	e9c5 3607 	strd	r3, r6, [r5, #28]
 8004a96:	a806      	add	r0, sp, #24
 8004a98:	f7fe ff2c 	bl	80038f4 <inc_lock>
 8004a9c:	62a8      	str	r0, [r5, #40]	@ 0x28
 8004a9e:	2800      	cmp	r0, #0
 8004aa0:	d035      	beq.n	8004b0e <f_open+0x1aa>
 8004aa2:	2400      	movs	r4, #0
 8004aa4:	71af      	strb	r7, [r5, #6]
 8004aa6:	71ec      	strb	r4, [r5, #7]
 8004aa8:	f898 0000 	ldrb.w	r0, [r8]
 8004aac:	4631      	mov	r1, r6
 8004aae:	f7ff f9b5 	bl	8003e1c <ld_clust.isra.0>
 8004ab2:	6128      	str	r0, [r5, #16]
 8004ab4:	4620      	mov	r0, r4
 8004ab6:	69f3      	ldr	r3, [r6, #28]
 8004ab8:	61ac      	str	r4, [r5, #24]
 8004aba:	e9c5 4302 	strd	r4, r3, [r5, #8]
 8004abe:	f8b8 3006 	ldrh.w	r3, [r8, #6]
 8004ac2:	626c      	str	r4, [r5, #36]	@ 0x24
 8004ac4:	f8c5 9000 	str.w	r9, [r5]
 8004ac8:	80ab      	strh	r3, [r5, #4]
 8004aca:	f50d 5d82 	add.w	sp, sp, #4160	@ 0x1040
 8004ace:	b001      	add	sp, #4
 8004ad0:	e8bd 8ff0 	ldmia.w	sp!, {r4, r5, r6, r7, r8, r9, sl, fp, pc}
 8004ad4:	2006      	movs	r0, #6
 8004ad6:	e778      	b.n	80049ca <f_open+0x66>
 8004ad8:	7af3      	ldrb	r3, [r6, #11]
 8004ada:	f013 0f11 	tst.w	r3, #17
 8004ade:	d10e      	bne.n	8004afe <f_open+0x19a>
 8004ae0:	f018 0f04 	tst.w	r8, #4
 8004ae4:	d08b      	beq.n	80049fe <f_open+0x9a>
 8004ae6:	2008      	movs	r0, #8
 8004ae8:	e7ef      	b.n	8004aca <f_open+0x166>
 8004aea:	2800      	cmp	r0, #0
 8004aec:	d1ed      	bne.n	8004aca <f_open+0x166>
 8004aee:	7af3      	ldrb	r3, [r6, #11]
 8004af0:	06da      	lsls	r2, r3, #27
 8004af2:	d40a      	bmi.n	8004b0a <f_open+0x1a6>
 8004af4:	f018 0f02 	tst.w	r8, #2
 8004af8:	d0c1      	beq.n	8004a7e <f_open+0x11a>
 8004afa:	07db      	lsls	r3, r3, #31
 8004afc:	d5bf      	bpl.n	8004a7e <f_open+0x11a>
 8004afe:	2007      	movs	r0, #7
 8004b00:	e7e3      	b.n	8004aca <f_open+0x166>
 8004b02:	2009      	movs	r0, #9
 8004b04:	e7e1      	b.n	8004aca <f_open+0x166>
 8004b06:	2012      	movs	r0, #18
 8004b08:	e7df      	b.n	8004aca <f_open+0x166>
 8004b0a:	2004      	movs	r0, #4
 8004b0c:	e7dd      	b.n	8004aca <f_open+0x166>
 8004b0e:	2002      	movs	r0, #2
 8004b10:	e7db      	b.n	8004aca <f_open+0x166>
 8004b12:	bf00      	nop
 8004b14:	20002236 	.word	0x20002236
 8004b18:	20002438 	.word	0x20002438

08004b1c <f_write>:
 8004b1c:	e92d 4ff7 	stmdb	sp!, {r0, r1, r2, r4, r5, r6, r7, r8, r9, sl, fp, lr}
 8004b20:	469a      	mov	sl, r3
 8004b22:	2300      	movs	r3, #0
 8004b24:	f8ca 3000 	str.w	r3, [sl]
 8004b28:	4680      	mov	r8, r0
 8004b2a:	4689      	mov	r9, r1
 8004b2c:	4616      	mov	r6, r2
 8004b2e:	f7fe ffba 	bl	8003aa6 <validate>
 8004b32:	4605      	mov	r5, r0
 8004b34:	2800      	cmp	r0, #0
 8004b36:	d13c      	bne.n	8004bb2 <f_write+0x96>
 8004b38:	f508 5480 	add.w	r4, r8, #4096	@ 0x1000
 8004b3c:	79e5      	ldrb	r5, [r4, #7]
 8004b3e:	2d00      	cmp	r5, #0
 8004b40:	d137      	bne.n	8004bb2 <f_write+0x96>
 8004b42:	79a3      	ldrb	r3, [r4, #6]
 8004b44:	0799      	lsls	r1, r3, #30
 8004b46:	f140 80bd 	bpl.w	8004cc4 <f_write+0x1a8>
 8004b4a:	68a3      	ldr	r3, [r4, #8]
 8004b4c:	42de      	cmn	r6, r3
 8004b4e:	bf28      	it	cs
 8004b50:	2600      	movcs	r6, #0
 8004b52:	68a1      	ldr	r1, [r4, #8]
 8004b54:	b1ee      	cbz	r6, 8004b92 <f_write+0x76>
 8004b56:	6820      	ldr	r0, [r4, #0]
 8004b58:	f500 5780 	add.w	r7, r0, #4096	@ 0x1000
 8004b5c:	897b      	ldrh	r3, [r7, #10]
 8004b5e:	fbb1 f2f3 	udiv	r2, r1, r3
 8004b62:	fb03 1312 	mls	r3, r3, r2, r1
 8004b66:	2b00      	cmp	r3, #0
 8004b68:	f040 8093 	bne.w	8004c92 <f_write+0x176>
 8004b6c:	78bf      	ldrb	r7, [r7, #2]
 8004b6e:	3f01      	subs	r7, #1
 8004b70:	4017      	ands	r7, r2
 8004b72:	f017 07ff 	ands.w	r7, r7, #255	@ 0xff
 8004b76:	d128      	bne.n	8004bca <f_write+0xae>
 8004b78:	b921      	cbnz	r1, 8004b84 <f_write+0x68>
 8004b7a:	6921      	ldr	r1, [r4, #16]
 8004b7c:	b9a9      	cbnz	r1, 8004baa <f_write+0x8e>
 8004b7e:	f7ff faae 	bl	80040de <create_chain>
 8004b82:	e004      	b.n	8004b8e <f_write+0x72>
 8004b84:	6a63      	ldr	r3, [r4, #36]	@ 0x24
 8004b86:	b173      	cbz	r3, 8004ba6 <f_write+0x8a>
 8004b88:	4640      	mov	r0, r8
 8004b8a:	f7fe ff29 	bl	80039e0 <clmt_clust>
 8004b8e:	4601      	mov	r1, r0
 8004b90:	b958      	cbnz	r0, 8004baa <f_write+0x8e>
 8004b92:	e9d4 3202 	ldrd	r3, r2, [r4, #8]
 8004b96:	4293      	cmp	r3, r2
 8004b98:	f200 8092 	bhi.w	8004cc0 <f_write+0x1a4>
 8004b9c:	79a3      	ldrb	r3, [r4, #6]
 8004b9e:	f043 0320 	orr.w	r3, r3, #32
 8004ba2:	71a3      	strb	r3, [r4, #6]
 8004ba4:	e005      	b.n	8004bb2 <f_write+0x96>
 8004ba6:	6961      	ldr	r1, [r4, #20]
 8004ba8:	e7e9      	b.n	8004b7e <f_write+0x62>
 8004baa:	2901      	cmp	r1, #1
 8004bac:	d105      	bne.n	8004bba <f_write+0x9e>
 8004bae:	2502      	movs	r5, #2
 8004bb0:	71e5      	strb	r5, [r4, #7]
 8004bb2:	4628      	mov	r0, r5
 8004bb4:	b003      	add	sp, #12
 8004bb6:	e8bd 8ff0 	ldmia.w	sp!, {r4, r5, r6, r7, r8, r9, sl, fp, pc}
 8004bba:	1c4a      	adds	r2, r1, #1
 8004bbc:	d101      	bne.n	8004bc2 <f_write+0xa6>
 8004bbe:	2501      	movs	r5, #1
 8004bc0:	e7f6      	b.n	8004bb0 <f_write+0x94>
 8004bc2:	6923      	ldr	r3, [r4, #16]
 8004bc4:	6161      	str	r1, [r4, #20]
 8004bc6:	b903      	cbnz	r3, 8004bca <f_write+0xae>
 8004bc8:	6121      	str	r1, [r4, #16]
 8004bca:	79a3      	ldrb	r3, [r4, #6]
 8004bcc:	6820      	ldr	r0, [r4, #0]
 8004bce:	065b      	lsls	r3, r3, #25
 8004bd0:	d50d      	bpl.n	8004bee <f_write+0xd2>
 8004bd2:	f500 5080 	add.w	r0, r0, #4096	@ 0x1000
 8004bd6:	2301      	movs	r3, #1
 8004bd8:	4641      	mov	r1, r8
 8004bda:	69a2      	ldr	r2, [r4, #24]
 8004bdc:	7840      	ldrb	r0, [r0, #1]
 8004bde:	f7fe fe1f 	bl	8003820 <disk_write>
 8004be2:	2800      	cmp	r0, #0
 8004be4:	d1eb      	bne.n	8004bbe <f_write+0xa2>
 8004be6:	79a3      	ldrb	r3, [r4, #6]
 8004be8:	f023 0340 	bic.w	r3, r3, #64	@ 0x40
 8004bec:	71a3      	strb	r3, [r4, #6]
 8004bee:	6822      	ldr	r2, [r4, #0]
 8004bf0:	6961      	ldr	r1, [r4, #20]
 8004bf2:	4610      	mov	r0, r2
 8004bf4:	f7ff f91a 	bl	8003e2c <clust2sect>
 8004bf8:	2800      	cmp	r0, #0
 8004bfa:	d0d8      	beq.n	8004bae <f_write+0x92>
 8004bfc:	eb00 0b07 	add.w	fp, r0, r7
 8004c00:	f502 5080 	add.w	r0, r2, #4096	@ 0x1000
 8004c04:	8943      	ldrh	r3, [r0, #10]
 8004c06:	42b3      	cmp	r3, r6
 8004c08:	d832      	bhi.n	8004c70 <f_write+0x154>
 8004c0a:	fbb6 f3f3 	udiv	r3, r6, r3
 8004c0e:	7882      	ldrb	r2, [r0, #2]
 8004c10:	18f9      	adds	r1, r7, r3
 8004c12:	4291      	cmp	r1, r2
 8004c14:	bf88      	it	hi
 8004c16:	1bd3      	subhi	r3, r2, r7
 8004c18:	4649      	mov	r1, r9
 8004c1a:	465a      	mov	r2, fp
 8004c1c:	7840      	ldrb	r0, [r0, #1]
 8004c1e:	9301      	str	r3, [sp, #4]
 8004c20:	f7fe fdfe 	bl	8003820 <disk_write>
 8004c24:	2800      	cmp	r0, #0
 8004c26:	d1ca      	bne.n	8004bbe <f_write+0xa2>
 8004c28:	69a1      	ldr	r1, [r4, #24]
 8004c2a:	9b01      	ldr	r3, [sp, #4]
 8004c2c:	eba1 010b 	sub.w	r1, r1, fp
 8004c30:	428b      	cmp	r3, r1
 8004c32:	d90d      	bls.n	8004c50 <f_write+0x134>
 8004c34:	6822      	ldr	r2, [r4, #0]
 8004c36:	4640      	mov	r0, r8
 8004c38:	f502 5280 	add.w	r2, r2, #4096	@ 0x1000
 8004c3c:	8952      	ldrh	r2, [r2, #10]
 8004c3e:	fb02 9101 	mla	r1, r2, r1, r9
 8004c42:	f7fe fe07 	bl	8003854 <mem_cpy>
 8004c46:	79a2      	ldrb	r2, [r4, #6]
 8004c48:	9b01      	ldr	r3, [sp, #4]
 8004c4a:	f022 0240 	bic.w	r2, r2, #64	@ 0x40
 8004c4e:	71a2      	strb	r2, [r4, #6]
 8004c50:	6822      	ldr	r2, [r4, #0]
 8004c52:	f502 5280 	add.w	r2, r2, #4096	@ 0x1000
 8004c56:	8957      	ldrh	r7, [r2, #10]
 8004c58:	435f      	muls	r7, r3
 8004c5a:	68a3      	ldr	r3, [r4, #8]
 8004c5c:	44b9      	add	r9, r7
 8004c5e:	443b      	add	r3, r7
 8004c60:	60a3      	str	r3, [r4, #8]
 8004c62:	f8da 3000 	ldr.w	r3, [sl]
 8004c66:	1bf6      	subs	r6, r6, r7
 8004c68:	443b      	add	r3, r7
 8004c6a:	f8ca 3000 	str.w	r3, [sl]
 8004c6e:	e770      	b.n	8004b52 <f_write+0x36>
 8004c70:	69a2      	ldr	r2, [r4, #24]
 8004c72:	68a3      	ldr	r3, [r4, #8]
 8004c74:	4593      	cmp	fp, r2
 8004c76:	d00a      	beq.n	8004c8e <f_write+0x172>
 8004c78:	68e2      	ldr	r2, [r4, #12]
 8004c7a:	429a      	cmp	r2, r3
 8004c7c:	d907      	bls.n	8004c8e <f_write+0x172>
 8004c7e:	2301      	movs	r3, #1
 8004c80:	465a      	mov	r2, fp
 8004c82:	4641      	mov	r1, r8
 8004c84:	7840      	ldrb	r0, [r0, #1]
 8004c86:	f7fe fdbd 	bl	8003804 <disk_read>
 8004c8a:	2800      	cmp	r0, #0
 8004c8c:	d197      	bne.n	8004bbe <f_write+0xa2>
 8004c8e:	f8c4 b018 	str.w	fp, [r4, #24]
 8004c92:	6823      	ldr	r3, [r4, #0]
 8004c94:	68a0      	ldr	r0, [r4, #8]
 8004c96:	f503 5380 	add.w	r3, r3, #4096	@ 0x1000
 8004c9a:	895f      	ldrh	r7, [r3, #10]
 8004c9c:	4649      	mov	r1, r9
 8004c9e:	fbb0 f3f7 	udiv	r3, r0, r7
 8004ca2:	fb07 0013 	mls	r0, r7, r3, r0
 8004ca6:	1a3f      	subs	r7, r7, r0
 8004ca8:	42b7      	cmp	r7, r6
 8004caa:	bf28      	it	cs
 8004cac:	4637      	movcs	r7, r6
 8004cae:	4440      	add	r0, r8
 8004cb0:	463a      	mov	r2, r7
 8004cb2:	f7fe fdcf 	bl	8003854 <mem_cpy>
 8004cb6:	79a3      	ldrb	r3, [r4, #6]
 8004cb8:	f043 0340 	orr.w	r3, r3, #64	@ 0x40
 8004cbc:	71a3      	strb	r3, [r4, #6]
 8004cbe:	e7cc      	b.n	8004c5a <f_write+0x13e>
 8004cc0:	60e3      	str	r3, [r4, #12]
 8004cc2:	e76b      	b.n	8004b9c <f_write+0x80>
 8004cc4:	2507      	movs	r5, #7
 8004cc6:	e774      	b.n	8004bb2 <f_write+0x96>

08004cc8 <putc_bfd>:
 8004cc8:	290a      	cmp	r1, #10
 8004cca:	b573      	push	{r0, r1, r4, r5, r6, lr}
 8004ccc:	4604      	mov	r4, r0
 8004cce:	460e      	mov	r6, r1
 8004cd0:	d102      	bne.n	8004cd8 <putc_bfd+0x10>
 8004cd2:	210d      	movs	r1, #13
 8004cd4:	f7ff fff8 	bl	8004cc8 <putc_bfd>
 8004cd8:	6863      	ldr	r3, [r4, #4]
 8004cda:	2b00      	cmp	r3, #0
 8004cdc:	db14      	blt.n	8004d08 <putc_bfd+0x40>
 8004cde:	1c5d      	adds	r5, r3, #1
 8004ce0:	2d3c      	cmp	r5, #60	@ 0x3c
 8004ce2:	4423      	add	r3, r4
 8004ce4:	731e      	strb	r6, [r3, #12]
 8004ce6:	dd0b      	ble.n	8004d00 <putc_bfd+0x38>
 8004ce8:	462a      	mov	r2, r5
 8004cea:	ab01      	add	r3, sp, #4
 8004cec:	6820      	ldr	r0, [r4, #0]
 8004cee:	f104 010c 	add.w	r1, r4, #12
 8004cf2:	f7ff ff13 	bl	8004b1c <f_write>
 8004cf6:	9b01      	ldr	r3, [sp, #4]
 8004cf8:	1b5d      	subs	r5, r3, r5
 8004cfa:	bf18      	it	ne
 8004cfc:	f04f 35ff 	movne.w	r5, #4294967295
 8004d00:	68a3      	ldr	r3, [r4, #8]
 8004d02:	6065      	str	r5, [r4, #4]
 8004d04:	3301      	adds	r3, #1
 8004d06:	60a3      	str	r3, [r4, #8]
 8004d08:	b002      	add	sp, #8
 8004d0a:	bd70      	pop	{r4, r5, r6, pc}

08004d0c <f_sync>:
 8004d0c:	b570      	push	{r4, r5, r6, lr}
 8004d0e:	4605      	mov	r5, r0
 8004d10:	f7fe fec9 	bl	8003aa6 <validate>
 8004d14:	2800      	cmp	r0, #0
 8004d16:	d14d      	bne.n	8004db4 <f_sync+0xa8>
 8004d18:	f505 5480 	add.w	r4, r5, #4096	@ 0x1000
 8004d1c:	79a3      	ldrb	r3, [r4, #6]
 8004d1e:	f013 0020 	ands.w	r0, r3, #32
 8004d22:	d047      	beq.n	8004db4 <f_sync+0xa8>
 8004d24:	065b      	lsls	r3, r3, #25
 8004d26:	6820      	ldr	r0, [r4, #0]
 8004d28:	d50d      	bpl.n	8004d46 <f_sync+0x3a>
 8004d2a:	f500 5080 	add.w	r0, r0, #4096	@ 0x1000
 8004d2e:	2301      	movs	r3, #1
 8004d30:	4629      	mov	r1, r5
 8004d32:	69a2      	ldr	r2, [r4, #24]
 8004d34:	7840      	ldrb	r0, [r0, #1]
 8004d36:	f7fe fd73 	bl	8003820 <disk_write>
 8004d3a:	2800      	cmp	r0, #0
 8004d3c:	d139      	bne.n	8004db2 <f_sync+0xa6>
 8004d3e:	79a3      	ldrb	r3, [r4, #6]
 8004d40:	f023 0340 	bic.w	r3, r3, #64	@ 0x40
 8004d44:	71a3      	strb	r3, [r4, #6]
 8004d46:	69e1      	ldr	r1, [r4, #28]
 8004d48:	6820      	ldr	r0, [r4, #0]
 8004d4a:	f7fe fec2 	bl	8003ad2 <move_window>
 8004d4e:	4606      	mov	r6, r0
 8004d50:	bb80      	cbnz	r0, 8004db4 <f_sync+0xa8>
 8004d52:	6a25      	ldr	r5, [r4, #32]
 8004d54:	7aeb      	ldrb	r3, [r5, #11]
 8004d56:	f043 0320 	orr.w	r3, r3, #32
 8004d5a:	72eb      	strb	r3, [r5, #11]
 8004d5c:	68e3      	ldr	r3, [r4, #12]
 8004d5e:	772b      	strb	r3, [r5, #28]
 8004d60:	89a3      	ldrh	r3, [r4, #12]
 8004d62:	0a1b      	lsrs	r3, r3, #8
 8004d64:	776b      	strb	r3, [r5, #29]
 8004d66:	89e3      	ldrh	r3, [r4, #14]
 8004d68:	77ab      	strb	r3, [r5, #30]
 8004d6a:	7be3      	ldrb	r3, [r4, #15]
 8004d6c:	77eb      	strb	r3, [r5, #31]
 8004d6e:	6923      	ldr	r3, [r4, #16]
 8004d70:	f3c3 2207 	ubfx	r2, r3, #8, #8
 8004d74:	76ab      	strb	r3, [r5, #26]
 8004d76:	0c1b      	lsrs	r3, r3, #16
 8004d78:	752b      	strb	r3, [r5, #20]
 8004d7a:	0a1b      	lsrs	r3, r3, #8
 8004d7c:	76ea      	strb	r2, [r5, #27]
 8004d7e:	756b      	strb	r3, [r5, #21]
 8004d80:	f7fe fd0a 	bl	8003798 <get_fattime>
 8004d84:	2201      	movs	r2, #1
 8004d86:	f3c0 2307 	ubfx	r3, r0, #8, #8
 8004d8a:	75eb      	strb	r3, [r5, #23]
 8004d8c:	0c03      	lsrs	r3, r0, #16
 8004d8e:	762b      	strb	r3, [r5, #24]
 8004d90:	0e03      	lsrs	r3, r0, #24
 8004d92:	75a8      	strb	r0, [r5, #22]
 8004d94:	766b      	strb	r3, [r5, #25]
 8004d96:	74ae      	strb	r6, [r5, #18]
 8004d98:	74ee      	strb	r6, [r5, #19]
 8004d9a:	79a3      	ldrb	r3, [r4, #6]
 8004d9c:	6820      	ldr	r0, [r4, #0]
 8004d9e:	f023 0320 	bic.w	r3, r3, #32
 8004da2:	71a3      	strb	r3, [r4, #6]
 8004da4:	f500 5380 	add.w	r3, r0, #4096	@ 0x1000
 8004da8:	711a      	strb	r2, [r3, #4]
 8004daa:	e8bd 4070 	ldmia.w	sp!, {r4, r5, r6, lr}
 8004dae:	f7fe bffb 	b.w	8003da8 <sync_fs>
 8004db2:	2001      	movs	r0, #1
 8004db4:	bd70      	pop	{r4, r5, r6, pc}

08004db6 <f_close>:
 8004db6:	b510      	push	{r4, lr}
 8004db8:	4604      	mov	r4, r0
 8004dba:	f7ff ffa7 	bl	8004d0c <f_sync>
 8004dbe:	b950      	cbnz	r0, 8004dd6 <f_close+0x20>
 8004dc0:	4620      	mov	r0, r4
 8004dc2:	f7fe fe70 	bl	8003aa6 <validate>
 8004dc6:	b930      	cbnz	r0, 8004dd6 <f_close+0x20>
 8004dc8:	f504 5480 	add.w	r4, r4, #4096	@ 0x1000
 8004dcc:	6aa0      	ldr	r0, [r4, #40]	@ 0x28
 8004dce:	f7fe fdd9 	bl	8003984 <dec_lock>
 8004dd2:	b900      	cbnz	r0, 8004dd6 <f_close+0x20>
 8004dd4:	6020      	str	r0, [r4, #0]
 8004dd6:	bd10      	pop	{r4, pc}

08004dd8 <f_lseek>:
 8004dd8:	e92d 4ff8 	stmdb	sp!, {r3, r4, r5, r6, r7, r8, r9, sl, fp, lr}
 8004ddc:	4680      	mov	r8, r0
 8004dde:	460d      	mov	r5, r1
 8004de0:	f7fe fe61 	bl	8003aa6 <validate>
 8004de4:	4606      	mov	r6, r0
 8004de6:	b9f8      	cbnz	r0, 8004e28 <f_lseek+0x50>
 8004de8:	f508 5480 	add.w	r4, r8, #4096	@ 0x1000
 8004dec:	79e6      	ldrb	r6, [r4, #7]
 8004dee:	b9de      	cbnz	r6, 8004e28 <f_lseek+0x50>
 8004df0:	6a63      	ldr	r3, [r4, #36]	@ 0x24
 8004df2:	2b00      	cmp	r3, #0
 8004df4:	d07d      	beq.n	8004ef2 <f_lseek+0x11a>
 8004df6:	1c6a      	adds	r2, r5, #1
 8004df8:	d13a      	bne.n	8004e70 <f_lseek+0x98>
 8004dfa:	461d      	mov	r5, r3
 8004dfc:	f8d4 8010 	ldr.w	r8, [r4, #16]
 8004e00:	2702      	movs	r7, #2
 8004e02:	f855 bb04 	ldr.w	fp, [r5], #4
 8004e06:	f1b8 0f00 	cmp.w	r8, #0
 8004e0a:	d029      	beq.n	8004e60 <f_lseek+0x88>
 8004e0c:	4640      	mov	r0, r8
 8004e0e:	f04f 0a00 	mov.w	sl, #0
 8004e12:	4601      	mov	r1, r0
 8004e14:	4681      	mov	r9, r0
 8004e16:	6820      	ldr	r0, [r4, #0]
 8004e18:	f7ff f815 	bl	8003e46 <get_fat>
 8004e1c:	2801      	cmp	r0, #1
 8004e1e:	f10a 0a01 	add.w	sl, sl, #1
 8004e22:	d806      	bhi.n	8004e32 <f_lseek+0x5a>
 8004e24:	2602      	movs	r6, #2
 8004e26:	71e6      	strb	r6, [r4, #7]
 8004e28:	4630      	mov	r0, r6
 8004e2a:	e8bd 8ff8 	ldmia.w	sp!, {r3, r4, r5, r6, r7, r8, r9, sl, fp, pc}
 8004e2e:	4680      	mov	r8, r0
 8004e30:	e7ec      	b.n	8004e0c <f_lseek+0x34>
 8004e32:	1c43      	adds	r3, r0, #1
 8004e34:	d101      	bne.n	8004e3a <f_lseek+0x62>
 8004e36:	2601      	movs	r6, #1
 8004e38:	e7f5      	b.n	8004e26 <f_lseek+0x4e>
 8004e3a:	f109 0901 	add.w	r9, r9, #1
 8004e3e:	4581      	cmp	r9, r0
 8004e40:	d0e7      	beq.n	8004e12 <f_lseek+0x3a>
 8004e42:	3702      	adds	r7, #2
 8004e44:	45bb      	cmp	fp, r7
 8004e46:	bf21      	itttt	cs
 8004e48:	462b      	movcs	r3, r5
 8004e4a:	f843 ab08 	strcs.w	sl, [r3], #8
 8004e4e:	f8c5 8004 	strcs.w	r8, [r5, #4]
 8004e52:	461d      	movcs	r5, r3
 8004e54:	6823      	ldr	r3, [r4, #0]
 8004e56:	f503 5380 	add.w	r3, r3, #4096	@ 0x1000
 8004e5a:	695b      	ldr	r3, [r3, #20]
 8004e5c:	4283      	cmp	r3, r0
 8004e5e:	d8e6      	bhi.n	8004e2e <f_lseek+0x56>
 8004e60:	6a63      	ldr	r3, [r4, #36]	@ 0x24
 8004e62:	455f      	cmp	r7, fp
 8004e64:	601f      	str	r7, [r3, #0]
 8004e66:	f200 80e2 	bhi.w	800502e <f_lseek+0x256>
 8004e6a:	2300      	movs	r3, #0
 8004e6c:	602b      	str	r3, [r5, #0]
 8004e6e:	e7db      	b.n	8004e28 <f_lseek+0x50>
 8004e70:	68e7      	ldr	r7, [r4, #12]
 8004e72:	42af      	cmp	r7, r5
 8004e74:	bf28      	it	cs
 8004e76:	462f      	movcs	r7, r5
 8004e78:	60a7      	str	r7, [r4, #8]
 8004e7a:	2f00      	cmp	r7, #0
 8004e7c:	d0d4      	beq.n	8004e28 <f_lseek+0x50>
 8004e7e:	1e7d      	subs	r5, r7, #1
 8004e80:	4629      	mov	r1, r5
 8004e82:	4640      	mov	r0, r8
 8004e84:	f7fe fdac 	bl	80039e0 <clmt_clust>
 8004e88:	6822      	ldr	r2, [r4, #0]
 8004e8a:	4601      	mov	r1, r0
 8004e8c:	6160      	str	r0, [r4, #20]
 8004e8e:	4610      	mov	r0, r2
 8004e90:	f7fe ffcc 	bl	8003e2c <clust2sect>
 8004e94:	2800      	cmp	r0, #0
 8004e96:	d0c5      	beq.n	8004e24 <f_lseek+0x4c>
 8004e98:	f502 5380 	add.w	r3, r2, #4096	@ 0x1000
 8004e9c:	8959      	ldrh	r1, [r3, #10]
 8004e9e:	789a      	ldrb	r2, [r3, #2]
 8004ea0:	fbb7 fcf1 	udiv	ip, r7, r1
 8004ea4:	fb01 771c 	mls	r7, r1, ip, r7
 8004ea8:	2f00      	cmp	r7, #0
 8004eaa:	d0bd      	beq.n	8004e28 <f_lseek+0x50>
 8004eac:	fbb5 f5f1 	udiv	r5, r5, r1
 8004eb0:	3a01      	subs	r2, #1
 8004eb2:	4015      	ands	r5, r2
 8004eb4:	69a2      	ldr	r2, [r4, #24]
 8004eb6:	4405      	add	r5, r0
 8004eb8:	42aa      	cmp	r2, r5
 8004eba:	d0b5      	beq.n	8004e28 <f_lseek+0x50>
 8004ebc:	7858      	ldrb	r0, [r3, #1]
 8004ebe:	79a3      	ldrb	r3, [r4, #6]
 8004ec0:	0659      	lsls	r1, r3, #25
 8004ec2:	d509      	bpl.n	8004ed8 <f_lseek+0x100>
 8004ec4:	2301      	movs	r3, #1
 8004ec6:	4641      	mov	r1, r8
 8004ec8:	f7fe fcaa 	bl	8003820 <disk_write>
 8004ecc:	2800      	cmp	r0, #0
 8004ece:	d1b2      	bne.n	8004e36 <f_lseek+0x5e>
 8004ed0:	79a3      	ldrb	r3, [r4, #6]
 8004ed2:	f023 0340 	bic.w	r3, r3, #64	@ 0x40
 8004ed6:	71a3      	strb	r3, [r4, #6]
 8004ed8:	6823      	ldr	r3, [r4, #0]
 8004eda:	462a      	mov	r2, r5
 8004edc:	f503 5080 	add.w	r0, r3, #4096	@ 0x1000
 8004ee0:	4641      	mov	r1, r8
 8004ee2:	2301      	movs	r3, #1
 8004ee4:	7840      	ldrb	r0, [r0, #1]
 8004ee6:	f7fe fc8d 	bl	8003804 <disk_read>
 8004eea:	2800      	cmp	r0, #0
 8004eec:	d1a3      	bne.n	8004e36 <f_lseek+0x5e>
 8004eee:	61a5      	str	r5, [r4, #24]
 8004ef0:	e79a      	b.n	8004e28 <f_lseek+0x50>
 8004ef2:	68e3      	ldr	r3, [r4, #12]
 8004ef4:	42ab      	cmp	r3, r5
 8004ef6:	d204      	bcs.n	8004f02 <f_lseek+0x12a>
 8004ef8:	79a2      	ldrb	r2, [r4, #6]
 8004efa:	f012 0f02 	tst.w	r2, #2
 8004efe:	bf08      	it	eq
 8004f00:	461d      	moveq	r5, r3
 8004f02:	2200      	movs	r2, #0
 8004f04:	6820      	ldr	r0, [r4, #0]
 8004f06:	68a3      	ldr	r3, [r4, #8]
 8004f08:	60a2      	str	r2, [r4, #8]
 8004f0a:	f500 5280 	add.w	r2, r0, #4096	@ 0x1000
 8004f0e:	8951      	ldrh	r1, [r2, #10]
 8004f10:	2d00      	cmp	r5, #0
 8004f12:	d134      	bne.n	8004f7e <f_lseek+0x1a6>
 8004f14:	2500      	movs	r5, #0
 8004f16:	6823      	ldr	r3, [r4, #0]
 8004f18:	68a2      	ldr	r2, [r4, #8]
 8004f1a:	f503 5380 	add.w	r3, r3, #4096	@ 0x1000
 8004f1e:	8959      	ldrh	r1, [r3, #10]
 8004f20:	fbb2 f0f1 	udiv	r0, r2, r1
 8004f24:	fb01 2210 	mls	r2, r1, r0, r2
 8004f28:	b1f2      	cbz	r2, 8004f68 <f_lseek+0x190>
 8004f2a:	69a2      	ldr	r2, [r4, #24]
 8004f2c:	42aa      	cmp	r2, r5
 8004f2e:	d01b      	beq.n	8004f68 <f_lseek+0x190>
 8004f30:	7858      	ldrb	r0, [r3, #1]
 8004f32:	79a3      	ldrb	r3, [r4, #6]
 8004f34:	065b      	lsls	r3, r3, #25
 8004f36:	d50a      	bpl.n	8004f4e <f_lseek+0x176>
 8004f38:	2301      	movs	r3, #1
 8004f3a:	4641      	mov	r1, r8
 8004f3c:	f7fe fc70 	bl	8003820 <disk_write>
 8004f40:	2800      	cmp	r0, #0
 8004f42:	f47f af78 	bne.w	8004e36 <f_lseek+0x5e>
 8004f46:	79a3      	ldrb	r3, [r4, #6]
 8004f48:	f023 0340 	bic.w	r3, r3, #64	@ 0x40
 8004f4c:	71a3      	strb	r3, [r4, #6]
 8004f4e:	6823      	ldr	r3, [r4, #0]
 8004f50:	462a      	mov	r2, r5
 8004f52:	f503 5080 	add.w	r0, r3, #4096	@ 0x1000
 8004f56:	4641      	mov	r1, r8
 8004f58:	2301      	movs	r3, #1
 8004f5a:	7840      	ldrb	r0, [r0, #1]
 8004f5c:	f7fe fc52 	bl	8003804 <disk_read>
 8004f60:	2800      	cmp	r0, #0
 8004f62:	f47f af68 	bne.w	8004e36 <f_lseek+0x5e>
 8004f66:	61a5      	str	r5, [r4, #24]
 8004f68:	e9d4 3202 	ldrd	r3, r2, [r4, #8]
 8004f6c:	4293      	cmp	r3, r2
 8004f6e:	f67f af5b 	bls.w	8004e28 <f_lseek+0x50>
 8004f72:	60e3      	str	r3, [r4, #12]
 8004f74:	79a3      	ldrb	r3, [r4, #6]
 8004f76:	f043 0320 	orr.w	r3, r3, #32
 8004f7a:	71a3      	strb	r3, [r4, #6]
 8004f7c:	e754      	b.n	8004e28 <f_lseek+0x50>
 8004f7e:	7897      	ldrb	r7, [r2, #2]
 8004f80:	434f      	muls	r7, r1
 8004f82:	b17b      	cbz	r3, 8004fa4 <f_lseek+0x1cc>
 8004f84:	3b01      	subs	r3, #1
 8004f86:	1e6a      	subs	r2, r5, #1
 8004f88:	fbb2 f2f7 	udiv	r2, r2, r7
 8004f8c:	fbb3 f1f7 	udiv	r1, r3, r7
 8004f90:	428a      	cmp	r2, r1
 8004f92:	d307      	bcc.n	8004fa4 <f_lseek+0x1cc>
 8004f94:	427a      	negs	r2, r7
 8004f96:	4013      	ands	r3, r2
 8004f98:	6961      	ldr	r1, [r4, #20]
 8004f9a:	60a3      	str	r3, [r4, #8]
 8004f9c:	1aed      	subs	r5, r5, r3
 8004f9e:	2900      	cmp	r1, #0
 8004fa0:	d0b8      	beq.n	8004f14 <f_lseek+0x13c>
 8004fa2:	e002      	b.n	8004faa <f_lseek+0x1d2>
 8004fa4:	6921      	ldr	r1, [r4, #16]
 8004fa6:	b1b9      	cbz	r1, 8004fd8 <f_lseek+0x200>
 8004fa8:	6161      	str	r1, [r4, #20]
 8004faa:	42bd      	cmp	r5, r7
 8004fac:	6820      	ldr	r0, [r4, #0]
 8004fae:	d81f      	bhi.n	8004ff0 <f_lseek+0x218>
 8004fb0:	68a3      	ldr	r3, [r4, #8]
 8004fb2:	6820      	ldr	r0, [r4, #0]
 8004fb4:	442b      	add	r3, r5
 8004fb6:	60a3      	str	r3, [r4, #8]
 8004fb8:	f500 5380 	add.w	r3, r0, #4096	@ 0x1000
 8004fbc:	895b      	ldrh	r3, [r3, #10]
 8004fbe:	fbb5 f2f3 	udiv	r2, r5, r3
 8004fc2:	fb03 5512 	mls	r5, r3, r2, r5
 8004fc6:	2d00      	cmp	r5, #0
 8004fc8:	d0a4      	beq.n	8004f14 <f_lseek+0x13c>
 8004fca:	f7fe ff2f 	bl	8003e2c <clust2sect>
 8004fce:	2800      	cmp	r0, #0
 8004fd0:	f43f af28 	beq.w	8004e24 <f_lseek+0x4c>
 8004fd4:	1815      	adds	r5, r2, r0
 8004fd6:	e79e      	b.n	8004f16 <f_lseek+0x13e>
 8004fd8:	f7ff f881 	bl	80040de <create_chain>
 8004fdc:	2801      	cmp	r0, #1
 8004fde:	4601      	mov	r1, r0
 8004fe0:	f43f af20 	beq.w	8004e24 <f_lseek+0x4c>
 8004fe4:	1c42      	adds	r2, r0, #1
 8004fe6:	f43f af26 	beq.w	8004e36 <f_lseek+0x5e>
 8004fea:	e9c4 0004 	strd	r0, r0, [r4, #16]
 8004fee:	e7d6      	b.n	8004f9e <f_lseek+0x1c6>
 8004ff0:	79a3      	ldrb	r3, [r4, #6]
 8004ff2:	079b      	lsls	r3, r3, #30
 8004ff4:	d505      	bpl.n	8005002 <f_lseek+0x22a>
 8004ff6:	f7ff f872 	bl	80040de <create_chain>
 8004ffa:	4601      	mov	r1, r0
 8004ffc:	b920      	cbnz	r0, 8005008 <f_lseek+0x230>
 8004ffe:	463d      	mov	r5, r7
 8005000:	e7d6      	b.n	8004fb0 <f_lseek+0x1d8>
 8005002:	f7fe ff20 	bl	8003e46 <get_fat>
 8005006:	4601      	mov	r1, r0
 8005008:	1c4a      	adds	r2, r1, #1
 800500a:	f43f af14 	beq.w	8004e36 <f_lseek+0x5e>
 800500e:	2901      	cmp	r1, #1
 8005010:	f67f af08 	bls.w	8004e24 <f_lseek+0x4c>
 8005014:	6823      	ldr	r3, [r4, #0]
 8005016:	f503 5380 	add.w	r3, r3, #4096	@ 0x1000
 800501a:	695b      	ldr	r3, [r3, #20]
 800501c:	428b      	cmp	r3, r1
 800501e:	f67f af01 	bls.w	8004e24 <f_lseek+0x4c>
 8005022:	68a3      	ldr	r3, [r4, #8]
 8005024:	6161      	str	r1, [r4, #20]
 8005026:	443b      	add	r3, r7
 8005028:	60a3      	str	r3, [r4, #8]
 800502a:	1bed      	subs	r5, r5, r7
 800502c:	e7bd      	b.n	8004faa <f_lseek+0x1d2>
 800502e:	2611      	movs	r6, #17
 8005030:	e6fa      	b.n	8004e28 <f_lseek+0x50>

08005032 <f_puts>:
 8005032:	2300      	movs	r3, #0
 8005034:	b510      	push	{r4, lr}
 8005036:	b094      	sub	sp, #80	@ 0x50
 8005038:	e9cd 3302 	strd	r3, r3, [sp, #8]
 800503c:	9101      	str	r1, [sp, #4]
 800503e:	1e44      	subs	r4, r0, #1
 8005040:	f814 1f01 	ldrb.w	r1, [r4, #1]!
 8005044:	b931      	cbnz	r1, 8005054 <f_puts+0x22>
 8005046:	9a02      	ldr	r2, [sp, #8]
 8005048:	2a00      	cmp	r2, #0
 800504a:	da07      	bge.n	800505c <f_puts+0x2a>
 800504c:	f04f 30ff 	mov.w	r0, #4294967295
 8005050:	b014      	add	sp, #80	@ 0x50
 8005052:	bd10      	pop	{r4, pc}
 8005054:	a801      	add	r0, sp, #4
 8005056:	f7ff fe37 	bl	8004cc8 <putc_bfd>
 800505a:	e7f1      	b.n	8005040 <f_puts+0xe>
 800505c:	466b      	mov	r3, sp
 800505e:	9801      	ldr	r0, [sp, #4]
 8005060:	a904      	add	r1, sp, #16
 8005062:	f7ff fd5b 	bl	8004b1c <f_write>
 8005066:	2800      	cmp	r0, #0
 8005068:	d1f0      	bne.n	800504c <f_puts+0x1a>
 800506a:	9a02      	ldr	r2, [sp, #8]
 800506c:	9b00      	ldr	r3, [sp, #0]
 800506e:	429a      	cmp	r2, r3
 8005070:	d1ec      	bne.n	800504c <f_puts+0x1a>
 8005072:	9803      	ldr	r0, [sp, #12]
 8005074:	e7ec      	b.n	8005050 <f_puts+0x1e>
	...

08005078 <FATFS_LinkDriverEx>:
 8005078:	b530      	push	{r4, r5, lr}
 800507a:	4b0f      	ldr	r3, [pc, #60]	@ (80050b8 <FATFS_LinkDriverEx+0x40>)
 800507c:	7a5c      	ldrb	r4, [r3, #9]
 800507e:	2c01      	cmp	r4, #1
 8005080:	d817      	bhi.n	80050b2 <FATFS_LinkDriverEx+0x3a>
 8005082:	2400      	movs	r4, #0
 8005084:	7a5d      	ldrb	r5, [r3, #9]
 8005086:	b2ed      	uxtb	r5, r5
 8005088:	555c      	strb	r4, [r3, r5]
 800508a:	7a5d      	ldrb	r5, [r3, #9]
 800508c:	eb03 0585 	add.w	r5, r3, r5, lsl #2
 8005090:	6068      	str	r0, [r5, #4]
 8005092:	7a58      	ldrb	r0, [r3, #9]
 8005094:	4418      	add	r0, r3
 8005096:	7202      	strb	r2, [r0, #8]
 8005098:	7a5a      	ldrb	r2, [r3, #9]
 800509a:	1c50      	adds	r0, r2, #1
 800509c:	b2c0      	uxtb	r0, r0
 800509e:	7258      	strb	r0, [r3, #9]
 80050a0:	233a      	movs	r3, #58	@ 0x3a
 80050a2:	704b      	strb	r3, [r1, #1]
 80050a4:	232f      	movs	r3, #47	@ 0x2f
 80050a6:	4620      	mov	r0, r4
 80050a8:	3230      	adds	r2, #48	@ 0x30
 80050aa:	700a      	strb	r2, [r1, #0]
 80050ac:	708b      	strb	r3, [r1, #2]
 80050ae:	70cc      	strb	r4, [r1, #3]
 80050b0:	bd30      	pop	{r4, r5, pc}
 80050b2:	2001      	movs	r0, #1
 80050b4:	e7fc      	b.n	80050b0 <FATFS_LinkDriverEx+0x38>
 80050b6:	bf00      	nop
 80050b8:	20002458 	.word	0x20002458

080050bc <FATFS_LinkDriver>:
 80050bc:	2200      	movs	r2, #0
 80050be:	f7ff bfdb 	b.w	8005078 <FATFS_LinkDriverEx>
	...

080050c4 <ff_convert>:
 80050c4:	287f      	cmp	r0, #127	@ 0x7f
 80050c6:	d915      	bls.n	80050f4 <ff_convert+0x30>
 80050c8:	b131      	cbz	r1, 80050d8 <ff_convert+0x14>
 80050ca:	28ff      	cmp	r0, #255	@ 0xff
 80050cc:	d811      	bhi.n	80050f2 <ff_convert+0x2e>
 80050ce:	4b0a      	ldr	r3, [pc, #40]	@ (80050f8 <ff_convert+0x34>)
 80050d0:	3880      	subs	r0, #128	@ 0x80
 80050d2:	f833 0010 	ldrh.w	r0, [r3, r0, lsl #1]
 80050d6:	4770      	bx	lr
 80050d8:	4b07      	ldr	r3, [pc, #28]	@ (80050f8 <ff_convert+0x34>)
 80050da:	f833 2b02 	ldrh.w	r2, [r3], #2
 80050de:	4282      	cmp	r2, r0
 80050e0:	d005      	beq.n	80050ee <ff_convert+0x2a>
 80050e2:	3101      	adds	r1, #1
 80050e4:	2980      	cmp	r1, #128	@ 0x80
 80050e6:	d1f8      	bne.n	80050da <ff_convert+0x16>
 80050e8:	3180      	adds	r1, #128	@ 0x80
 80050ea:	b2c8      	uxtb	r0, r1
 80050ec:	4770      	bx	lr
 80050ee:	b289      	uxth	r1, r1
 80050f0:	e7fa      	b.n	80050e8 <ff_convert+0x24>
 80050f2:	2000      	movs	r0, #0
 80050f4:	4770      	bx	lr
 80050f6:	bf00      	nop
 80050f8:	08006b98 	.word	0x08006b98

080050fc <ff_wtoupper>:
 80050fc:	2300      	movs	r3, #0
 80050fe:	4906      	ldr	r1, [pc, #24]	@ (8005118 <ff_wtoupper+0x1c>)
 8005100:	f831 2b02 	ldrh.w	r2, [r1], #2
 8005104:	b122      	cbz	r2, 8005110 <ff_wtoupper+0x14>
 8005106:	4282      	cmp	r2, r0
 8005108:	d103      	bne.n	8005112 <ff_wtoupper+0x16>
 800510a:	4a04      	ldr	r2, [pc, #16]	@ (800511c <ff_wtoupper+0x20>)
 800510c:	f832 0013 	ldrh.w	r0, [r2, r3, lsl #1]
 8005110:	4770      	bx	lr
 8005112:	3301      	adds	r3, #1
 8005114:	e7f4      	b.n	8005100 <ff_wtoupper+0x4>
 8005116:	bf00      	nop
 8005118:	080069b8 	.word	0x080069b8
 800511c:	080067d8 	.word	0x080067d8

08005120 <std>:
 8005120:	2300      	movs	r3, #0
 8005122:	b510      	push	{r4, lr}
 8005124:	4604      	mov	r4, r0
 8005126:	e9c0 3300 	strd	r3, r3, [r0]
 800512a:	e9c0 3304 	strd	r3, r3, [r0, #16]
 800512e:	6083      	str	r3, [r0, #8]
 8005130:	8181      	strh	r1, [r0, #12]
 8005132:	6643      	str	r3, [r0, #100]	@ 0x64
 8005134:	81c2      	strh	r2, [r0, #14]
 8005136:	6183      	str	r3, [r0, #24]
 8005138:	4619      	mov	r1, r3
 800513a:	2208      	movs	r2, #8
 800513c:	305c      	adds	r0, #92	@ 0x5c
 800513e:	f000 fa2f 	bl	80055a0 <memset>
 8005142:	4b0d      	ldr	r3, [pc, #52]	@ (8005178 <std+0x58>)
 8005144:	6224      	str	r4, [r4, #32]
 8005146:	6263      	str	r3, [r4, #36]	@ 0x24
 8005148:	4b0c      	ldr	r3, [pc, #48]	@ (800517c <std+0x5c>)
 800514a:	62a3      	str	r3, [r4, #40]	@ 0x28
 800514c:	4b0c      	ldr	r3, [pc, #48]	@ (8005180 <std+0x60>)
 800514e:	62e3      	str	r3, [r4, #44]	@ 0x2c
 8005150:	4b0c      	ldr	r3, [pc, #48]	@ (8005184 <std+0x64>)
 8005152:	6323      	str	r3, [r4, #48]	@ 0x30
 8005154:	4b0c      	ldr	r3, [pc, #48]	@ (8005188 <std+0x68>)
 8005156:	429c      	cmp	r4, r3
 8005158:	d006      	beq.n	8005168 <std+0x48>
 800515a:	f103 0268 	add.w	r2, r3, #104	@ 0x68
 800515e:	4294      	cmp	r4, r2
 8005160:	d002      	beq.n	8005168 <std+0x48>
 8005162:	33d0      	adds	r3, #208	@ 0xd0
 8005164:	429c      	cmp	r4, r3
 8005166:	d105      	bne.n	8005174 <std+0x54>
 8005168:	f104 0058 	add.w	r0, r4, #88	@ 0x58
 800516c:	e8bd 4010 	ldmia.w	sp!, {r4, lr}
 8005170:	f000 ba8e 	b.w	8005690 <__retarget_lock_init_recursive>
 8005174:	bd10      	pop	{r4, pc}
 8005176:	bf00      	nop
 8005178:	080053f1 	.word	0x080053f1
 800517c:	08005413 	.word	0x08005413
 8005180:	0800544b 	.word	0x0800544b
 8005184:	0800546f 	.word	0x0800546f
 8005188:	20002464 	.word	0x20002464

0800518c <stdio_exit_handler>:
 800518c:	4a02      	ldr	r2, [pc, #8]	@ (8005198 <stdio_exit_handler+0xc>)
 800518e:	4903      	ldr	r1, [pc, #12]	@ (800519c <stdio_exit_handler+0x10>)
 8005190:	4803      	ldr	r0, [pc, #12]	@ (80051a0 <stdio_exit_handler+0x14>)
 8005192:	f000 b869 	b.w	8005268 <_fwalk_sglue>
 8005196:	bf00      	nop
 8005198:	20000024 	.word	0x20000024
 800519c:	080061d5 	.word	0x080061d5
 80051a0:	20000034 	.word	0x20000034

080051a4 <cleanup_stdio>:
 80051a4:	6841      	ldr	r1, [r0, #4]
 80051a6:	4b0c      	ldr	r3, [pc, #48]	@ (80051d8 <cleanup_stdio+0x34>)
 80051a8:	b510      	push	{r4, lr}
 80051aa:	4299      	cmp	r1, r3
 80051ac:	4604      	mov	r4, r0
 80051ae:	d001      	beq.n	80051b4 <cleanup_stdio+0x10>
 80051b0:	f001 f810 	bl	80061d4 <_fflush_r>
 80051b4:	68a1      	ldr	r1, [r4, #8]
 80051b6:	4b09      	ldr	r3, [pc, #36]	@ (80051dc <cleanup_stdio+0x38>)
 80051b8:	4299      	cmp	r1, r3
 80051ba:	d002      	beq.n	80051c2 <cleanup_stdio+0x1e>
 80051bc:	4620      	mov	r0, r4
 80051be:	f001 f809 	bl	80061d4 <_fflush_r>
 80051c2:	68e1      	ldr	r1, [r4, #12]
 80051c4:	4b06      	ldr	r3, [pc, #24]	@ (80051e0 <cleanup_stdio+0x3c>)
 80051c6:	4299      	cmp	r1, r3
 80051c8:	d004      	beq.n	80051d4 <cleanup_stdio+0x30>
 80051ca:	4620      	mov	r0, r4
 80051cc:	e8bd 4010 	ldmia.w	sp!, {r4, lr}
 80051d0:	f001 b800 	b.w	80061d4 <_fflush_r>
 80051d4:	bd10      	pop	{r4, pc}
 80051d6:	bf00      	nop
 80051d8:	20002464 	.word	0x20002464
 80051dc:	200024cc 	.word	0x200024cc
 80051e0:	20002534 	.word	0x20002534

080051e4 <global_stdio_init.part.0>:
 80051e4:	b510      	push	{r4, lr}
 80051e6:	4b0b      	ldr	r3, [pc, #44]	@ (8005214 <global_stdio_init.part.0+0x30>)
 80051e8:	4c0b      	ldr	r4, [pc, #44]	@ (8005218 <global_stdio_init.part.0+0x34>)
 80051ea:	4a0c      	ldr	r2, [pc, #48]	@ (800521c <global_stdio_init.part.0+0x38>)
 80051ec:	4620      	mov	r0, r4
 80051ee:	601a      	str	r2, [r3, #0]
 80051f0:	2104      	movs	r1, #4
 80051f2:	2200      	movs	r2, #0
 80051f4:	f7ff ff94 	bl	8005120 <std>
 80051f8:	f104 0068 	add.w	r0, r4, #104	@ 0x68
 80051fc:	2201      	movs	r2, #1
 80051fe:	2109      	movs	r1, #9
 8005200:	f7ff ff8e 	bl	8005120 <std>
 8005204:	f104 00d0 	add.w	r0, r4, #208	@ 0xd0
 8005208:	2202      	movs	r2, #2
 800520a:	e8bd 4010 	ldmia.w	sp!, {r4, lr}
 800520e:	2112      	movs	r1, #18
 8005210:	f7ff bf86 	b.w	8005120 <std>
 8005214:	2000259c 	.word	0x2000259c
 8005218:	20002464 	.word	0x20002464
 800521c:	0800518d 	.word	0x0800518d

08005220 <__sfp_lock_acquire>:
 8005220:	4801      	ldr	r0, [pc, #4]	@ (8005228 <__sfp_lock_acquire+0x8>)
 8005222:	f000 ba36 	b.w	8005692 <__retarget_lock_acquire_recursive>
 8005226:	bf00      	nop
 8005228:	200025a5 	.word	0x200025a5

0800522c <__sfp_lock_release>:
 800522c:	4801      	ldr	r0, [pc, #4]	@ (8005234 <__sfp_lock_release+0x8>)
 800522e:	f000 ba31 	b.w	8005694 <__retarget_lock_release_recursive>
 8005232:	bf00      	nop
 8005234:	200025a5 	.word	0x200025a5

08005238 <__sinit>:
 8005238:	b510      	push	{r4, lr}
 800523a:	4604      	mov	r4, r0
 800523c:	f7ff fff0 	bl	8005220 <__sfp_lock_acquire>
 8005240:	6a23      	ldr	r3, [r4, #32]
 8005242:	b11b      	cbz	r3, 800524c <__sinit+0x14>
 8005244:	e8bd 4010 	ldmia.w	sp!, {r4, lr}
 8005248:	f7ff bff0 	b.w	800522c <__sfp_lock_release>
 800524c:	4b04      	ldr	r3, [pc, #16]	@ (8005260 <__sinit+0x28>)
 800524e:	6223      	str	r3, [r4, #32]
 8005250:	4b04      	ldr	r3, [pc, #16]	@ (8005264 <__sinit+0x2c>)
 8005252:	681b      	ldr	r3, [r3, #0]
 8005254:	2b00      	cmp	r3, #0
 8005256:	d1f5      	bne.n	8005244 <__sinit+0xc>
 8005258:	f7ff ffc4 	bl	80051e4 <global_stdio_init.part.0>
 800525c:	e7f2      	b.n	8005244 <__sinit+0xc>
 800525e:	bf00      	nop
 8005260:	080051a5 	.word	0x080051a5
 8005264:	2000259c 	.word	0x2000259c

08005268 <_fwalk_sglue>:
 8005268:	e92d 43f8 	stmdb	sp!, {r3, r4, r5, r6, r7, r8, r9, lr}
 800526c:	4607      	mov	r7, r0
 800526e:	4688      	mov	r8, r1
 8005270:	4614      	mov	r4, r2
 8005272:	2600      	movs	r6, #0
 8005274:	e9d4 9501 	ldrd	r9, r5, [r4, #4]
 8005278:	f1b9 0901 	subs.w	r9, r9, #1
 800527c:	d505      	bpl.n	800528a <_fwalk_sglue+0x22>
 800527e:	6824      	ldr	r4, [r4, #0]
 8005280:	2c00      	cmp	r4, #0
 8005282:	d1f7      	bne.n	8005274 <_fwalk_sglue+0xc>
 8005284:	4630      	mov	r0, r6
 8005286:	e8bd 83f8 	ldmia.w	sp!, {r3, r4, r5, r6, r7, r8, r9, pc}
 800528a:	89ab      	ldrh	r3, [r5, #12]
 800528c:	2b01      	cmp	r3, #1
 800528e:	d907      	bls.n	80052a0 <_fwalk_sglue+0x38>
 8005290:	f9b5 300e 	ldrsh.w	r3, [r5, #14]
 8005294:	3301      	adds	r3, #1
 8005296:	d003      	beq.n	80052a0 <_fwalk_sglue+0x38>
 8005298:	4629      	mov	r1, r5
 800529a:	4638      	mov	r0, r7
 800529c:	47c0      	blx	r8
 800529e:	4306      	orrs	r6, r0
 80052a0:	3568      	adds	r5, #104	@ 0x68
 80052a2:	e7e9      	b.n	8005278 <_fwalk_sglue+0x10>

080052a4 <iprintf>:
 80052a4:	b40f      	push	{r0, r1, r2, r3}
 80052a6:	b507      	push	{r0, r1, r2, lr}
 80052a8:	4906      	ldr	r1, [pc, #24]	@ (80052c4 <iprintf+0x20>)
 80052aa:	ab04      	add	r3, sp, #16
 80052ac:	6808      	ldr	r0, [r1, #0]
 80052ae:	f853 2b04 	ldr.w	r2, [r3], #4
 80052b2:	6881      	ldr	r1, [r0, #8]
 80052b4:	9301      	str	r3, [sp, #4]
 80052b6:	f000 fc65 	bl	8005b84 <_vfiprintf_r>
 80052ba:	b003      	add	sp, #12
 80052bc:	f85d eb04 	ldr.w	lr, [sp], #4
 80052c0:	b004      	add	sp, #16
 80052c2:	4770      	bx	lr
 80052c4:	20000030 	.word	0x20000030

080052c8 <_puts_r>:
 80052c8:	6a03      	ldr	r3, [r0, #32]
 80052ca:	b570      	push	{r4, r5, r6, lr}
 80052cc:	4605      	mov	r5, r0
 80052ce:	460e      	mov	r6, r1
 80052d0:	6884      	ldr	r4, [r0, #8]
 80052d2:	b90b      	cbnz	r3, 80052d8 <_puts_r+0x10>
 80052d4:	f7ff ffb0 	bl	8005238 <__sinit>
 80052d8:	6e63      	ldr	r3, [r4, #100]	@ 0x64
 80052da:	07db      	lsls	r3, r3, #31
 80052dc:	d405      	bmi.n	80052ea <_puts_r+0x22>
 80052de:	89a3      	ldrh	r3, [r4, #12]
 80052e0:	0598      	lsls	r0, r3, #22
 80052e2:	d402      	bmi.n	80052ea <_puts_r+0x22>
 80052e4:	6da0      	ldr	r0, [r4, #88]	@ 0x58
 80052e6:	f000 f9d4 	bl	8005692 <__retarget_lock_acquire_recursive>
 80052ea:	89a3      	ldrh	r3, [r4, #12]
 80052ec:	0719      	lsls	r1, r3, #28
 80052ee:	d502      	bpl.n	80052f6 <_puts_r+0x2e>
 80052f0:	6923      	ldr	r3, [r4, #16]
 80052f2:	2b00      	cmp	r3, #0
 80052f4:	d135      	bne.n	8005362 <_puts_r+0x9a>
 80052f6:	4621      	mov	r1, r4
 80052f8:	4628      	mov	r0, r5
 80052fa:	f000 f8fb 	bl	80054f4 <__swsetup_r>
 80052fe:	b380      	cbz	r0, 8005362 <_puts_r+0x9a>
 8005300:	f04f 35ff 	mov.w	r5, #4294967295
 8005304:	6e63      	ldr	r3, [r4, #100]	@ 0x64
 8005306:	07da      	lsls	r2, r3, #31
 8005308:	d405      	bmi.n	8005316 <_puts_r+0x4e>
 800530a:	89a3      	ldrh	r3, [r4, #12]
 800530c:	059b      	lsls	r3, r3, #22
 800530e:	d402      	bmi.n	8005316 <_puts_r+0x4e>
 8005310:	6da0      	ldr	r0, [r4, #88]	@ 0x58
 8005312:	f000 f9bf 	bl	8005694 <__retarget_lock_release_recursive>
 8005316:	4628      	mov	r0, r5
 8005318:	bd70      	pop	{r4, r5, r6, pc}
 800531a:	2b00      	cmp	r3, #0
 800531c:	da04      	bge.n	8005328 <_puts_r+0x60>
 800531e:	69a2      	ldr	r2, [r4, #24]
 8005320:	429a      	cmp	r2, r3
 8005322:	dc17      	bgt.n	8005354 <_puts_r+0x8c>
 8005324:	290a      	cmp	r1, #10
 8005326:	d015      	beq.n	8005354 <_puts_r+0x8c>
 8005328:	6823      	ldr	r3, [r4, #0]
 800532a:	1c5a      	adds	r2, r3, #1
 800532c:	6022      	str	r2, [r4, #0]
 800532e:	7019      	strb	r1, [r3, #0]
 8005330:	68a3      	ldr	r3, [r4, #8]
 8005332:	f816 1f01 	ldrb.w	r1, [r6, #1]!
 8005336:	3b01      	subs	r3, #1
 8005338:	60a3      	str	r3, [r4, #8]
 800533a:	2900      	cmp	r1, #0
 800533c:	d1ed      	bne.n	800531a <_puts_r+0x52>
 800533e:	2b00      	cmp	r3, #0
 8005340:	da11      	bge.n	8005366 <_puts_r+0x9e>
 8005342:	4622      	mov	r2, r4
 8005344:	210a      	movs	r1, #10
 8005346:	4628      	mov	r0, r5
 8005348:	f000 f895 	bl	8005476 <__swbuf_r>
 800534c:	3001      	adds	r0, #1
 800534e:	d0d7      	beq.n	8005300 <_puts_r+0x38>
 8005350:	250a      	movs	r5, #10
 8005352:	e7d7      	b.n	8005304 <_puts_r+0x3c>
 8005354:	4622      	mov	r2, r4
 8005356:	4628      	mov	r0, r5
 8005358:	f000 f88d 	bl	8005476 <__swbuf_r>
 800535c:	3001      	adds	r0, #1
 800535e:	d1e7      	bne.n	8005330 <_puts_r+0x68>
 8005360:	e7ce      	b.n	8005300 <_puts_r+0x38>
 8005362:	3e01      	subs	r6, #1
 8005364:	e7e4      	b.n	8005330 <_puts_r+0x68>
 8005366:	6823      	ldr	r3, [r4, #0]
 8005368:	1c5a      	adds	r2, r3, #1
 800536a:	6022      	str	r2, [r4, #0]
 800536c:	220a      	movs	r2, #10
 800536e:	701a      	strb	r2, [r3, #0]
 8005370:	e7ee      	b.n	8005350 <_puts_r+0x88>
	...

08005374 <puts>:
 8005374:	4b02      	ldr	r3, [pc, #8]	@ (8005380 <puts+0xc>)
 8005376:	4601      	mov	r1, r0
 8005378:	6818      	ldr	r0, [r3, #0]
 800537a:	f7ff bfa5 	b.w	80052c8 <_puts_r>
 800537e:	bf00      	nop
 8005380:	20000030 	.word	0x20000030

08005384 <sniprintf>:
 8005384:	b40c      	push	{r2, r3}
 8005386:	b530      	push	{r4, r5, lr}
 8005388:	4b18      	ldr	r3, [pc, #96]	@ (80053ec <sniprintf+0x68>)
 800538a:	1e0c      	subs	r4, r1, #0
 800538c:	681d      	ldr	r5, [r3, #0]
 800538e:	b09d      	sub	sp, #116	@ 0x74
 8005390:	da08      	bge.n	80053a4 <sniprintf+0x20>
 8005392:	238b      	movs	r3, #139	@ 0x8b
 8005394:	f04f 30ff 	mov.w	r0, #4294967295
 8005398:	602b      	str	r3, [r5, #0]
 800539a:	b01d      	add	sp, #116	@ 0x74
 800539c:	e8bd 4030 	ldmia.w	sp!, {r4, r5, lr}
 80053a0:	b002      	add	sp, #8
 80053a2:	4770      	bx	lr
 80053a4:	f44f 7302 	mov.w	r3, #520	@ 0x208
 80053a8:	f8ad 3014 	strh.w	r3, [sp, #20]
 80053ac:	f04f 0300 	mov.w	r3, #0
 80053b0:	931b      	str	r3, [sp, #108]	@ 0x6c
 80053b2:	bf0c      	ite	eq
 80053b4:	4623      	moveq	r3, r4
 80053b6:	f104 33ff 	addne.w	r3, r4, #4294967295
 80053ba:	9304      	str	r3, [sp, #16]
 80053bc:	9307      	str	r3, [sp, #28]
 80053be:	f64f 73ff 	movw	r3, #65535	@ 0xffff
 80053c2:	9002      	str	r0, [sp, #8]
 80053c4:	9006      	str	r0, [sp, #24]
 80053c6:	f8ad 3016 	strh.w	r3, [sp, #22]
 80053ca:	4628      	mov	r0, r5
 80053cc:	ab21      	add	r3, sp, #132	@ 0x84
 80053ce:	9a20      	ldr	r2, [sp, #128]	@ 0x80
 80053d0:	a902      	add	r1, sp, #8
 80053d2:	9301      	str	r3, [sp, #4]
 80053d4:	f000 fab2 	bl	800593c <_svfiprintf_r>
 80053d8:	1c43      	adds	r3, r0, #1
 80053da:	bfbc      	itt	lt
 80053dc:	238b      	movlt	r3, #139	@ 0x8b
 80053de:	602b      	strlt	r3, [r5, #0]
 80053e0:	2c00      	cmp	r4, #0
 80053e2:	d0da      	beq.n	800539a <sniprintf+0x16>
 80053e4:	2200      	movs	r2, #0
 80053e6:	9b02      	ldr	r3, [sp, #8]
 80053e8:	701a      	strb	r2, [r3, #0]
 80053ea:	e7d6      	b.n	800539a <sniprintf+0x16>
 80053ec:	20000030 	.word	0x20000030

080053f0 <__sread>:
 80053f0:	b510      	push	{r4, lr}
 80053f2:	460c      	mov	r4, r1
 80053f4:	f9b1 100e 	ldrsh.w	r1, [r1, #14]
 80053f8:	f000 f8fc 	bl	80055f4 <_read_r>
 80053fc:	2800      	cmp	r0, #0
 80053fe:	bfab      	itete	ge
 8005400:	6d63      	ldrge	r3, [r4, #84]	@ 0x54
 8005402:	89a3      	ldrhlt	r3, [r4, #12]
 8005404:	181b      	addge	r3, r3, r0
 8005406:	f423 5380 	biclt.w	r3, r3, #4096	@ 0x1000
 800540a:	bfac      	ite	ge
 800540c:	6563      	strge	r3, [r4, #84]	@ 0x54
 800540e:	81a3      	strhlt	r3, [r4, #12]
 8005410:	bd10      	pop	{r4, pc}

08005412 <__swrite>:
 8005412:	e92d 41f0 	stmdb	sp!, {r4, r5, r6, r7, r8, lr}
 8005416:	461f      	mov	r7, r3
 8005418:	898b      	ldrh	r3, [r1, #12]
 800541a:	4605      	mov	r5, r0
 800541c:	05db      	lsls	r3, r3, #23
 800541e:	460c      	mov	r4, r1
 8005420:	4616      	mov	r6, r2
 8005422:	d505      	bpl.n	8005430 <__swrite+0x1e>
 8005424:	2302      	movs	r3, #2
 8005426:	2200      	movs	r2, #0
 8005428:	f9b1 100e 	ldrsh.w	r1, [r1, #14]
 800542c:	f000 f8d0 	bl	80055d0 <_lseek_r>
 8005430:	89a3      	ldrh	r3, [r4, #12]
 8005432:	4632      	mov	r2, r6
 8005434:	f423 5380 	bic.w	r3, r3, #4096	@ 0x1000
 8005438:	81a3      	strh	r3, [r4, #12]
 800543a:	4628      	mov	r0, r5
 800543c:	463b      	mov	r3, r7
 800543e:	f9b4 100e 	ldrsh.w	r1, [r4, #14]
 8005442:	e8bd 41f0 	ldmia.w	sp!, {r4, r5, r6, r7, r8, lr}
 8005446:	f000 b8e7 	b.w	8005618 <_write_r>

0800544a <__sseek>:
 800544a:	b510      	push	{r4, lr}
 800544c:	460c      	mov	r4, r1
 800544e:	f9b1 100e 	ldrsh.w	r1, [r1, #14]
 8005452:	f000 f8bd 	bl	80055d0 <_lseek_r>
 8005456:	1c43      	adds	r3, r0, #1
 8005458:	89a3      	ldrh	r3, [r4, #12]
 800545a:	bf15      	itete	ne
 800545c:	6560      	strne	r0, [r4, #84]	@ 0x54
 800545e:	f423 5380 	biceq.w	r3, r3, #4096	@ 0x1000
 8005462:	f443 5380 	orrne.w	r3, r3, #4096	@ 0x1000
 8005466:	81a3      	strheq	r3, [r4, #12]
 8005468:	bf18      	it	ne
 800546a:	81a3      	strhne	r3, [r4, #12]
 800546c:	bd10      	pop	{r4, pc}

0800546e <__sclose>:
 800546e:	f9b1 100e 	ldrsh.w	r1, [r1, #14]
 8005472:	f000 b89d 	b.w	80055b0 <_close_r>

08005476 <__swbuf_r>:
 8005476:	b5f8      	push	{r3, r4, r5, r6, r7, lr}
 8005478:	460e      	mov	r6, r1
 800547a:	4614      	mov	r4, r2
 800547c:	4605      	mov	r5, r0
 800547e:	b118      	cbz	r0, 8005488 <__swbuf_r+0x12>
 8005480:	6a03      	ldr	r3, [r0, #32]
 8005482:	b90b      	cbnz	r3, 8005488 <__swbuf_r+0x12>
 8005484:	f7ff fed8 	bl	8005238 <__sinit>
 8005488:	69a3      	ldr	r3, [r4, #24]
 800548a:	60a3      	str	r3, [r4, #8]
 800548c:	89a3      	ldrh	r3, [r4, #12]
 800548e:	071a      	lsls	r2, r3, #28
 8005490:	d501      	bpl.n	8005496 <__swbuf_r+0x20>
 8005492:	6923      	ldr	r3, [r4, #16]
 8005494:	b943      	cbnz	r3, 80054a8 <__swbuf_r+0x32>
 8005496:	4621      	mov	r1, r4
 8005498:	4628      	mov	r0, r5
 800549a:	f000 f82b 	bl	80054f4 <__swsetup_r>
 800549e:	b118      	cbz	r0, 80054a8 <__swbuf_r+0x32>
 80054a0:	f04f 37ff 	mov.w	r7, #4294967295
 80054a4:	4638      	mov	r0, r7
 80054a6:	bdf8      	pop	{r3, r4, r5, r6, r7, pc}
 80054a8:	6823      	ldr	r3, [r4, #0]
 80054aa:	6922      	ldr	r2, [r4, #16]
 80054ac:	b2f6      	uxtb	r6, r6
 80054ae:	1a98      	subs	r0, r3, r2
 80054b0:	6963      	ldr	r3, [r4, #20]
 80054b2:	4637      	mov	r7, r6
 80054b4:	4283      	cmp	r3, r0
 80054b6:	dc05      	bgt.n	80054c4 <__swbuf_r+0x4e>
 80054b8:	4621      	mov	r1, r4
 80054ba:	4628      	mov	r0, r5
 80054bc:	f000 fe8a 	bl	80061d4 <_fflush_r>
 80054c0:	2800      	cmp	r0, #0
 80054c2:	d1ed      	bne.n	80054a0 <__swbuf_r+0x2a>
 80054c4:	68a3      	ldr	r3, [r4, #8]
 80054c6:	3b01      	subs	r3, #1
 80054c8:	60a3      	str	r3, [r4, #8]
 80054ca:	6823      	ldr	r3, [r4, #0]
 80054cc:	1c5a      	adds	r2, r3, #1
 80054ce:	6022      	str	r2, [r4, #0]
 80054d0:	701e      	strb	r6, [r3, #0]
 80054d2:	6962      	ldr	r2, [r4, #20]
 80054d4:	1c43      	adds	r3, r0, #1
 80054d6:	429a      	cmp	r2, r3
 80054d8:	d004      	beq.n	80054e4 <__swbuf_r+0x6e>
 80054da:	89a3      	ldrh	r3, [r4, #12]
 80054dc:	07db      	lsls	r3, r3, #31
 80054de:	d5e1      	bpl.n	80054a4 <__swbuf_r+0x2e>
 80054e0:	2e0a      	cmp	r6, #10
 80054e2:	d1df      	bne.n	80054a4 <__swbuf_r+0x2e>
 80054e4:	4621      	mov	r1, r4
 80054e6:	4628      	mov	r0, r5
 80054e8:	f000 fe74 	bl	80061d4 <_fflush_r>
 80054ec:	2800      	cmp	r0, #0
 80054ee:	d0d9      	beq.n	80054a4 <__swbuf_r+0x2e>
 80054f0:	e7d6      	b.n	80054a0 <__swbuf_r+0x2a>
	...

080054f4 <__swsetup_r>:
 80054f4:	b538      	push	{r3, r4, r5, lr}
 80054f6:	4b29      	ldr	r3, [pc, #164]	@ (800559c <__swsetup_r+0xa8>)
 80054f8:	4605      	mov	r5, r0
 80054fa:	6818      	ldr	r0, [r3, #0]
 80054fc:	460c      	mov	r4, r1
 80054fe:	b118      	cbz	r0, 8005508 <__swsetup_r+0x14>
 8005500:	6a03      	ldr	r3, [r0, #32]
 8005502:	b90b      	cbnz	r3, 8005508 <__swsetup_r+0x14>
 8005504:	f7ff fe98 	bl	8005238 <__sinit>
 8005508:	f9b4 300c 	ldrsh.w	r3, [r4, #12]
 800550c:	0719      	lsls	r1, r3, #28
 800550e:	d422      	bmi.n	8005556 <__swsetup_r+0x62>
 8005510:	06da      	lsls	r2, r3, #27
 8005512:	d407      	bmi.n	8005524 <__swsetup_r+0x30>
 8005514:	2209      	movs	r2, #9
 8005516:	602a      	str	r2, [r5, #0]
 8005518:	f043 0340 	orr.w	r3, r3, #64	@ 0x40
 800551c:	f04f 30ff 	mov.w	r0, #4294967295
 8005520:	81a3      	strh	r3, [r4, #12]
 8005522:	e033      	b.n	800558c <__swsetup_r+0x98>
 8005524:	0758      	lsls	r0, r3, #29
 8005526:	d512      	bpl.n	800554e <__swsetup_r+0x5a>
 8005528:	6b61      	ldr	r1, [r4, #52]	@ 0x34
 800552a:	b141      	cbz	r1, 800553e <__swsetup_r+0x4a>
 800552c:	f104 0344 	add.w	r3, r4, #68	@ 0x44
 8005530:	4299      	cmp	r1, r3
 8005532:	d002      	beq.n	800553a <__swsetup_r+0x46>
 8005534:	4628      	mov	r0, r5
 8005536:	f000 f8af 	bl	8005698 <_free_r>
 800553a:	2300      	movs	r3, #0
 800553c:	6363      	str	r3, [r4, #52]	@ 0x34
 800553e:	89a3      	ldrh	r3, [r4, #12]
 8005540:	f023 0324 	bic.w	r3, r3, #36	@ 0x24
 8005544:	81a3      	strh	r3, [r4, #12]
 8005546:	2300      	movs	r3, #0
 8005548:	6063      	str	r3, [r4, #4]
 800554a:	6923      	ldr	r3, [r4, #16]
 800554c:	6023      	str	r3, [r4, #0]
 800554e:	89a3      	ldrh	r3, [r4, #12]
 8005550:	f043 0308 	orr.w	r3, r3, #8
 8005554:	81a3      	strh	r3, [r4, #12]
 8005556:	6923      	ldr	r3, [r4, #16]
 8005558:	b94b      	cbnz	r3, 800556e <__swsetup_r+0x7a>
 800555a:	89a3      	ldrh	r3, [r4, #12]
 800555c:	f403 7320 	and.w	r3, r3, #640	@ 0x280
 8005560:	f5b3 7f00 	cmp.w	r3, #512	@ 0x200
 8005564:	d003      	beq.n	800556e <__swsetup_r+0x7a>
 8005566:	4621      	mov	r1, r4
 8005568:	4628      	mov	r0, r5
 800556a:	f000 fe80 	bl	800626e <__smakebuf_r>
 800556e:	f9b4 300c 	ldrsh.w	r3, [r4, #12]
 8005572:	f013 0201 	ands.w	r2, r3, #1
 8005576:	d00a      	beq.n	800558e <__swsetup_r+0x9a>
 8005578:	2200      	movs	r2, #0
 800557a:	60a2      	str	r2, [r4, #8]
 800557c:	6962      	ldr	r2, [r4, #20]
 800557e:	4252      	negs	r2, r2
 8005580:	61a2      	str	r2, [r4, #24]
 8005582:	6922      	ldr	r2, [r4, #16]
 8005584:	b942      	cbnz	r2, 8005598 <__swsetup_r+0xa4>
 8005586:	f013 0080 	ands.w	r0, r3, #128	@ 0x80
 800558a:	d1c5      	bne.n	8005518 <__swsetup_r+0x24>
 800558c:	bd38      	pop	{r3, r4, r5, pc}
 800558e:	0799      	lsls	r1, r3, #30
 8005590:	bf58      	it	pl
 8005592:	6962      	ldrpl	r2, [r4, #20]
 8005594:	60a2      	str	r2, [r4, #8]
 8005596:	e7f4      	b.n	8005582 <__swsetup_r+0x8e>
 8005598:	2000      	movs	r0, #0
 800559a:	e7f7      	b.n	800558c <__swsetup_r+0x98>
 800559c:	20000030 	.word	0x20000030

080055a0 <memset>:
 80055a0:	4603      	mov	r3, r0
 80055a2:	4402      	add	r2, r0
 80055a4:	4293      	cmp	r3, r2
 80055a6:	d100      	bne.n	80055aa <memset+0xa>
 80055a8:	4770      	bx	lr
 80055aa:	f803 1b01 	strb.w	r1, [r3], #1
 80055ae:	e7f9      	b.n	80055a4 <memset+0x4>

080055b0 <_close_r>:
 80055b0:	b538      	push	{r3, r4, r5, lr}
 80055b2:	2300      	movs	r3, #0
 80055b4:	4d05      	ldr	r5, [pc, #20]	@ (80055cc <_close_r+0x1c>)
 80055b6:	4604      	mov	r4, r0
 80055b8:	4608      	mov	r0, r1
 80055ba:	602b      	str	r3, [r5, #0]
 80055bc:	f7fc fadc 	bl	8001b78 <_close>
 80055c0:	1c43      	adds	r3, r0, #1
 80055c2:	d102      	bne.n	80055ca <_close_r+0x1a>
 80055c4:	682b      	ldr	r3, [r5, #0]
 80055c6:	b103      	cbz	r3, 80055ca <_close_r+0x1a>
 80055c8:	6023      	str	r3, [r4, #0]
 80055ca:	bd38      	pop	{r3, r4, r5, pc}
 80055cc:	200025a0 	.word	0x200025a0

080055d0 <_lseek_r>:
 80055d0:	b538      	push	{r3, r4, r5, lr}
 80055d2:	4604      	mov	r4, r0
 80055d4:	4608      	mov	r0, r1
 80055d6:	4611      	mov	r1, r2
 80055d8:	2200      	movs	r2, #0
 80055da:	4d05      	ldr	r5, [pc, #20]	@ (80055f0 <_lseek_r+0x20>)
 80055dc:	602a      	str	r2, [r5, #0]
 80055de:	461a      	mov	r2, r3
 80055e0:	f7fc fad4 	bl	8001b8c <_lseek>
 80055e4:	1c43      	adds	r3, r0, #1
 80055e6:	d102      	bne.n	80055ee <_lseek_r+0x1e>
 80055e8:	682b      	ldr	r3, [r5, #0]
 80055ea:	b103      	cbz	r3, 80055ee <_lseek_r+0x1e>
 80055ec:	6023      	str	r3, [r4, #0]
 80055ee:	bd38      	pop	{r3, r4, r5, pc}
 80055f0:	200025a0 	.word	0x200025a0

080055f4 <_read_r>:
 80055f4:	b538      	push	{r3, r4, r5, lr}
 80055f6:	4604      	mov	r4, r0
 80055f8:	4608      	mov	r0, r1
 80055fa:	4611      	mov	r1, r2
 80055fc:	2200      	movs	r2, #0
 80055fe:	4d05      	ldr	r5, [pc, #20]	@ (8005614 <_read_r+0x20>)
 8005600:	602a      	str	r2, [r5, #0]
 8005602:	461a      	mov	r2, r3
 8005604:	f7fc faaa 	bl	8001b5c <_read>
 8005608:	1c43      	adds	r3, r0, #1
 800560a:	d102      	bne.n	8005612 <_read_r+0x1e>
 800560c:	682b      	ldr	r3, [r5, #0]
 800560e:	b103      	cbz	r3, 8005612 <_read_r+0x1e>
 8005610:	6023      	str	r3, [r4, #0]
 8005612:	bd38      	pop	{r3, r4, r5, pc}
 8005614:	200025a0 	.word	0x200025a0

08005618 <_write_r>:
 8005618:	b538      	push	{r3, r4, r5, lr}
 800561a:	4604      	mov	r4, r0
 800561c:	4608      	mov	r0, r1
 800561e:	4611      	mov	r1, r2
 8005620:	2200      	movs	r2, #0
 8005622:	4d05      	ldr	r5, [pc, #20]	@ (8005638 <_write_r+0x20>)
 8005624:	602a      	str	r2, [r5, #0]
 8005626:	461a      	mov	r2, r3
 8005628:	f7fb fc70 	bl	8000f0c <_write>
 800562c:	1c43      	adds	r3, r0, #1
 800562e:	d102      	bne.n	8005636 <_write_r+0x1e>
 8005630:	682b      	ldr	r3, [r5, #0]
 8005632:	b103      	cbz	r3, 8005636 <_write_r+0x1e>
 8005634:	6023      	str	r3, [r4, #0]
 8005636:	bd38      	pop	{r3, r4, r5, pc}
 8005638:	200025a0 	.word	0x200025a0

0800563c <__errno>:
 800563c:	4b01      	ldr	r3, [pc, #4]	@ (8005644 <__errno+0x8>)
 800563e:	6818      	ldr	r0, [r3, #0]
 8005640:	4770      	bx	lr
 8005642:	bf00      	nop
 8005644:	20000030 	.word	0x20000030

08005648 <__libc_init_array>:
 8005648:	b570      	push	{r4, r5, r6, lr}
 800564a:	2600      	movs	r6, #0
 800564c:	4d0c      	ldr	r5, [pc, #48]	@ (8005680 <__libc_init_array+0x38>)
 800564e:	4c0d      	ldr	r4, [pc, #52]	@ (8005684 <__libc_init_array+0x3c>)
 8005650:	1b64      	subs	r4, r4, r5
 8005652:	10a4      	asrs	r4, r4, #2
 8005654:	42a6      	cmp	r6, r4
 8005656:	d109      	bne.n	800566c <__libc_init_array+0x24>
 8005658:	f000 ffda 	bl	8006610 <_init>
 800565c:	2600      	movs	r6, #0
 800565e:	4d0a      	ldr	r5, [pc, #40]	@ (8005688 <__libc_init_array+0x40>)
 8005660:	4c0a      	ldr	r4, [pc, #40]	@ (800568c <__libc_init_array+0x44>)
 8005662:	1b64      	subs	r4, r4, r5
 8005664:	10a4      	asrs	r4, r4, #2
 8005666:	42a6      	cmp	r6, r4
 8005668:	d105      	bne.n	8005676 <__libc_init_array+0x2e>
 800566a:	bd70      	pop	{r4, r5, r6, pc}
 800566c:	f855 3b04 	ldr.w	r3, [r5], #4
 8005670:	4798      	blx	r3
 8005672:	3601      	adds	r6, #1
 8005674:	e7ee      	b.n	8005654 <__libc_init_array+0xc>
 8005676:	f855 3b04 	ldr.w	r3, [r5], #4
 800567a:	4798      	blx	r3
 800567c:	3601      	adds	r6, #1
 800567e:	e7f2      	b.n	8005666 <__libc_init_array+0x1e>
 8005680:	08006cb0 	.word	0x08006cb0
 8005684:	08006cb0 	.word	0x08006cb0
 8005688:	08006cb0 	.word	0x08006cb0
 800568c:	08006cb4 	.word	0x08006cb4

08005690 <__retarget_lock_init_recursive>:
 8005690:	4770      	bx	lr

08005692 <__retarget_lock_acquire_recursive>:
 8005692:	4770      	bx	lr

08005694 <__retarget_lock_release_recursive>:
 8005694:	4770      	bx	lr
	...

08005698 <_free_r>:
 8005698:	b538      	push	{r3, r4, r5, lr}
 800569a:	4605      	mov	r5, r0
 800569c:	2900      	cmp	r1, #0
 800569e:	d040      	beq.n	8005722 <_free_r+0x8a>
 80056a0:	f851 3c04 	ldr.w	r3, [r1, #-4]
 80056a4:	1f0c      	subs	r4, r1, #4
 80056a6:	2b00      	cmp	r3, #0
 80056a8:	bfb8      	it	lt
 80056aa:	18e4      	addlt	r4, r4, r3
 80056ac:	f000 f8de 	bl	800586c <__malloc_lock>
 80056b0:	4a1c      	ldr	r2, [pc, #112]	@ (8005724 <_free_r+0x8c>)
 80056b2:	6813      	ldr	r3, [r2, #0]
 80056b4:	b933      	cbnz	r3, 80056c4 <_free_r+0x2c>
 80056b6:	6063      	str	r3, [r4, #4]
 80056b8:	6014      	str	r4, [r2, #0]
 80056ba:	4628      	mov	r0, r5
 80056bc:	e8bd 4038 	ldmia.w	sp!, {r3, r4, r5, lr}
 80056c0:	f000 b8da 	b.w	8005878 <__malloc_unlock>
 80056c4:	42a3      	cmp	r3, r4
 80056c6:	d908      	bls.n	80056da <_free_r+0x42>
 80056c8:	6820      	ldr	r0, [r4, #0]
 80056ca:	1821      	adds	r1, r4, r0
 80056cc:	428b      	cmp	r3, r1
 80056ce:	bf01      	itttt	eq
 80056d0:	6819      	ldreq	r1, [r3, #0]
 80056d2:	685b      	ldreq	r3, [r3, #4]
 80056d4:	1809      	addeq	r1, r1, r0
 80056d6:	6021      	streq	r1, [r4, #0]
 80056d8:	e7ed      	b.n	80056b6 <_free_r+0x1e>
 80056da:	461a      	mov	r2, r3
 80056dc:	685b      	ldr	r3, [r3, #4]
 80056de:	b10b      	cbz	r3, 80056e4 <_free_r+0x4c>
 80056e0:	42a3      	cmp	r3, r4
 80056e2:	d9fa      	bls.n	80056da <_free_r+0x42>
 80056e4:	6811      	ldr	r1, [r2, #0]
 80056e6:	1850      	adds	r0, r2, r1
 80056e8:	42a0      	cmp	r0, r4
 80056ea:	d10b      	bne.n	8005704 <_free_r+0x6c>
 80056ec:	6820      	ldr	r0, [r4, #0]
 80056ee:	4401      	add	r1, r0
 80056f0:	1850      	adds	r0, r2, r1
 80056f2:	4283      	cmp	r3, r0
 80056f4:	6011      	str	r1, [r2, #0]
 80056f6:	d1e0      	bne.n	80056ba <_free_r+0x22>
 80056f8:	6818      	ldr	r0, [r3, #0]
 80056fa:	685b      	ldr	r3, [r3, #4]
 80056fc:	4408      	add	r0, r1
 80056fe:	6010      	str	r0, [r2, #0]
 8005700:	6053      	str	r3, [r2, #4]
 8005702:	e7da      	b.n	80056ba <_free_r+0x22>
 8005704:	d902      	bls.n	800570c <_free_r+0x74>
 8005706:	230c      	movs	r3, #12
 8005708:	602b      	str	r3, [r5, #0]
 800570a:	e7d6      	b.n	80056ba <_free_r+0x22>
 800570c:	6820      	ldr	r0, [r4, #0]
 800570e:	1821      	adds	r1, r4, r0
 8005710:	428b      	cmp	r3, r1
 8005712:	bf01      	itttt	eq
 8005714:	6819      	ldreq	r1, [r3, #0]
 8005716:	685b      	ldreq	r3, [r3, #4]
 8005718:	1809      	addeq	r1, r1, r0
 800571a:	6021      	streq	r1, [r4, #0]
 800571c:	6063      	str	r3, [r4, #4]
 800571e:	6054      	str	r4, [r2, #4]
 8005720:	e7cb      	b.n	80056ba <_free_r+0x22>
 8005722:	bd38      	pop	{r3, r4, r5, pc}
 8005724:	200025ac 	.word	0x200025ac

08005728 <sbrk_aligned>:
 8005728:	b570      	push	{r4, r5, r6, lr}
 800572a:	4e0f      	ldr	r6, [pc, #60]	@ (8005768 <sbrk_aligned+0x40>)
 800572c:	460c      	mov	r4, r1
 800572e:	6831      	ldr	r1, [r6, #0]
 8005730:	4605      	mov	r5, r0
 8005732:	b911      	cbnz	r1, 800573a <sbrk_aligned+0x12>
 8005734:	f000 fe14 	bl	8006360 <_sbrk_r>
 8005738:	6030      	str	r0, [r6, #0]
 800573a:	4621      	mov	r1, r4
 800573c:	4628      	mov	r0, r5
 800573e:	f000 fe0f 	bl	8006360 <_sbrk_r>
 8005742:	1c43      	adds	r3, r0, #1
 8005744:	d103      	bne.n	800574e <sbrk_aligned+0x26>
 8005746:	f04f 34ff 	mov.w	r4, #4294967295
 800574a:	4620      	mov	r0, r4
 800574c:	bd70      	pop	{r4, r5, r6, pc}
 800574e:	1cc4      	adds	r4, r0, #3
 8005750:	f024 0403 	bic.w	r4, r4, #3
 8005754:	42a0      	cmp	r0, r4
 8005756:	d0f8      	beq.n	800574a <sbrk_aligned+0x22>
 8005758:	1a21      	subs	r1, r4, r0
 800575a:	4628      	mov	r0, r5
 800575c:	f000 fe00 	bl	8006360 <_sbrk_r>
 8005760:	3001      	adds	r0, #1
 8005762:	d1f2      	bne.n	800574a <sbrk_aligned+0x22>
 8005764:	e7ef      	b.n	8005746 <sbrk_aligned+0x1e>
 8005766:	bf00      	nop
 8005768:	200025a8 	.word	0x200025a8

0800576c <_malloc_r>:
 800576c:	e92d 43f8 	stmdb	sp!, {r3, r4, r5, r6, r7, r8, r9, lr}
 8005770:	1ccd      	adds	r5, r1, #3
 8005772:	f025 0503 	bic.w	r5, r5, #3
 8005776:	3508      	adds	r5, #8
 8005778:	2d0c      	cmp	r5, #12
 800577a:	bf38      	it	cc
 800577c:	250c      	movcc	r5, #12
 800577e:	2d00      	cmp	r5, #0
 8005780:	4606      	mov	r6, r0
 8005782:	db01      	blt.n	8005788 <_malloc_r+0x1c>
 8005784:	42a9      	cmp	r1, r5
 8005786:	d904      	bls.n	8005792 <_malloc_r+0x26>
 8005788:	230c      	movs	r3, #12
 800578a:	6033      	str	r3, [r6, #0]
 800578c:	2000      	movs	r0, #0
 800578e:	e8bd 83f8 	ldmia.w	sp!, {r3, r4, r5, r6, r7, r8, r9, pc}
 8005792:	f8df 80d4 	ldr.w	r8, [pc, #212]	@ 8005868 <_malloc_r+0xfc>
 8005796:	f000 f869 	bl	800586c <__malloc_lock>
 800579a:	f8d8 3000 	ldr.w	r3, [r8]
 800579e:	461c      	mov	r4, r3
 80057a0:	bb44      	cbnz	r4, 80057f4 <_malloc_r+0x88>
 80057a2:	4629      	mov	r1, r5
 80057a4:	4630      	mov	r0, r6
 80057a6:	f7ff ffbf 	bl	8005728 <sbrk_aligned>
 80057aa:	1c43      	adds	r3, r0, #1
 80057ac:	4604      	mov	r4, r0
 80057ae:	d158      	bne.n	8005862 <_malloc_r+0xf6>
 80057b0:	f8d8 4000 	ldr.w	r4, [r8]
 80057b4:	4627      	mov	r7, r4
 80057b6:	2f00      	cmp	r7, #0
 80057b8:	d143      	bne.n	8005842 <_malloc_r+0xd6>
 80057ba:	2c00      	cmp	r4, #0
 80057bc:	d04b      	beq.n	8005856 <_malloc_r+0xea>
 80057be:	6823      	ldr	r3, [r4, #0]
 80057c0:	4639      	mov	r1, r7
 80057c2:	4630      	mov	r0, r6
 80057c4:	eb04 0903 	add.w	r9, r4, r3
 80057c8:	f000 fdca 	bl	8006360 <_sbrk_r>
 80057cc:	4581      	cmp	r9, r0
 80057ce:	d142      	bne.n	8005856 <_malloc_r+0xea>
 80057d0:	6821      	ldr	r1, [r4, #0]
 80057d2:	4630      	mov	r0, r6
 80057d4:	1a6d      	subs	r5, r5, r1
 80057d6:	4629      	mov	r1, r5
 80057d8:	f7ff ffa6 	bl	8005728 <sbrk_aligned>
 80057dc:	3001      	adds	r0, #1
 80057de:	d03a      	beq.n	8005856 <_malloc_r+0xea>
 80057e0:	6823      	ldr	r3, [r4, #0]
 80057e2:	442b      	add	r3, r5
 80057e4:	6023      	str	r3, [r4, #0]
 80057e6:	f8d8 3000 	ldr.w	r3, [r8]
 80057ea:	685a      	ldr	r2, [r3, #4]
 80057ec:	bb62      	cbnz	r2, 8005848 <_malloc_r+0xdc>
 80057ee:	f8c8 7000 	str.w	r7, [r8]
 80057f2:	e00f      	b.n	8005814 <_malloc_r+0xa8>
 80057f4:	6822      	ldr	r2, [r4, #0]
 80057f6:	1b52      	subs	r2, r2, r5
 80057f8:	d420      	bmi.n	800583c <_malloc_r+0xd0>
 80057fa:	2a0b      	cmp	r2, #11
 80057fc:	d917      	bls.n	800582e <_malloc_r+0xc2>
 80057fe:	1961      	adds	r1, r4, r5
 8005800:	42a3      	cmp	r3, r4
 8005802:	6025      	str	r5, [r4, #0]
 8005804:	bf18      	it	ne
 8005806:	6059      	strne	r1, [r3, #4]
 8005808:	6863      	ldr	r3, [r4, #4]
 800580a:	bf08      	it	eq
 800580c:	f8c8 1000 	streq.w	r1, [r8]
 8005810:	5162      	str	r2, [r4, r5]
 8005812:	604b      	str	r3, [r1, #4]
 8005814:	4630      	mov	r0, r6
 8005816:	f000 f82f 	bl	8005878 <__malloc_unlock>
 800581a:	f104 000b 	add.w	r0, r4, #11
 800581e:	1d23      	adds	r3, r4, #4
 8005820:	f020 0007 	bic.w	r0, r0, #7
 8005824:	1ac2      	subs	r2, r0, r3
 8005826:	bf1c      	itt	ne
 8005828:	1a1b      	subne	r3, r3, r0
 800582a:	50a3      	strne	r3, [r4, r2]
 800582c:	e7af      	b.n	800578e <_malloc_r+0x22>
 800582e:	6862      	ldr	r2, [r4, #4]
 8005830:	42a3      	cmp	r3, r4
 8005832:	bf0c      	ite	eq
 8005834:	f8c8 2000 	streq.w	r2, [r8]
 8005838:	605a      	strne	r2, [r3, #4]
 800583a:	e7eb      	b.n	8005814 <_malloc_r+0xa8>
 800583c:	4623      	mov	r3, r4
 800583e:	6864      	ldr	r4, [r4, #4]
 8005840:	e7ae      	b.n	80057a0 <_malloc_r+0x34>
 8005842:	463c      	mov	r4, r7
 8005844:	687f      	ldr	r7, [r7, #4]
 8005846:	e7b6      	b.n	80057b6 <_malloc_r+0x4a>
 8005848:	461a      	mov	r2, r3
 800584a:	685b      	ldr	r3, [r3, #4]
 800584c:	42a3      	cmp	r3, r4
 800584e:	d1fb      	bne.n	8005848 <_malloc_r+0xdc>
 8005850:	2300      	movs	r3, #0
 8005852:	6053      	str	r3, [r2, #4]
 8005854:	e7de      	b.n	8005814 <_malloc_r+0xa8>
 8005856:	230c      	movs	r3, #12
 8005858:	4630      	mov	r0, r6
 800585a:	6033      	str	r3, [r6, #0]
 800585c:	f000 f80c 	bl	8005878 <__malloc_unlock>
 8005860:	e794      	b.n	800578c <_malloc_r+0x20>
 8005862:	6005      	str	r5, [r0, #0]
 8005864:	e7d6      	b.n	8005814 <_malloc_r+0xa8>
 8005866:	bf00      	nop
 8005868:	200025ac 	.word	0x200025ac

0800586c <__malloc_lock>:
 800586c:	4801      	ldr	r0, [pc, #4]	@ (8005874 <__malloc_lock+0x8>)
 800586e:	f7ff bf10 	b.w	8005692 <__retarget_lock_acquire_recursive>
 8005872:	bf00      	nop
 8005874:	200025a4 	.word	0x200025a4

08005878 <__malloc_unlock>:
 8005878:	4801      	ldr	r0, [pc, #4]	@ (8005880 <__malloc_unlock+0x8>)
 800587a:	f7ff bf0b 	b.w	8005694 <__retarget_lock_release_recursive>
 800587e:	bf00      	nop
 8005880:	200025a4 	.word	0x200025a4

08005884 <__ssputs_r>:
 8005884:	e92d 47f0 	stmdb	sp!, {r4, r5, r6, r7, r8, r9, sl, lr}
 8005888:	461f      	mov	r7, r3
 800588a:	688e      	ldr	r6, [r1, #8]
 800588c:	4682      	mov	sl, r0
 800588e:	42be      	cmp	r6, r7
 8005890:	460c      	mov	r4, r1
 8005892:	4690      	mov	r8, r2
 8005894:	680b      	ldr	r3, [r1, #0]
 8005896:	d82d      	bhi.n	80058f4 <__ssputs_r+0x70>
 8005898:	f9b1 200c 	ldrsh.w	r2, [r1, #12]
 800589c:	f412 6f90 	tst.w	r2, #1152	@ 0x480
 80058a0:	d026      	beq.n	80058f0 <__ssputs_r+0x6c>
 80058a2:	6965      	ldr	r5, [r4, #20]
 80058a4:	6909      	ldr	r1, [r1, #16]
 80058a6:	eb05 0545 	add.w	r5, r5, r5, lsl #1
 80058aa:	eba3 0901 	sub.w	r9, r3, r1
 80058ae:	eb05 75d5 	add.w	r5, r5, r5, lsr #31
 80058b2:	1c7b      	adds	r3, r7, #1
 80058b4:	444b      	add	r3, r9
 80058b6:	106d      	asrs	r5, r5, #1
 80058b8:	429d      	cmp	r5, r3
 80058ba:	bf38      	it	cc
 80058bc:	461d      	movcc	r5, r3
 80058be:	0553      	lsls	r3, r2, #21
 80058c0:	d527      	bpl.n	8005912 <__ssputs_r+0x8e>
 80058c2:	4629      	mov	r1, r5
 80058c4:	f7ff ff52 	bl	800576c <_malloc_r>
 80058c8:	4606      	mov	r6, r0
 80058ca:	b360      	cbz	r0, 8005926 <__ssputs_r+0xa2>
 80058cc:	464a      	mov	r2, r9
 80058ce:	6921      	ldr	r1, [r4, #16]
 80058d0:	f000 fd64 	bl	800639c <memcpy>
 80058d4:	89a3      	ldrh	r3, [r4, #12]
 80058d6:	f423 6390 	bic.w	r3, r3, #1152	@ 0x480
 80058da:	f043 0380 	orr.w	r3, r3, #128	@ 0x80
 80058de:	81a3      	strh	r3, [r4, #12]
 80058e0:	6126      	str	r6, [r4, #16]
 80058e2:	444e      	add	r6, r9
 80058e4:	6026      	str	r6, [r4, #0]
 80058e6:	463e      	mov	r6, r7
 80058e8:	6165      	str	r5, [r4, #20]
 80058ea:	eba5 0509 	sub.w	r5, r5, r9
 80058ee:	60a5      	str	r5, [r4, #8]
 80058f0:	42be      	cmp	r6, r7
 80058f2:	d900      	bls.n	80058f6 <__ssputs_r+0x72>
 80058f4:	463e      	mov	r6, r7
 80058f6:	4632      	mov	r2, r6
 80058f8:	4641      	mov	r1, r8
 80058fa:	6820      	ldr	r0, [r4, #0]
 80058fc:	f000 fcf3 	bl	80062e6 <memmove>
 8005900:	2000      	movs	r0, #0
 8005902:	68a3      	ldr	r3, [r4, #8]
 8005904:	1b9b      	subs	r3, r3, r6
 8005906:	60a3      	str	r3, [r4, #8]
 8005908:	6823      	ldr	r3, [r4, #0]
 800590a:	4433      	add	r3, r6
 800590c:	6023      	str	r3, [r4, #0]
 800590e:	e8bd 87f0 	ldmia.w	sp!, {r4, r5, r6, r7, r8, r9, sl, pc}
 8005912:	462a      	mov	r2, r5
 8005914:	f000 fd50 	bl	80063b8 <_realloc_r>
 8005918:	4606      	mov	r6, r0
 800591a:	2800      	cmp	r0, #0
 800591c:	d1e0      	bne.n	80058e0 <__ssputs_r+0x5c>
 800591e:	4650      	mov	r0, sl
 8005920:	6921      	ldr	r1, [r4, #16]
 8005922:	f7ff feb9 	bl	8005698 <_free_r>
 8005926:	230c      	movs	r3, #12
 8005928:	f8ca 3000 	str.w	r3, [sl]
 800592c:	89a3      	ldrh	r3, [r4, #12]
 800592e:	f04f 30ff 	mov.w	r0, #4294967295
 8005932:	f043 0340 	orr.w	r3, r3, #64	@ 0x40
 8005936:	81a3      	strh	r3, [r4, #12]
 8005938:	e7e9      	b.n	800590e <__ssputs_r+0x8a>
	...

0800593c <_svfiprintf_r>:
 800593c:	e92d 4ff0 	stmdb	sp!, {r4, r5, r6, r7, r8, r9, sl, fp, lr}
 8005940:	4698      	mov	r8, r3
 8005942:	898b      	ldrh	r3, [r1, #12]
 8005944:	4607      	mov	r7, r0
 8005946:	061b      	lsls	r3, r3, #24
 8005948:	460d      	mov	r5, r1
 800594a:	4614      	mov	r4, r2
 800594c:	b09d      	sub	sp, #116	@ 0x74
 800594e:	d510      	bpl.n	8005972 <_svfiprintf_r+0x36>
 8005950:	690b      	ldr	r3, [r1, #16]
 8005952:	b973      	cbnz	r3, 8005972 <_svfiprintf_r+0x36>
 8005954:	2140      	movs	r1, #64	@ 0x40
 8005956:	f7ff ff09 	bl	800576c <_malloc_r>
 800595a:	6028      	str	r0, [r5, #0]
 800595c:	6128      	str	r0, [r5, #16]
 800595e:	b930      	cbnz	r0, 800596e <_svfiprintf_r+0x32>
 8005960:	230c      	movs	r3, #12
 8005962:	603b      	str	r3, [r7, #0]
 8005964:	f04f 30ff 	mov.w	r0, #4294967295
 8005968:	b01d      	add	sp, #116	@ 0x74
 800596a:	e8bd 8ff0 	ldmia.w	sp!, {r4, r5, r6, r7, r8, r9, sl, fp, pc}
 800596e:	2340      	movs	r3, #64	@ 0x40
 8005970:	616b      	str	r3, [r5, #20]
 8005972:	2300      	movs	r3, #0
 8005974:	9309      	str	r3, [sp, #36]	@ 0x24
 8005976:	2320      	movs	r3, #32
 8005978:	f88d 3029 	strb.w	r3, [sp, #41]	@ 0x29
 800597c:	2330      	movs	r3, #48	@ 0x30
 800597e:	f04f 0901 	mov.w	r9, #1
 8005982:	f8cd 800c 	str.w	r8, [sp, #12]
 8005986:	f8df 8198 	ldr.w	r8, [pc, #408]	@ 8005b20 <_svfiprintf_r+0x1e4>
 800598a:	f88d 302a 	strb.w	r3, [sp, #42]	@ 0x2a
 800598e:	4623      	mov	r3, r4
 8005990:	469a      	mov	sl, r3
 8005992:	f813 2b01 	ldrb.w	r2, [r3], #1
 8005996:	b10a      	cbz	r2, 800599c <_svfiprintf_r+0x60>
 8005998:	2a25      	cmp	r2, #37	@ 0x25
 800599a:	d1f9      	bne.n	8005990 <_svfiprintf_r+0x54>
 800599c:	ebba 0b04 	subs.w	fp, sl, r4
 80059a0:	d00b      	beq.n	80059ba <_svfiprintf_r+0x7e>
 80059a2:	465b      	mov	r3, fp
 80059a4:	4622      	mov	r2, r4
 80059a6:	4629      	mov	r1, r5
 80059a8:	4638      	mov	r0, r7
 80059aa:	f7ff ff6b 	bl	8005884 <__ssputs_r>
 80059ae:	3001      	adds	r0, #1
 80059b0:	f000 80a7 	beq.w	8005b02 <_svfiprintf_r+0x1c6>
 80059b4:	9a09      	ldr	r2, [sp, #36]	@ 0x24
 80059b6:	445a      	add	r2, fp
 80059b8:	9209      	str	r2, [sp, #36]	@ 0x24
 80059ba:	f89a 3000 	ldrb.w	r3, [sl]
 80059be:	2b00      	cmp	r3, #0
 80059c0:	f000 809f 	beq.w	8005b02 <_svfiprintf_r+0x1c6>
 80059c4:	2300      	movs	r3, #0
 80059c6:	f04f 32ff 	mov.w	r2, #4294967295
 80059ca:	e9cd 2305 	strd	r2, r3, [sp, #20]
 80059ce:	f10a 0a01 	add.w	sl, sl, #1
 80059d2:	9304      	str	r3, [sp, #16]
 80059d4:	9307      	str	r3, [sp, #28]
 80059d6:	f88d 3053 	strb.w	r3, [sp, #83]	@ 0x53
 80059da:	931a      	str	r3, [sp, #104]	@ 0x68
 80059dc:	4654      	mov	r4, sl
 80059de:	2205      	movs	r2, #5
 80059e0:	f814 1b01 	ldrb.w	r1, [r4], #1
 80059e4:	484e      	ldr	r0, [pc, #312]	@ (8005b20 <_svfiprintf_r+0x1e4>)
 80059e6:	f000 fccb 	bl	8006380 <memchr>
 80059ea:	9a04      	ldr	r2, [sp, #16]
 80059ec:	b9d8      	cbnz	r0, 8005a26 <_svfiprintf_r+0xea>
 80059ee:	06d0      	lsls	r0, r2, #27
 80059f0:	bf44      	itt	mi
 80059f2:	2320      	movmi	r3, #32
 80059f4:	f88d 3053 	strbmi.w	r3, [sp, #83]	@ 0x53
 80059f8:	0711      	lsls	r1, r2, #28
 80059fa:	bf44      	itt	mi
 80059fc:	232b      	movmi	r3, #43	@ 0x2b
 80059fe:	f88d 3053 	strbmi.w	r3, [sp, #83]	@ 0x53
 8005a02:	f89a 3000 	ldrb.w	r3, [sl]
 8005a06:	2b2a      	cmp	r3, #42	@ 0x2a
 8005a08:	d015      	beq.n	8005a36 <_svfiprintf_r+0xfa>
 8005a0a:	4654      	mov	r4, sl
 8005a0c:	2000      	movs	r0, #0
 8005a0e:	f04f 0c0a 	mov.w	ip, #10
 8005a12:	9a07      	ldr	r2, [sp, #28]
 8005a14:	4621      	mov	r1, r4
 8005a16:	f811 3b01 	ldrb.w	r3, [r1], #1
 8005a1a:	3b30      	subs	r3, #48	@ 0x30
 8005a1c:	2b09      	cmp	r3, #9
 8005a1e:	d94b      	bls.n	8005ab8 <_svfiprintf_r+0x17c>
 8005a20:	b1b0      	cbz	r0, 8005a50 <_svfiprintf_r+0x114>
 8005a22:	9207      	str	r2, [sp, #28]
 8005a24:	e014      	b.n	8005a50 <_svfiprintf_r+0x114>
 8005a26:	eba0 0308 	sub.w	r3, r0, r8
 8005a2a:	fa09 f303 	lsl.w	r3, r9, r3
 8005a2e:	4313      	orrs	r3, r2
 8005a30:	46a2      	mov	sl, r4
 8005a32:	9304      	str	r3, [sp, #16]
 8005a34:	e7d2      	b.n	80059dc <_svfiprintf_r+0xa0>
 8005a36:	9b03      	ldr	r3, [sp, #12]
 8005a38:	1d19      	adds	r1, r3, #4
 8005a3a:	681b      	ldr	r3, [r3, #0]
 8005a3c:	9103      	str	r1, [sp, #12]
 8005a3e:	2b00      	cmp	r3, #0
 8005a40:	bfbb      	ittet	lt
 8005a42:	425b      	neglt	r3, r3
 8005a44:	f042 0202 	orrlt.w	r2, r2, #2
 8005a48:	9307      	strge	r3, [sp, #28]
 8005a4a:	9307      	strlt	r3, [sp, #28]
 8005a4c:	bfb8      	it	lt
 8005a4e:	9204      	strlt	r2, [sp, #16]
 8005a50:	7823      	ldrb	r3, [r4, #0]
 8005a52:	2b2e      	cmp	r3, #46	@ 0x2e
 8005a54:	d10a      	bne.n	8005a6c <_svfiprintf_r+0x130>
 8005a56:	7863      	ldrb	r3, [r4, #1]
 8005a58:	2b2a      	cmp	r3, #42	@ 0x2a
 8005a5a:	d132      	bne.n	8005ac2 <_svfiprintf_r+0x186>
 8005a5c:	9b03      	ldr	r3, [sp, #12]
 8005a5e:	3402      	adds	r4, #2
 8005a60:	1d1a      	adds	r2, r3, #4
 8005a62:	681b      	ldr	r3, [r3, #0]
 8005a64:	9203      	str	r2, [sp, #12]
 8005a66:	ea43 73e3 	orr.w	r3, r3, r3, asr #31
 8005a6a:	9305      	str	r3, [sp, #20]
 8005a6c:	f8df a0b4 	ldr.w	sl, [pc, #180]	@ 8005b24 <_svfiprintf_r+0x1e8>
 8005a70:	2203      	movs	r2, #3
 8005a72:	4650      	mov	r0, sl
 8005a74:	7821      	ldrb	r1, [r4, #0]
 8005a76:	f000 fc83 	bl	8006380 <memchr>
 8005a7a:	b138      	cbz	r0, 8005a8c <_svfiprintf_r+0x150>
 8005a7c:	2240      	movs	r2, #64	@ 0x40
 8005a7e:	9b04      	ldr	r3, [sp, #16]
 8005a80:	eba0 000a 	sub.w	r0, r0, sl
 8005a84:	4082      	lsls	r2, r0
 8005a86:	4313      	orrs	r3, r2
 8005a88:	3401      	adds	r4, #1
 8005a8a:	9304      	str	r3, [sp, #16]
 8005a8c:	f814 1b01 	ldrb.w	r1, [r4], #1
 8005a90:	2206      	movs	r2, #6
 8005a92:	4825      	ldr	r0, [pc, #148]	@ (8005b28 <_svfiprintf_r+0x1ec>)
 8005a94:	f88d 1028 	strb.w	r1, [sp, #40]	@ 0x28
 8005a98:	f000 fc72 	bl	8006380 <memchr>
 8005a9c:	2800      	cmp	r0, #0
 8005a9e:	d036      	beq.n	8005b0e <_svfiprintf_r+0x1d2>
 8005aa0:	4b22      	ldr	r3, [pc, #136]	@ (8005b2c <_svfiprintf_r+0x1f0>)
 8005aa2:	bb1b      	cbnz	r3, 8005aec <_svfiprintf_r+0x1b0>
 8005aa4:	9b03      	ldr	r3, [sp, #12]
 8005aa6:	3307      	adds	r3, #7
 8005aa8:	f023 0307 	bic.w	r3, r3, #7
 8005aac:	3308      	adds	r3, #8
 8005aae:	9303      	str	r3, [sp, #12]
 8005ab0:	9b09      	ldr	r3, [sp, #36]	@ 0x24
 8005ab2:	4433      	add	r3, r6
 8005ab4:	9309      	str	r3, [sp, #36]	@ 0x24
 8005ab6:	e76a      	b.n	800598e <_svfiprintf_r+0x52>
 8005ab8:	460c      	mov	r4, r1
 8005aba:	2001      	movs	r0, #1
 8005abc:	fb0c 3202 	mla	r2, ip, r2, r3
 8005ac0:	e7a8      	b.n	8005a14 <_svfiprintf_r+0xd8>
 8005ac2:	2300      	movs	r3, #0
 8005ac4:	f04f 0c0a 	mov.w	ip, #10
 8005ac8:	4619      	mov	r1, r3
 8005aca:	3401      	adds	r4, #1
 8005acc:	9305      	str	r3, [sp, #20]
 8005ace:	4620      	mov	r0, r4
 8005ad0:	f810 2b01 	ldrb.w	r2, [r0], #1
 8005ad4:	3a30      	subs	r2, #48	@ 0x30
 8005ad6:	2a09      	cmp	r2, #9
 8005ad8:	d903      	bls.n	8005ae2 <_svfiprintf_r+0x1a6>
 8005ada:	2b00      	cmp	r3, #0
 8005adc:	d0c6      	beq.n	8005a6c <_svfiprintf_r+0x130>
 8005ade:	9105      	str	r1, [sp, #20]
 8005ae0:	e7c4      	b.n	8005a6c <_svfiprintf_r+0x130>
 8005ae2:	4604      	mov	r4, r0
 8005ae4:	2301      	movs	r3, #1
 8005ae6:	fb0c 2101 	mla	r1, ip, r1, r2
 8005aea:	e7f0      	b.n	8005ace <_svfiprintf_r+0x192>
 8005aec:	ab03      	add	r3, sp, #12
 8005aee:	9300      	str	r3, [sp, #0]
 8005af0:	462a      	mov	r2, r5
 8005af2:	4638      	mov	r0, r7
 8005af4:	4b0e      	ldr	r3, [pc, #56]	@ (8005b30 <_svfiprintf_r+0x1f4>)
 8005af6:	a904      	add	r1, sp, #16
 8005af8:	f3af 8000 	nop.w
 8005afc:	1c42      	adds	r2, r0, #1
 8005afe:	4606      	mov	r6, r0
 8005b00:	d1d6      	bne.n	8005ab0 <_svfiprintf_r+0x174>
 8005b02:	89ab      	ldrh	r3, [r5, #12]
 8005b04:	065b      	lsls	r3, r3, #25
 8005b06:	f53f af2d 	bmi.w	8005964 <_svfiprintf_r+0x28>
 8005b0a:	9809      	ldr	r0, [sp, #36]	@ 0x24
 8005b0c:	e72c      	b.n	8005968 <_svfiprintf_r+0x2c>
 8005b0e:	ab03      	add	r3, sp, #12
 8005b10:	9300      	str	r3, [sp, #0]
 8005b12:	462a      	mov	r2, r5
 8005b14:	4638      	mov	r0, r7
 8005b16:	4b06      	ldr	r3, [pc, #24]	@ (8005b30 <_svfiprintf_r+0x1f4>)
 8005b18:	a904      	add	r1, sp, #16
 8005b1a:	f000 f9bd 	bl	8005e98 <_printf_i>
 8005b1e:	e7ed      	b.n	8005afc <_svfiprintf_r+0x1c0>
 8005b20:	080066ee 	.word	0x080066ee
 8005b24:	080066f4 	.word	0x080066f4
 8005b28:	080066f8 	.word	0x080066f8
 8005b2c:	00000000 	.word	0x00000000
 8005b30:	08005885 	.word	0x08005885

08005b34 <__sfputc_r>:
 8005b34:	6893      	ldr	r3, [r2, #8]
 8005b36:	b410      	push	{r4}
 8005b38:	3b01      	subs	r3, #1
 8005b3a:	2b00      	cmp	r3, #0
 8005b3c:	6093      	str	r3, [r2, #8]
 8005b3e:	da07      	bge.n	8005b50 <__sfputc_r+0x1c>
 8005b40:	6994      	ldr	r4, [r2, #24]
 8005b42:	42a3      	cmp	r3, r4
 8005b44:	db01      	blt.n	8005b4a <__sfputc_r+0x16>
 8005b46:	290a      	cmp	r1, #10
 8005b48:	d102      	bne.n	8005b50 <__sfputc_r+0x1c>
 8005b4a:	bc10      	pop	{r4}
 8005b4c:	f7ff bc93 	b.w	8005476 <__swbuf_r>
 8005b50:	6813      	ldr	r3, [r2, #0]
 8005b52:	1c58      	adds	r0, r3, #1
 8005b54:	6010      	str	r0, [r2, #0]
 8005b56:	7019      	strb	r1, [r3, #0]
 8005b58:	4608      	mov	r0, r1
 8005b5a:	bc10      	pop	{r4}
 8005b5c:	4770      	bx	lr

08005b5e <__sfputs_r>:
 8005b5e:	b5f8      	push	{r3, r4, r5, r6, r7, lr}
 8005b60:	4606      	mov	r6, r0
 8005b62:	460f      	mov	r7, r1
 8005b64:	4614      	mov	r4, r2
 8005b66:	18d5      	adds	r5, r2, r3
 8005b68:	42ac      	cmp	r4, r5
 8005b6a:	d101      	bne.n	8005b70 <__sfputs_r+0x12>
 8005b6c:	2000      	movs	r0, #0
 8005b6e:	e007      	b.n	8005b80 <__sfputs_r+0x22>
 8005b70:	463a      	mov	r2, r7
 8005b72:	4630      	mov	r0, r6
 8005b74:	f814 1b01 	ldrb.w	r1, [r4], #1
 8005b78:	f7ff ffdc 	bl	8005b34 <__sfputc_r>
 8005b7c:	1c43      	adds	r3, r0, #1
 8005b7e:	d1f3      	bne.n	8005b68 <__sfputs_r+0xa>
 8005b80:	bdf8      	pop	{r3, r4, r5, r6, r7, pc}
	...

08005b84 <_vfiprintf_r>:
 8005b84:	e92d 4ff0 	stmdb	sp!, {r4, r5, r6, r7, r8, r9, sl, fp, lr}
 8005b88:	460d      	mov	r5, r1
 8005b8a:	4614      	mov	r4, r2
 8005b8c:	4698      	mov	r8, r3
 8005b8e:	4606      	mov	r6, r0
 8005b90:	b09d      	sub	sp, #116	@ 0x74
 8005b92:	b118      	cbz	r0, 8005b9c <_vfiprintf_r+0x18>
 8005b94:	6a03      	ldr	r3, [r0, #32]
 8005b96:	b90b      	cbnz	r3, 8005b9c <_vfiprintf_r+0x18>
 8005b98:	f7ff fb4e 	bl	8005238 <__sinit>
 8005b9c:	6e6b      	ldr	r3, [r5, #100]	@ 0x64
 8005b9e:	07d9      	lsls	r1, r3, #31
 8005ba0:	d405      	bmi.n	8005bae <_vfiprintf_r+0x2a>
 8005ba2:	89ab      	ldrh	r3, [r5, #12]
 8005ba4:	059a      	lsls	r2, r3, #22
 8005ba6:	d402      	bmi.n	8005bae <_vfiprintf_r+0x2a>
 8005ba8:	6da8      	ldr	r0, [r5, #88]	@ 0x58
 8005baa:	f7ff fd72 	bl	8005692 <__retarget_lock_acquire_recursive>
 8005bae:	89ab      	ldrh	r3, [r5, #12]
 8005bb0:	071b      	lsls	r3, r3, #28
 8005bb2:	d501      	bpl.n	8005bb8 <_vfiprintf_r+0x34>
 8005bb4:	692b      	ldr	r3, [r5, #16]
 8005bb6:	b99b      	cbnz	r3, 8005be0 <_vfiprintf_r+0x5c>
 8005bb8:	4629      	mov	r1, r5
 8005bba:	4630      	mov	r0, r6
 8005bbc:	f7ff fc9a 	bl	80054f4 <__swsetup_r>
 8005bc0:	b170      	cbz	r0, 8005be0 <_vfiprintf_r+0x5c>
 8005bc2:	6e6b      	ldr	r3, [r5, #100]	@ 0x64
 8005bc4:	07dc      	lsls	r4, r3, #31
 8005bc6:	d504      	bpl.n	8005bd2 <_vfiprintf_r+0x4e>
 8005bc8:	f04f 30ff 	mov.w	r0, #4294967295
 8005bcc:	b01d      	add	sp, #116	@ 0x74
 8005bce:	e8bd 8ff0 	ldmia.w	sp!, {r4, r5, r6, r7, r8, r9, sl, fp, pc}
 8005bd2:	89ab      	ldrh	r3, [r5, #12]
 8005bd4:	0598      	lsls	r0, r3, #22
 8005bd6:	d4f7      	bmi.n	8005bc8 <_vfiprintf_r+0x44>
 8005bd8:	6da8      	ldr	r0, [r5, #88]	@ 0x58
 8005bda:	f7ff fd5b 	bl	8005694 <__retarget_lock_release_recursive>
 8005bde:	e7f3      	b.n	8005bc8 <_vfiprintf_r+0x44>
 8005be0:	2300      	movs	r3, #0
 8005be2:	9309      	str	r3, [sp, #36]	@ 0x24
 8005be4:	2320      	movs	r3, #32
 8005be6:	f88d 3029 	strb.w	r3, [sp, #41]	@ 0x29
 8005bea:	2330      	movs	r3, #48	@ 0x30
 8005bec:	f04f 0901 	mov.w	r9, #1
 8005bf0:	f8cd 800c 	str.w	r8, [sp, #12]
 8005bf4:	f8df 81a8 	ldr.w	r8, [pc, #424]	@ 8005da0 <_vfiprintf_r+0x21c>
 8005bf8:	f88d 302a 	strb.w	r3, [sp, #42]	@ 0x2a
 8005bfc:	4623      	mov	r3, r4
 8005bfe:	469a      	mov	sl, r3
 8005c00:	f813 2b01 	ldrb.w	r2, [r3], #1
 8005c04:	b10a      	cbz	r2, 8005c0a <_vfiprintf_r+0x86>
 8005c06:	2a25      	cmp	r2, #37	@ 0x25
 8005c08:	d1f9      	bne.n	8005bfe <_vfiprintf_r+0x7a>
 8005c0a:	ebba 0b04 	subs.w	fp, sl, r4
 8005c0e:	d00b      	beq.n	8005c28 <_vfiprintf_r+0xa4>
 8005c10:	465b      	mov	r3, fp
 8005c12:	4622      	mov	r2, r4
 8005c14:	4629      	mov	r1, r5
 8005c16:	4630      	mov	r0, r6
 8005c18:	f7ff ffa1 	bl	8005b5e <__sfputs_r>
 8005c1c:	3001      	adds	r0, #1
 8005c1e:	f000 80a7 	beq.w	8005d70 <_vfiprintf_r+0x1ec>
 8005c22:	9a09      	ldr	r2, [sp, #36]	@ 0x24
 8005c24:	445a      	add	r2, fp
 8005c26:	9209      	str	r2, [sp, #36]	@ 0x24
 8005c28:	f89a 3000 	ldrb.w	r3, [sl]
 8005c2c:	2b00      	cmp	r3, #0
 8005c2e:	f000 809f 	beq.w	8005d70 <_vfiprintf_r+0x1ec>
 8005c32:	2300      	movs	r3, #0
 8005c34:	f04f 32ff 	mov.w	r2, #4294967295
 8005c38:	e9cd 2305 	strd	r2, r3, [sp, #20]
 8005c3c:	f10a 0a01 	add.w	sl, sl, #1
 8005c40:	9304      	str	r3, [sp, #16]
 8005c42:	9307      	str	r3, [sp, #28]
 8005c44:	f88d 3053 	strb.w	r3, [sp, #83]	@ 0x53
 8005c48:	931a      	str	r3, [sp, #104]	@ 0x68
 8005c4a:	4654      	mov	r4, sl
 8005c4c:	2205      	movs	r2, #5
 8005c4e:	f814 1b01 	ldrb.w	r1, [r4], #1
 8005c52:	4853      	ldr	r0, [pc, #332]	@ (8005da0 <_vfiprintf_r+0x21c>)
 8005c54:	f000 fb94 	bl	8006380 <memchr>
 8005c58:	9a04      	ldr	r2, [sp, #16]
 8005c5a:	b9d8      	cbnz	r0, 8005c94 <_vfiprintf_r+0x110>
 8005c5c:	06d1      	lsls	r1, r2, #27
 8005c5e:	bf44      	itt	mi
 8005c60:	2320      	movmi	r3, #32
 8005c62:	f88d 3053 	strbmi.w	r3, [sp, #83]	@ 0x53
 8005c66:	0713      	lsls	r3, r2, #28
 8005c68:	bf44      	itt	mi
 8005c6a:	232b      	movmi	r3, #43	@ 0x2b
 8005c6c:	f88d 3053 	strbmi.w	r3, [sp, #83]	@ 0x53
 8005c70:	f89a 3000 	ldrb.w	r3, [sl]
 8005c74:	2b2a      	cmp	r3, #42	@ 0x2a
 8005c76:	d015      	beq.n	8005ca4 <_vfiprintf_r+0x120>
 8005c78:	4654      	mov	r4, sl
 8005c7a:	2000      	movs	r0, #0
 8005c7c:	f04f 0c0a 	mov.w	ip, #10
 8005c80:	9a07      	ldr	r2, [sp, #28]
 8005c82:	4621      	mov	r1, r4
 8005c84:	f811 3b01 	ldrb.w	r3, [r1], #1
 8005c88:	3b30      	subs	r3, #48	@ 0x30
 8005c8a:	2b09      	cmp	r3, #9
 8005c8c:	d94b      	bls.n	8005d26 <_vfiprintf_r+0x1a2>
 8005c8e:	b1b0      	cbz	r0, 8005cbe <_vfiprintf_r+0x13a>
 8005c90:	9207      	str	r2, [sp, #28]
 8005c92:	e014      	b.n	8005cbe <_vfiprintf_r+0x13a>
 8005c94:	eba0 0308 	sub.w	r3, r0, r8
 8005c98:	fa09 f303 	lsl.w	r3, r9, r3
 8005c9c:	4313      	orrs	r3, r2
 8005c9e:	46a2      	mov	sl, r4
 8005ca0:	9304      	str	r3, [sp, #16]
 8005ca2:	e7d2      	b.n	8005c4a <_vfiprintf_r+0xc6>
 8005ca4:	9b03      	ldr	r3, [sp, #12]
 8005ca6:	1d19      	adds	r1, r3, #4
 8005ca8:	681b      	ldr	r3, [r3, #0]
 8005caa:	9103      	str	r1, [sp, #12]
 8005cac:	2b00      	cmp	r3, #0
 8005cae:	bfbb      	ittet	lt
 8005cb0:	425b      	neglt	r3, r3
 8005cb2:	f042 0202 	orrlt.w	r2, r2, #2
 8005cb6:	9307      	strge	r3, [sp, #28]
 8005cb8:	9307      	strlt	r3, [sp, #28]
 8005cba:	bfb8      	it	lt
 8005cbc:	9204      	strlt	r2, [sp, #16]
 8005cbe:	7823      	ldrb	r3, [r4, #0]
 8005cc0:	2b2e      	cmp	r3, #46	@ 0x2e
 8005cc2:	d10a      	bne.n	8005cda <_vfiprintf_r+0x156>
 8005cc4:	7863      	ldrb	r3, [r4, #1]
 8005cc6:	2b2a      	cmp	r3, #42	@ 0x2a
 8005cc8:	d132      	bne.n	8005d30 <_vfiprintf_r+0x1ac>
 8005cca:	9b03      	ldr	r3, [sp, #12]
 8005ccc:	3402      	adds	r4, #2
 8005cce:	1d1a      	adds	r2, r3, #4
 8005cd0:	681b      	ldr	r3, [r3, #0]
 8005cd2:	9203      	str	r2, [sp, #12]
 8005cd4:	ea43 73e3 	orr.w	r3, r3, r3, asr #31
 8005cd8:	9305      	str	r3, [sp, #20]
 8005cda:	f8df a0c8 	ldr.w	sl, [pc, #200]	@ 8005da4 <_vfiprintf_r+0x220>
 8005cde:	2203      	movs	r2, #3
 8005ce0:	4650      	mov	r0, sl
 8005ce2:	7821      	ldrb	r1, [r4, #0]
 8005ce4:	f000 fb4c 	bl	8006380 <memchr>
 8005ce8:	b138      	cbz	r0, 8005cfa <_vfiprintf_r+0x176>
 8005cea:	2240      	movs	r2, #64	@ 0x40
 8005cec:	9b04      	ldr	r3, [sp, #16]
 8005cee:	eba0 000a 	sub.w	r0, r0, sl
 8005cf2:	4082      	lsls	r2, r0
 8005cf4:	4313      	orrs	r3, r2
 8005cf6:	3401      	adds	r4, #1
 8005cf8:	9304      	str	r3, [sp, #16]
 8005cfa:	f814 1b01 	ldrb.w	r1, [r4], #1
 8005cfe:	2206      	movs	r2, #6
 8005d00:	4829      	ldr	r0, [pc, #164]	@ (8005da8 <_vfiprintf_r+0x224>)
 8005d02:	f88d 1028 	strb.w	r1, [sp, #40]	@ 0x28
 8005d06:	f000 fb3b 	bl	8006380 <memchr>
 8005d0a:	2800      	cmp	r0, #0
 8005d0c:	d03f      	beq.n	8005d8e <_vfiprintf_r+0x20a>
 8005d0e:	4b27      	ldr	r3, [pc, #156]	@ (8005dac <_vfiprintf_r+0x228>)
 8005d10:	bb1b      	cbnz	r3, 8005d5a <_vfiprintf_r+0x1d6>
 8005d12:	9b03      	ldr	r3, [sp, #12]
 8005d14:	3307      	adds	r3, #7
 8005d16:	f023 0307 	bic.w	r3, r3, #7
 8005d1a:	3308      	adds	r3, #8
 8005d1c:	9303      	str	r3, [sp, #12]
 8005d1e:	9b09      	ldr	r3, [sp, #36]	@ 0x24
 8005d20:	443b      	add	r3, r7
 8005d22:	9309      	str	r3, [sp, #36]	@ 0x24
 8005d24:	e76a      	b.n	8005bfc <_vfiprintf_r+0x78>
 8005d26:	460c      	mov	r4, r1
 8005d28:	2001      	movs	r0, #1
 8005d2a:	fb0c 3202 	mla	r2, ip, r2, r3
 8005d2e:	e7a8      	b.n	8005c82 <_vfiprintf_r+0xfe>
 8005d30:	2300      	movs	r3, #0
 8005d32:	f04f 0c0a 	mov.w	ip, #10
 8005d36:	4619      	mov	r1, r3
 8005d38:	3401      	adds	r4, #1
 8005d3a:	9305      	str	r3, [sp, #20]
 8005d3c:	4620      	mov	r0, r4
 8005d3e:	f810 2b01 	ldrb.w	r2, [r0], #1
 8005d42:	3a30      	subs	r2, #48	@ 0x30
 8005d44:	2a09      	cmp	r2, #9
 8005d46:	d903      	bls.n	8005d50 <_vfiprintf_r+0x1cc>
 8005d48:	2b00      	cmp	r3, #0
 8005d4a:	d0c6      	beq.n	8005cda <_vfiprintf_r+0x156>
 8005d4c:	9105      	str	r1, [sp, #20]
 8005d4e:	e7c4      	b.n	8005cda <_vfiprintf_r+0x156>
 8005d50:	4604      	mov	r4, r0
 8005d52:	2301      	movs	r3, #1
 8005d54:	fb0c 2101 	mla	r1, ip, r1, r2
 8005d58:	e7f0      	b.n	8005d3c <_vfiprintf_r+0x1b8>
 8005d5a:	ab03      	add	r3, sp, #12
 8005d5c:	9300      	str	r3, [sp, #0]
 8005d5e:	462a      	mov	r2, r5
 8005d60:	4630      	mov	r0, r6
 8005d62:	4b13      	ldr	r3, [pc, #76]	@ (8005db0 <_vfiprintf_r+0x22c>)
 8005d64:	a904      	add	r1, sp, #16
 8005d66:	f3af 8000 	nop.w
 8005d6a:	4607      	mov	r7, r0
 8005d6c:	1c78      	adds	r0, r7, #1
 8005d6e:	d1d6      	bne.n	8005d1e <_vfiprintf_r+0x19a>
 8005d70:	6e6b      	ldr	r3, [r5, #100]	@ 0x64
 8005d72:	07d9      	lsls	r1, r3, #31
 8005d74:	d405      	bmi.n	8005d82 <_vfiprintf_r+0x1fe>
 8005d76:	89ab      	ldrh	r3, [r5, #12]
 8005d78:	059a      	lsls	r2, r3, #22
 8005d7a:	d402      	bmi.n	8005d82 <_vfiprintf_r+0x1fe>
 8005d7c:	6da8      	ldr	r0, [r5, #88]	@ 0x58
 8005d7e:	f7ff fc89 	bl	8005694 <__retarget_lock_release_recursive>
 8005d82:	89ab      	ldrh	r3, [r5, #12]
 8005d84:	065b      	lsls	r3, r3, #25
 8005d86:	f53f af1f 	bmi.w	8005bc8 <_vfiprintf_r+0x44>
 8005d8a:	9809      	ldr	r0, [sp, #36]	@ 0x24
 8005d8c:	e71e      	b.n	8005bcc <_vfiprintf_r+0x48>
 8005d8e:	ab03      	add	r3, sp, #12
 8005d90:	9300      	str	r3, [sp, #0]
 8005d92:	462a      	mov	r2, r5
 8005d94:	4630      	mov	r0, r6
 8005d96:	4b06      	ldr	r3, [pc, #24]	@ (8005db0 <_vfiprintf_r+0x22c>)
 8005d98:	a904      	add	r1, sp, #16
 8005d9a:	f000 f87d 	bl	8005e98 <_printf_i>
 8005d9e:	e7e4      	b.n	8005d6a <_vfiprintf_r+0x1e6>
 8005da0:	080066ee 	.word	0x080066ee
 8005da4:	080066f4 	.word	0x080066f4
 8005da8:	080066f8 	.word	0x080066f8
 8005dac:	00000000 	.word	0x00000000
 8005db0:	08005b5f 	.word	0x08005b5f

08005db4 <_printf_common>:
 8005db4:	e92d 47f0 	stmdb	sp!, {r4, r5, r6, r7, r8, r9, sl, lr}
 8005db8:	4616      	mov	r6, r2
 8005dba:	4698      	mov	r8, r3
 8005dbc:	688a      	ldr	r2, [r1, #8]
 8005dbe:	690b      	ldr	r3, [r1, #16]
 8005dc0:	4607      	mov	r7, r0
 8005dc2:	4293      	cmp	r3, r2
 8005dc4:	bfb8      	it	lt
 8005dc6:	4613      	movlt	r3, r2
 8005dc8:	6033      	str	r3, [r6, #0]
 8005dca:	f891 2043 	ldrb.w	r2, [r1, #67]	@ 0x43
 8005dce:	460c      	mov	r4, r1
 8005dd0:	f8dd 9020 	ldr.w	r9, [sp, #32]
 8005dd4:	b10a      	cbz	r2, 8005dda <_printf_common+0x26>
 8005dd6:	3301      	adds	r3, #1
 8005dd8:	6033      	str	r3, [r6, #0]
 8005dda:	6823      	ldr	r3, [r4, #0]
 8005ddc:	0699      	lsls	r1, r3, #26
 8005dde:	bf42      	ittt	mi
 8005de0:	6833      	ldrmi	r3, [r6, #0]
 8005de2:	3302      	addmi	r3, #2
 8005de4:	6033      	strmi	r3, [r6, #0]
 8005de6:	6825      	ldr	r5, [r4, #0]
 8005de8:	f015 0506 	ands.w	r5, r5, #6
 8005dec:	d106      	bne.n	8005dfc <_printf_common+0x48>
 8005dee:	f104 0a19 	add.w	sl, r4, #25
 8005df2:	68e3      	ldr	r3, [r4, #12]
 8005df4:	6832      	ldr	r2, [r6, #0]
 8005df6:	1a9b      	subs	r3, r3, r2
 8005df8:	42ab      	cmp	r3, r5
 8005dfa:	dc2b      	bgt.n	8005e54 <_printf_common+0xa0>
 8005dfc:	f894 3043 	ldrb.w	r3, [r4, #67]	@ 0x43
 8005e00:	6822      	ldr	r2, [r4, #0]
 8005e02:	3b00      	subs	r3, #0
 8005e04:	bf18      	it	ne
 8005e06:	2301      	movne	r3, #1
 8005e08:	0692      	lsls	r2, r2, #26
 8005e0a:	d430      	bmi.n	8005e6e <_printf_common+0xba>
 8005e0c:	4641      	mov	r1, r8
 8005e0e:	4638      	mov	r0, r7
 8005e10:	f104 0243 	add.w	r2, r4, #67	@ 0x43
 8005e14:	47c8      	blx	r9
 8005e16:	3001      	adds	r0, #1
 8005e18:	d023      	beq.n	8005e62 <_printf_common+0xae>
 8005e1a:	6823      	ldr	r3, [r4, #0]
 8005e1c:	6922      	ldr	r2, [r4, #16]
 8005e1e:	f003 0306 	and.w	r3, r3, #6
 8005e22:	2b04      	cmp	r3, #4
 8005e24:	bf14      	ite	ne
 8005e26:	2500      	movne	r5, #0
 8005e28:	6833      	ldreq	r3, [r6, #0]
 8005e2a:	f04f 0600 	mov.w	r6, #0
 8005e2e:	bf08      	it	eq
 8005e30:	68e5      	ldreq	r5, [r4, #12]
 8005e32:	f104 041a 	add.w	r4, r4, #26
 8005e36:	bf08      	it	eq
 8005e38:	1aed      	subeq	r5, r5, r3
 8005e3a:	f854 3c12 	ldr.w	r3, [r4, #-18]
 8005e3e:	bf08      	it	eq
 8005e40:	ea25 75e5 	biceq.w	r5, r5, r5, asr #31
 8005e44:	4293      	cmp	r3, r2
 8005e46:	bfc4      	itt	gt
 8005e48:	1a9b      	subgt	r3, r3, r2
 8005e4a:	18ed      	addgt	r5, r5, r3
 8005e4c:	42b5      	cmp	r5, r6
 8005e4e:	d11a      	bne.n	8005e86 <_printf_common+0xd2>
 8005e50:	2000      	movs	r0, #0
 8005e52:	e008      	b.n	8005e66 <_printf_common+0xb2>
 8005e54:	2301      	movs	r3, #1
 8005e56:	4652      	mov	r2, sl
 8005e58:	4641      	mov	r1, r8
 8005e5a:	4638      	mov	r0, r7
 8005e5c:	47c8      	blx	r9
 8005e5e:	3001      	adds	r0, #1
 8005e60:	d103      	bne.n	8005e6a <_printf_common+0xb6>
 8005e62:	f04f 30ff 	mov.w	r0, #4294967295
 8005e66:	e8bd 87f0 	ldmia.w	sp!, {r4, r5, r6, r7, r8, r9, sl, pc}
 8005e6a:	3501      	adds	r5, #1
 8005e6c:	e7c1      	b.n	8005df2 <_printf_common+0x3e>
 8005e6e:	2030      	movs	r0, #48	@ 0x30
 8005e70:	18e1      	adds	r1, r4, r3
 8005e72:	f881 0043 	strb.w	r0, [r1, #67]	@ 0x43
 8005e76:	1c5a      	adds	r2, r3, #1
 8005e78:	f894 1045 	ldrb.w	r1, [r4, #69]	@ 0x45
 8005e7c:	4422      	add	r2, r4
 8005e7e:	3302      	adds	r3, #2
 8005e80:	f882 1043 	strb.w	r1, [r2, #67]	@ 0x43
 8005e84:	e7c2      	b.n	8005e0c <_printf_common+0x58>
 8005e86:	2301      	movs	r3, #1
 8005e88:	4622      	mov	r2, r4
 8005e8a:	4641      	mov	r1, r8
 8005e8c:	4638      	mov	r0, r7
 8005e8e:	47c8      	blx	r9
 8005e90:	3001      	adds	r0, #1
 8005e92:	d0e6      	beq.n	8005e62 <_printf_common+0xae>
 8005e94:	3601      	adds	r6, #1
 8005e96:	e7d9      	b.n	8005e4c <_printf_common+0x98>

08005e98 <_printf_i>:
 8005e98:	e92d 47ff 	stmdb	sp!, {r0, r1, r2, r3, r4, r5, r6, r7, r8, r9, sl, lr}
 8005e9c:	7e0f      	ldrb	r7, [r1, #24]
 8005e9e:	4691      	mov	r9, r2
 8005ea0:	2f78      	cmp	r7, #120	@ 0x78
 8005ea2:	4680      	mov	r8, r0
 8005ea4:	460c      	mov	r4, r1
 8005ea6:	469a      	mov	sl, r3
 8005ea8:	9e0c      	ldr	r6, [sp, #48]	@ 0x30
 8005eaa:	f101 0243 	add.w	r2, r1, #67	@ 0x43
 8005eae:	d807      	bhi.n	8005ec0 <_printf_i+0x28>
 8005eb0:	2f62      	cmp	r7, #98	@ 0x62
 8005eb2:	d80a      	bhi.n	8005eca <_printf_i+0x32>
 8005eb4:	2f00      	cmp	r7, #0
 8005eb6:	f000 80d1 	beq.w	800605c <_printf_i+0x1c4>
 8005eba:	2f58      	cmp	r7, #88	@ 0x58
 8005ebc:	f000 80b8 	beq.w	8006030 <_printf_i+0x198>
 8005ec0:	f104 0642 	add.w	r6, r4, #66	@ 0x42
 8005ec4:	f884 7042 	strb.w	r7, [r4, #66]	@ 0x42
 8005ec8:	e03a      	b.n	8005f40 <_printf_i+0xa8>
 8005eca:	f1a7 0363 	sub.w	r3, r7, #99	@ 0x63
 8005ece:	2b15      	cmp	r3, #21
 8005ed0:	d8f6      	bhi.n	8005ec0 <_printf_i+0x28>
 8005ed2:	a101      	add	r1, pc, #4	@ (adr r1, 8005ed8 <_printf_i+0x40>)
 8005ed4:	f851 f023 	ldr.w	pc, [r1, r3, lsl #2]
 8005ed8:	08005f31 	.word	0x08005f31
 8005edc:	08005f45 	.word	0x08005f45
 8005ee0:	08005ec1 	.word	0x08005ec1
 8005ee4:	08005ec1 	.word	0x08005ec1
 8005ee8:	08005ec1 	.word	0x08005ec1
 8005eec:	08005ec1 	.word	0x08005ec1
 8005ef0:	08005f45 	.word	0x08005f45
 8005ef4:	08005ec1 	.word	0x08005ec1
 8005ef8:	08005ec1 	.word	0x08005ec1
 8005efc:	08005ec1 	.word	0x08005ec1
 8005f00:	08005ec1 	.word	0x08005ec1
 8005f04:	08006043 	.word	0x08006043
 8005f08:	08005f6f 	.word	0x08005f6f
 8005f0c:	08005ffd 	.word	0x08005ffd
 8005f10:	08005ec1 	.word	0x08005ec1
 8005f14:	08005ec1 	.word	0x08005ec1
 8005f18:	08006065 	.word	0x08006065
 8005f1c:	08005ec1 	.word	0x08005ec1
 8005f20:	08005f6f 	.word	0x08005f6f
 8005f24:	08005ec1 	.word	0x08005ec1
 8005f28:	08005ec1 	.word	0x08005ec1
 8005f2c:	08006005 	.word	0x08006005
 8005f30:	6833      	ldr	r3, [r6, #0]
 8005f32:	1d1a      	adds	r2, r3, #4
 8005f34:	681b      	ldr	r3, [r3, #0]
 8005f36:	6032      	str	r2, [r6, #0]
 8005f38:	f104 0642 	add.w	r6, r4, #66	@ 0x42
 8005f3c:	f884 3042 	strb.w	r3, [r4, #66]	@ 0x42
 8005f40:	2301      	movs	r3, #1
 8005f42:	e09c      	b.n	800607e <_printf_i+0x1e6>
 8005f44:	6833      	ldr	r3, [r6, #0]
 8005f46:	6820      	ldr	r0, [r4, #0]
 8005f48:	1d19      	adds	r1, r3, #4
 8005f4a:	6031      	str	r1, [r6, #0]
 8005f4c:	0606      	lsls	r6, r0, #24
 8005f4e:	d501      	bpl.n	8005f54 <_printf_i+0xbc>
 8005f50:	681d      	ldr	r5, [r3, #0]
 8005f52:	e003      	b.n	8005f5c <_printf_i+0xc4>
 8005f54:	0645      	lsls	r5, r0, #25
 8005f56:	d5fb      	bpl.n	8005f50 <_printf_i+0xb8>
 8005f58:	f9b3 5000 	ldrsh.w	r5, [r3]
 8005f5c:	2d00      	cmp	r5, #0
 8005f5e:	da03      	bge.n	8005f68 <_printf_i+0xd0>
 8005f60:	232d      	movs	r3, #45	@ 0x2d
 8005f62:	426d      	negs	r5, r5
 8005f64:	f884 3043 	strb.w	r3, [r4, #67]	@ 0x43
 8005f68:	230a      	movs	r3, #10
 8005f6a:	4858      	ldr	r0, [pc, #352]	@ (80060cc <_printf_i+0x234>)
 8005f6c:	e011      	b.n	8005f92 <_printf_i+0xfa>
 8005f6e:	6821      	ldr	r1, [r4, #0]
 8005f70:	6833      	ldr	r3, [r6, #0]
 8005f72:	0608      	lsls	r0, r1, #24
 8005f74:	f853 5b04 	ldr.w	r5, [r3], #4
 8005f78:	d402      	bmi.n	8005f80 <_printf_i+0xe8>
 8005f7a:	0649      	lsls	r1, r1, #25
 8005f7c:	bf48      	it	mi
 8005f7e:	b2ad      	uxthmi	r5, r5
 8005f80:	2f6f      	cmp	r7, #111	@ 0x6f
 8005f82:	6033      	str	r3, [r6, #0]
 8005f84:	bf14      	ite	ne
 8005f86:	230a      	movne	r3, #10
 8005f88:	2308      	moveq	r3, #8
 8005f8a:	4850      	ldr	r0, [pc, #320]	@ (80060cc <_printf_i+0x234>)
 8005f8c:	2100      	movs	r1, #0
 8005f8e:	f884 1043 	strb.w	r1, [r4, #67]	@ 0x43
 8005f92:	6866      	ldr	r6, [r4, #4]
 8005f94:	2e00      	cmp	r6, #0
 8005f96:	60a6      	str	r6, [r4, #8]
 8005f98:	db05      	blt.n	8005fa6 <_printf_i+0x10e>
 8005f9a:	6821      	ldr	r1, [r4, #0]
 8005f9c:	432e      	orrs	r6, r5
 8005f9e:	f021 0104 	bic.w	r1, r1, #4
 8005fa2:	6021      	str	r1, [r4, #0]
 8005fa4:	d04b      	beq.n	800603e <_printf_i+0x1a6>
 8005fa6:	4616      	mov	r6, r2
 8005fa8:	fbb5 f1f3 	udiv	r1, r5, r3
 8005fac:	fb03 5711 	mls	r7, r3, r1, r5
 8005fb0:	5dc7      	ldrb	r7, [r0, r7]
 8005fb2:	f806 7d01 	strb.w	r7, [r6, #-1]!
 8005fb6:	462f      	mov	r7, r5
 8005fb8:	42bb      	cmp	r3, r7
 8005fba:	460d      	mov	r5, r1
 8005fbc:	d9f4      	bls.n	8005fa8 <_printf_i+0x110>
 8005fbe:	2b08      	cmp	r3, #8
 8005fc0:	d10b      	bne.n	8005fda <_printf_i+0x142>
 8005fc2:	6823      	ldr	r3, [r4, #0]
 8005fc4:	07df      	lsls	r7, r3, #31
 8005fc6:	d508      	bpl.n	8005fda <_printf_i+0x142>
 8005fc8:	6923      	ldr	r3, [r4, #16]
 8005fca:	6861      	ldr	r1, [r4, #4]
 8005fcc:	4299      	cmp	r1, r3
 8005fce:	bfde      	ittt	le
 8005fd0:	2330      	movle	r3, #48	@ 0x30
 8005fd2:	f806 3c01 	strble.w	r3, [r6, #-1]
 8005fd6:	f106 36ff 	addle.w	r6, r6, #4294967295
 8005fda:	1b92      	subs	r2, r2, r6
 8005fdc:	6122      	str	r2, [r4, #16]
 8005fde:	464b      	mov	r3, r9
 8005fe0:	4621      	mov	r1, r4
 8005fe2:	4640      	mov	r0, r8
 8005fe4:	f8cd a000 	str.w	sl, [sp]
 8005fe8:	aa03      	add	r2, sp, #12
 8005fea:	f7ff fee3 	bl	8005db4 <_printf_common>
 8005fee:	3001      	adds	r0, #1
 8005ff0:	d14a      	bne.n	8006088 <_printf_i+0x1f0>
 8005ff2:	f04f 30ff 	mov.w	r0, #4294967295
 8005ff6:	b004      	add	sp, #16
 8005ff8:	e8bd 87f0 	ldmia.w	sp!, {r4, r5, r6, r7, r8, r9, sl, pc}
 8005ffc:	6823      	ldr	r3, [r4, #0]
 8005ffe:	f043 0320 	orr.w	r3, r3, #32
 8006002:	6023      	str	r3, [r4, #0]
 8006004:	2778      	movs	r7, #120	@ 0x78
 8006006:	4832      	ldr	r0, [pc, #200]	@ (80060d0 <_printf_i+0x238>)
 8006008:	f884 7045 	strb.w	r7, [r4, #69]	@ 0x45
 800600c:	6823      	ldr	r3, [r4, #0]
 800600e:	6831      	ldr	r1, [r6, #0]
 8006010:	061f      	lsls	r7, r3, #24
 8006012:	f851 5b04 	ldr.w	r5, [r1], #4
 8006016:	d402      	bmi.n	800601e <_printf_i+0x186>
 8006018:	065f      	lsls	r7, r3, #25
 800601a:	bf48      	it	mi
 800601c:	b2ad      	uxthmi	r5, r5
 800601e:	6031      	str	r1, [r6, #0]
 8006020:	07d9      	lsls	r1, r3, #31
 8006022:	bf44      	itt	mi
 8006024:	f043 0320 	orrmi.w	r3, r3, #32
 8006028:	6023      	strmi	r3, [r4, #0]
 800602a:	b11d      	cbz	r5, 8006034 <_printf_i+0x19c>
 800602c:	2310      	movs	r3, #16
 800602e:	e7ad      	b.n	8005f8c <_printf_i+0xf4>
 8006030:	4826      	ldr	r0, [pc, #152]	@ (80060cc <_printf_i+0x234>)
 8006032:	e7e9      	b.n	8006008 <_printf_i+0x170>
 8006034:	6823      	ldr	r3, [r4, #0]
 8006036:	f023 0320 	bic.w	r3, r3, #32
 800603a:	6023      	str	r3, [r4, #0]
 800603c:	e7f6      	b.n	800602c <_printf_i+0x194>
 800603e:	4616      	mov	r6, r2
 8006040:	e7bd      	b.n	8005fbe <_printf_i+0x126>
 8006042:	6833      	ldr	r3, [r6, #0]
 8006044:	6825      	ldr	r5, [r4, #0]
 8006046:	1d18      	adds	r0, r3, #4
 8006048:	6961      	ldr	r1, [r4, #20]
 800604a:	6030      	str	r0, [r6, #0]
 800604c:	062e      	lsls	r6, r5, #24
 800604e:	681b      	ldr	r3, [r3, #0]
 8006050:	d501      	bpl.n	8006056 <_printf_i+0x1be>
 8006052:	6019      	str	r1, [r3, #0]
 8006054:	e002      	b.n	800605c <_printf_i+0x1c4>
 8006056:	0668      	lsls	r0, r5, #25
 8006058:	d5fb      	bpl.n	8006052 <_printf_i+0x1ba>
 800605a:	8019      	strh	r1, [r3, #0]
 800605c:	2300      	movs	r3, #0
 800605e:	4616      	mov	r6, r2
 8006060:	6123      	str	r3, [r4, #16]
 8006062:	e7bc      	b.n	8005fde <_printf_i+0x146>
 8006064:	6833      	ldr	r3, [r6, #0]
 8006066:	2100      	movs	r1, #0
 8006068:	1d1a      	adds	r2, r3, #4
 800606a:	6032      	str	r2, [r6, #0]
 800606c:	681e      	ldr	r6, [r3, #0]
 800606e:	6862      	ldr	r2, [r4, #4]
 8006070:	4630      	mov	r0, r6
 8006072:	f000 f985 	bl	8006380 <memchr>
 8006076:	b108      	cbz	r0, 800607c <_printf_i+0x1e4>
 8006078:	1b80      	subs	r0, r0, r6
 800607a:	6060      	str	r0, [r4, #4]
 800607c:	6863      	ldr	r3, [r4, #4]
 800607e:	6123      	str	r3, [r4, #16]
 8006080:	2300      	movs	r3, #0
 8006082:	f884 3043 	strb.w	r3, [r4, #67]	@ 0x43
 8006086:	e7aa      	b.n	8005fde <_printf_i+0x146>
 8006088:	4632      	mov	r2, r6
 800608a:	4649      	mov	r1, r9
 800608c:	4640      	mov	r0, r8
 800608e:	6923      	ldr	r3, [r4, #16]
 8006090:	47d0      	blx	sl
 8006092:	3001      	adds	r0, #1
 8006094:	d0ad      	beq.n	8005ff2 <_printf_i+0x15a>
 8006096:	6823      	ldr	r3, [r4, #0]
 8006098:	079b      	lsls	r3, r3, #30
 800609a:	d413      	bmi.n	80060c4 <_printf_i+0x22c>
 800609c:	68e0      	ldr	r0, [r4, #12]
 800609e:	9b03      	ldr	r3, [sp, #12]
 80060a0:	4298      	cmp	r0, r3
 80060a2:	bfb8      	it	lt
 80060a4:	4618      	movlt	r0, r3
 80060a6:	e7a6      	b.n	8005ff6 <_printf_i+0x15e>
 80060a8:	2301      	movs	r3, #1
 80060aa:	4632      	mov	r2, r6
 80060ac:	4649      	mov	r1, r9
 80060ae:	4640      	mov	r0, r8
 80060b0:	47d0      	blx	sl
 80060b2:	3001      	adds	r0, #1
 80060b4:	d09d      	beq.n	8005ff2 <_printf_i+0x15a>
 80060b6:	3501      	adds	r5, #1
 80060b8:	68e3      	ldr	r3, [r4, #12]
 80060ba:	9903      	ldr	r1, [sp, #12]
 80060bc:	1a5b      	subs	r3, r3, r1
 80060be:	42ab      	cmp	r3, r5
 80060c0:	dcf2      	bgt.n	80060a8 <_printf_i+0x210>
 80060c2:	e7eb      	b.n	800609c <_printf_i+0x204>
 80060c4:	2500      	movs	r5, #0
 80060c6:	f104 0619 	add.w	r6, r4, #25
 80060ca:	e7f5      	b.n	80060b8 <_printf_i+0x220>
 80060cc:	080066ff 	.word	0x080066ff
 80060d0:	08006710 	.word	0x08006710

080060d4 <__sflush_r>:
 80060d4:	f9b1 200c 	ldrsh.w	r2, [r1, #12]
 80060d8:	b5f8      	push	{r3, r4, r5, r6, r7, lr}
 80060da:	0716      	lsls	r6, r2, #28
 80060dc:	4605      	mov	r5, r0
 80060de:	460c      	mov	r4, r1
 80060e0:	d454      	bmi.n	800618c <__sflush_r+0xb8>
 80060e2:	684b      	ldr	r3, [r1, #4]
 80060e4:	2b00      	cmp	r3, #0
 80060e6:	dc02      	bgt.n	80060ee <__sflush_r+0x1a>
 80060e8:	6c0b      	ldr	r3, [r1, #64]	@ 0x40
 80060ea:	2b00      	cmp	r3, #0
 80060ec:	dd48      	ble.n	8006180 <__sflush_r+0xac>
 80060ee:	6ae6      	ldr	r6, [r4, #44]	@ 0x2c
 80060f0:	2e00      	cmp	r6, #0
 80060f2:	d045      	beq.n	8006180 <__sflush_r+0xac>
 80060f4:	2300      	movs	r3, #0
 80060f6:	f412 5280 	ands.w	r2, r2, #4096	@ 0x1000
 80060fa:	682f      	ldr	r7, [r5, #0]
 80060fc:	6a21      	ldr	r1, [r4, #32]
 80060fe:	602b      	str	r3, [r5, #0]
 8006100:	d030      	beq.n	8006164 <__sflush_r+0x90>
 8006102:	6d62      	ldr	r2, [r4, #84]	@ 0x54
 8006104:	89a3      	ldrh	r3, [r4, #12]
 8006106:	0759      	lsls	r1, r3, #29
 8006108:	d505      	bpl.n	8006116 <__sflush_r+0x42>
 800610a:	6863      	ldr	r3, [r4, #4]
 800610c:	1ad2      	subs	r2, r2, r3
 800610e:	6b63      	ldr	r3, [r4, #52]	@ 0x34
 8006110:	b10b      	cbz	r3, 8006116 <__sflush_r+0x42>
 8006112:	6c23      	ldr	r3, [r4, #64]	@ 0x40
 8006114:	1ad2      	subs	r2, r2, r3
 8006116:	2300      	movs	r3, #0
 8006118:	4628      	mov	r0, r5
 800611a:	6ae6      	ldr	r6, [r4, #44]	@ 0x2c
 800611c:	6a21      	ldr	r1, [r4, #32]
 800611e:	47b0      	blx	r6
 8006120:	1c43      	adds	r3, r0, #1
 8006122:	89a3      	ldrh	r3, [r4, #12]
 8006124:	d106      	bne.n	8006134 <__sflush_r+0x60>
 8006126:	6829      	ldr	r1, [r5, #0]
 8006128:	291d      	cmp	r1, #29
 800612a:	d82b      	bhi.n	8006184 <__sflush_r+0xb0>
 800612c:	4a28      	ldr	r2, [pc, #160]	@ (80061d0 <__sflush_r+0xfc>)
 800612e:	40ca      	lsrs	r2, r1
 8006130:	07d6      	lsls	r6, r2, #31
 8006132:	d527      	bpl.n	8006184 <__sflush_r+0xb0>
 8006134:	2200      	movs	r2, #0
 8006136:	6062      	str	r2, [r4, #4]
 8006138:	6922      	ldr	r2, [r4, #16]
 800613a:	04d9      	lsls	r1, r3, #19
 800613c:	6022      	str	r2, [r4, #0]
 800613e:	d504      	bpl.n	800614a <__sflush_r+0x76>
 8006140:	1c42      	adds	r2, r0, #1
 8006142:	d101      	bne.n	8006148 <__sflush_r+0x74>
 8006144:	682b      	ldr	r3, [r5, #0]
 8006146:	b903      	cbnz	r3, 800614a <__sflush_r+0x76>
 8006148:	6560      	str	r0, [r4, #84]	@ 0x54
 800614a:	6b61      	ldr	r1, [r4, #52]	@ 0x34
 800614c:	602f      	str	r7, [r5, #0]
 800614e:	b1b9      	cbz	r1, 8006180 <__sflush_r+0xac>
 8006150:	f104 0344 	add.w	r3, r4, #68	@ 0x44
 8006154:	4299      	cmp	r1, r3
 8006156:	d002      	beq.n	800615e <__sflush_r+0x8a>
 8006158:	4628      	mov	r0, r5
 800615a:	f7ff fa9d 	bl	8005698 <_free_r>
 800615e:	2300      	movs	r3, #0
 8006160:	6363      	str	r3, [r4, #52]	@ 0x34
 8006162:	e00d      	b.n	8006180 <__sflush_r+0xac>
 8006164:	2301      	movs	r3, #1
 8006166:	4628      	mov	r0, r5
 8006168:	47b0      	blx	r6
 800616a:	4602      	mov	r2, r0
 800616c:	1c50      	adds	r0, r2, #1
 800616e:	d1c9      	bne.n	8006104 <__sflush_r+0x30>
 8006170:	682b      	ldr	r3, [r5, #0]
 8006172:	2b00      	cmp	r3, #0
 8006174:	d0c6      	beq.n	8006104 <__sflush_r+0x30>
 8006176:	2b1d      	cmp	r3, #29
 8006178:	d001      	beq.n	800617e <__sflush_r+0xaa>
 800617a:	2b16      	cmp	r3, #22
 800617c:	d11d      	bne.n	80061ba <__sflush_r+0xe6>
 800617e:	602f      	str	r7, [r5, #0]
 8006180:	2000      	movs	r0, #0
 8006182:	e021      	b.n	80061c8 <__sflush_r+0xf4>
 8006184:	f043 0340 	orr.w	r3, r3, #64	@ 0x40
 8006188:	b21b      	sxth	r3, r3
 800618a:	e01a      	b.n	80061c2 <__sflush_r+0xee>
 800618c:	690f      	ldr	r7, [r1, #16]
 800618e:	2f00      	cmp	r7, #0
 8006190:	d0f6      	beq.n	8006180 <__sflush_r+0xac>
 8006192:	0793      	lsls	r3, r2, #30
 8006194:	bf18      	it	ne
 8006196:	2300      	movne	r3, #0
 8006198:	680e      	ldr	r6, [r1, #0]
 800619a:	bf08      	it	eq
 800619c:	694b      	ldreq	r3, [r1, #20]
 800619e:	1bf6      	subs	r6, r6, r7
 80061a0:	600f      	str	r7, [r1, #0]
 80061a2:	608b      	str	r3, [r1, #8]
 80061a4:	2e00      	cmp	r6, #0
 80061a6:	ddeb      	ble.n	8006180 <__sflush_r+0xac>
 80061a8:	4633      	mov	r3, r6
 80061aa:	463a      	mov	r2, r7
 80061ac:	4628      	mov	r0, r5
 80061ae:	6a21      	ldr	r1, [r4, #32]
 80061b0:	f8d4 c028 	ldr.w	ip, [r4, #40]	@ 0x28
 80061b4:	47e0      	blx	ip
 80061b6:	2800      	cmp	r0, #0
 80061b8:	dc07      	bgt.n	80061ca <__sflush_r+0xf6>
 80061ba:	f9b4 300c 	ldrsh.w	r3, [r4, #12]
 80061be:	f043 0340 	orr.w	r3, r3, #64	@ 0x40
 80061c2:	f04f 30ff 	mov.w	r0, #4294967295
 80061c6:	81a3      	strh	r3, [r4, #12]
 80061c8:	bdf8      	pop	{r3, r4, r5, r6, r7, pc}
 80061ca:	4407      	add	r7, r0
 80061cc:	1a36      	subs	r6, r6, r0
 80061ce:	e7e9      	b.n	80061a4 <__sflush_r+0xd0>
 80061d0:	20400001 	.word	0x20400001

080061d4 <_fflush_r>:
 80061d4:	b538      	push	{r3, r4, r5, lr}
 80061d6:	690b      	ldr	r3, [r1, #16]
 80061d8:	4605      	mov	r5, r0
 80061da:	460c      	mov	r4, r1
 80061dc:	b913      	cbnz	r3, 80061e4 <_fflush_r+0x10>
 80061de:	2500      	movs	r5, #0
 80061e0:	4628      	mov	r0, r5
 80061e2:	bd38      	pop	{r3, r4, r5, pc}
 80061e4:	b118      	cbz	r0, 80061ee <_fflush_r+0x1a>
 80061e6:	6a03      	ldr	r3, [r0, #32]
 80061e8:	b90b      	cbnz	r3, 80061ee <_fflush_r+0x1a>
 80061ea:	f7ff f825 	bl	8005238 <__sinit>
 80061ee:	f9b4 300c 	ldrsh.w	r3, [r4, #12]
 80061f2:	2b00      	cmp	r3, #0
 80061f4:	d0f3      	beq.n	80061de <_fflush_r+0xa>
 80061f6:	6e62      	ldr	r2, [r4, #100]	@ 0x64
 80061f8:	07d0      	lsls	r0, r2, #31
 80061fa:	d404      	bmi.n	8006206 <_fflush_r+0x32>
 80061fc:	0599      	lsls	r1, r3, #22
 80061fe:	d402      	bmi.n	8006206 <_fflush_r+0x32>
 8006200:	6da0      	ldr	r0, [r4, #88]	@ 0x58
 8006202:	f7ff fa46 	bl	8005692 <__retarget_lock_acquire_recursive>
 8006206:	4628      	mov	r0, r5
 8006208:	4621      	mov	r1, r4
 800620a:	f7ff ff63 	bl	80060d4 <__sflush_r>
 800620e:	6e63      	ldr	r3, [r4, #100]	@ 0x64
 8006210:	4605      	mov	r5, r0
 8006212:	07da      	lsls	r2, r3, #31
 8006214:	d4e4      	bmi.n	80061e0 <_fflush_r+0xc>
 8006216:	89a3      	ldrh	r3, [r4, #12]
 8006218:	059b      	lsls	r3, r3, #22
 800621a:	d4e1      	bmi.n	80061e0 <_fflush_r+0xc>
 800621c:	6da0      	ldr	r0, [r4, #88]	@ 0x58
 800621e:	f7ff fa39 	bl	8005694 <__retarget_lock_release_recursive>
 8006222:	e7dd      	b.n	80061e0 <_fflush_r+0xc>

08006224 <__swhatbuf_r>:
 8006224:	b570      	push	{r4, r5, r6, lr}
 8006226:	460c      	mov	r4, r1
 8006228:	f9b1 100e 	ldrsh.w	r1, [r1, #14]
 800622c:	4615      	mov	r5, r2
 800622e:	2900      	cmp	r1, #0
 8006230:	461e      	mov	r6, r3
 8006232:	b096      	sub	sp, #88	@ 0x58
 8006234:	da0c      	bge.n	8006250 <__swhatbuf_r+0x2c>
 8006236:	89a3      	ldrh	r3, [r4, #12]
 8006238:	2100      	movs	r1, #0
 800623a:	f013 0f80 	tst.w	r3, #128	@ 0x80
 800623e:	bf14      	ite	ne
 8006240:	2340      	movne	r3, #64	@ 0x40
 8006242:	f44f 6380 	moveq.w	r3, #1024	@ 0x400
 8006246:	2000      	movs	r0, #0
 8006248:	6031      	str	r1, [r6, #0]
 800624a:	602b      	str	r3, [r5, #0]
 800624c:	b016      	add	sp, #88	@ 0x58
 800624e:	bd70      	pop	{r4, r5, r6, pc}
 8006250:	466a      	mov	r2, sp
 8006252:	f000 f863 	bl	800631c <_fstat_r>
 8006256:	2800      	cmp	r0, #0
 8006258:	dbed      	blt.n	8006236 <__swhatbuf_r+0x12>
 800625a:	9901      	ldr	r1, [sp, #4]
 800625c:	f401 4170 	and.w	r1, r1, #61440	@ 0xf000
 8006260:	f5a1 5300 	sub.w	r3, r1, #8192	@ 0x2000
 8006264:	4259      	negs	r1, r3
 8006266:	4159      	adcs	r1, r3
 8006268:	f44f 6380 	mov.w	r3, #1024	@ 0x400
 800626c:	e7eb      	b.n	8006246 <__swhatbuf_r+0x22>

0800626e <__smakebuf_r>:
 800626e:	898b      	ldrh	r3, [r1, #12]
 8006270:	b5f7      	push	{r0, r1, r2, r4, r5, r6, r7, lr}
 8006272:	079d      	lsls	r5, r3, #30
 8006274:	4606      	mov	r6, r0
 8006276:	460c      	mov	r4, r1
 8006278:	d507      	bpl.n	800628a <__smakebuf_r+0x1c>
 800627a:	f104 0347 	add.w	r3, r4, #71	@ 0x47
 800627e:	6023      	str	r3, [r4, #0]
 8006280:	6123      	str	r3, [r4, #16]
 8006282:	2301      	movs	r3, #1
 8006284:	6163      	str	r3, [r4, #20]
 8006286:	b003      	add	sp, #12
 8006288:	bdf0      	pop	{r4, r5, r6, r7, pc}
 800628a:	466a      	mov	r2, sp
 800628c:	ab01      	add	r3, sp, #4
 800628e:	f7ff ffc9 	bl	8006224 <__swhatbuf_r>
 8006292:	9f00      	ldr	r7, [sp, #0]
 8006294:	4605      	mov	r5, r0
 8006296:	4639      	mov	r1, r7
 8006298:	4630      	mov	r0, r6
 800629a:	f7ff fa67 	bl	800576c <_malloc_r>
 800629e:	b948      	cbnz	r0, 80062b4 <__smakebuf_r+0x46>
 80062a0:	f9b4 300c 	ldrsh.w	r3, [r4, #12]
 80062a4:	059a      	lsls	r2, r3, #22
 80062a6:	d4ee      	bmi.n	8006286 <__smakebuf_r+0x18>
 80062a8:	f023 0303 	bic.w	r3, r3, #3
 80062ac:	f043 0302 	orr.w	r3, r3, #2
 80062b0:	81a3      	strh	r3, [r4, #12]
 80062b2:	e7e2      	b.n	800627a <__smakebuf_r+0xc>
 80062b4:	89a3      	ldrh	r3, [r4, #12]
 80062b6:	e9c4 0704 	strd	r0, r7, [r4, #16]
 80062ba:	f043 0380 	orr.w	r3, r3, #128	@ 0x80
 80062be:	81a3      	strh	r3, [r4, #12]
 80062c0:	9b01      	ldr	r3, [sp, #4]
 80062c2:	6020      	str	r0, [r4, #0]
 80062c4:	b15b      	cbz	r3, 80062de <__smakebuf_r+0x70>
 80062c6:	4630      	mov	r0, r6
 80062c8:	f9b4 100e 	ldrsh.w	r1, [r4, #14]
 80062cc:	f000 f838 	bl	8006340 <_isatty_r>
 80062d0:	b128      	cbz	r0, 80062de <__smakebuf_r+0x70>
 80062d2:	89a3      	ldrh	r3, [r4, #12]
 80062d4:	f023 0303 	bic.w	r3, r3, #3
 80062d8:	f043 0301 	orr.w	r3, r3, #1
 80062dc:	81a3      	strh	r3, [r4, #12]
 80062de:	89a3      	ldrh	r3, [r4, #12]
 80062e0:	431d      	orrs	r5, r3
 80062e2:	81a5      	strh	r5, [r4, #12]
 80062e4:	e7cf      	b.n	8006286 <__smakebuf_r+0x18>

080062e6 <memmove>:
 80062e6:	4288      	cmp	r0, r1
 80062e8:	b510      	push	{r4, lr}
 80062ea:	eb01 0402 	add.w	r4, r1, r2
 80062ee:	d902      	bls.n	80062f6 <memmove+0x10>
 80062f0:	4284      	cmp	r4, r0
 80062f2:	4623      	mov	r3, r4
 80062f4:	d807      	bhi.n	8006306 <memmove+0x20>
 80062f6:	1e43      	subs	r3, r0, #1
 80062f8:	42a1      	cmp	r1, r4
 80062fa:	d008      	beq.n	800630e <memmove+0x28>
 80062fc:	f811 2b01 	ldrb.w	r2, [r1], #1
 8006300:	f803 2f01 	strb.w	r2, [r3, #1]!
 8006304:	e7f8      	b.n	80062f8 <memmove+0x12>
 8006306:	4601      	mov	r1, r0
 8006308:	4402      	add	r2, r0
 800630a:	428a      	cmp	r2, r1
 800630c:	d100      	bne.n	8006310 <memmove+0x2a>
 800630e:	bd10      	pop	{r4, pc}
 8006310:	f813 4d01 	ldrb.w	r4, [r3, #-1]!
 8006314:	f802 4d01 	strb.w	r4, [r2, #-1]!
 8006318:	e7f7      	b.n	800630a <memmove+0x24>
	...

0800631c <_fstat_r>:
 800631c:	b538      	push	{r3, r4, r5, lr}
 800631e:	2300      	movs	r3, #0
 8006320:	4d06      	ldr	r5, [pc, #24]	@ (800633c <_fstat_r+0x20>)
 8006322:	4604      	mov	r4, r0
 8006324:	4608      	mov	r0, r1
 8006326:	4611      	mov	r1, r2
 8006328:	602b      	str	r3, [r5, #0]
 800632a:	f7fb fc28 	bl	8001b7e <_fstat>
 800632e:	1c43      	adds	r3, r0, #1
 8006330:	d102      	bne.n	8006338 <_fstat_r+0x1c>
 8006332:	682b      	ldr	r3, [r5, #0]
 8006334:	b103      	cbz	r3, 8006338 <_fstat_r+0x1c>
 8006336:	6023      	str	r3, [r4, #0]
 8006338:	bd38      	pop	{r3, r4, r5, pc}
 800633a:	bf00      	nop
 800633c:	200025a0 	.word	0x200025a0

08006340 <_isatty_r>:
 8006340:	b538      	push	{r3, r4, r5, lr}
 8006342:	2300      	movs	r3, #0
 8006344:	4d05      	ldr	r5, [pc, #20]	@ (800635c <_isatty_r+0x1c>)
 8006346:	4604      	mov	r4, r0
 8006348:	4608      	mov	r0, r1
 800634a:	602b      	str	r3, [r5, #0]
 800634c:	f7fb fc1c 	bl	8001b88 <_isatty>
 8006350:	1c43      	adds	r3, r0, #1
 8006352:	d102      	bne.n	800635a <_isatty_r+0x1a>
 8006354:	682b      	ldr	r3, [r5, #0]
 8006356:	b103      	cbz	r3, 800635a <_isatty_r+0x1a>
 8006358:	6023      	str	r3, [r4, #0]
 800635a:	bd38      	pop	{r3, r4, r5, pc}
 800635c:	200025a0 	.word	0x200025a0

08006360 <_sbrk_r>:
 8006360:	b538      	push	{r3, r4, r5, lr}
 8006362:	2300      	movs	r3, #0
 8006364:	4d05      	ldr	r5, [pc, #20]	@ (800637c <_sbrk_r+0x1c>)
 8006366:	4604      	mov	r4, r0
 8006368:	4608      	mov	r0, r1
 800636a:	602b      	str	r3, [r5, #0]
 800636c:	f7fb fc10 	bl	8001b90 <_sbrk>
 8006370:	1c43      	adds	r3, r0, #1
 8006372:	d102      	bne.n	800637a <_sbrk_r+0x1a>
 8006374:	682b      	ldr	r3, [r5, #0]
 8006376:	b103      	cbz	r3, 800637a <_sbrk_r+0x1a>
 8006378:	6023      	str	r3, [r4, #0]
 800637a:	bd38      	pop	{r3, r4, r5, pc}
 800637c:	200025a0 	.word	0x200025a0

08006380 <memchr>:
 8006380:	4603      	mov	r3, r0
 8006382:	b510      	push	{r4, lr}
 8006384:	b2c9      	uxtb	r1, r1
 8006386:	4402      	add	r2, r0
 8006388:	4293      	cmp	r3, r2
 800638a:	4618      	mov	r0, r3
 800638c:	d101      	bne.n	8006392 <memchr+0x12>
 800638e:	2000      	movs	r0, #0
 8006390:	e003      	b.n	800639a <memchr+0x1a>
 8006392:	7804      	ldrb	r4, [r0, #0]
 8006394:	3301      	adds	r3, #1
 8006396:	428c      	cmp	r4, r1
 8006398:	d1f6      	bne.n	8006388 <memchr+0x8>
 800639a:	bd10      	pop	{r4, pc}

0800639c <memcpy>:
 800639c:	440a      	add	r2, r1
 800639e:	4291      	cmp	r1, r2
 80063a0:	f100 33ff 	add.w	r3, r0, #4294967295
 80063a4:	d100      	bne.n	80063a8 <memcpy+0xc>
 80063a6:	4770      	bx	lr
 80063a8:	b510      	push	{r4, lr}
 80063aa:	f811 4b01 	ldrb.w	r4, [r1], #1
 80063ae:	4291      	cmp	r1, r2
 80063b0:	f803 4f01 	strb.w	r4, [r3, #1]!
 80063b4:	d1f9      	bne.n	80063aa <memcpy+0xe>
 80063b6:	bd10      	pop	{r4, pc}

080063b8 <_realloc_r>:
 80063b8:	e92d 41f0 	stmdb	sp!, {r4, r5, r6, r7, r8, lr}
 80063bc:	4607      	mov	r7, r0
 80063be:	4614      	mov	r4, r2
 80063c0:	460d      	mov	r5, r1
 80063c2:	b921      	cbnz	r1, 80063ce <_realloc_r+0x16>
 80063c4:	4611      	mov	r1, r2
 80063c6:	e8bd 41f0 	ldmia.w	sp!, {r4, r5, r6, r7, r8, lr}
 80063ca:	f7ff b9cf 	b.w	800576c <_malloc_r>
 80063ce:	b92a      	cbnz	r2, 80063dc <_realloc_r+0x24>
 80063d0:	f7ff f962 	bl	8005698 <_free_r>
 80063d4:	4625      	mov	r5, r4
 80063d6:	4628      	mov	r0, r5
 80063d8:	e8bd 81f0 	ldmia.w	sp!, {r4, r5, r6, r7, r8, pc}
 80063dc:	f000 f81a 	bl	8006414 <_malloc_usable_size_r>
 80063e0:	4284      	cmp	r4, r0
 80063e2:	4606      	mov	r6, r0
 80063e4:	d802      	bhi.n	80063ec <_realloc_r+0x34>
 80063e6:	ebb4 0f50 	cmp.w	r4, r0, lsr #1
 80063ea:	d8f4      	bhi.n	80063d6 <_realloc_r+0x1e>
 80063ec:	4621      	mov	r1, r4
 80063ee:	4638      	mov	r0, r7
 80063f0:	f7ff f9bc 	bl	800576c <_malloc_r>
 80063f4:	4680      	mov	r8, r0
 80063f6:	b908      	cbnz	r0, 80063fc <_realloc_r+0x44>
 80063f8:	4645      	mov	r5, r8
 80063fa:	e7ec      	b.n	80063d6 <_realloc_r+0x1e>
 80063fc:	42b4      	cmp	r4, r6
 80063fe:	4622      	mov	r2, r4
 8006400:	4629      	mov	r1, r5
 8006402:	bf28      	it	cs
 8006404:	4632      	movcs	r2, r6
 8006406:	f7ff ffc9 	bl	800639c <memcpy>
 800640a:	4629      	mov	r1, r5
 800640c:	4638      	mov	r0, r7
 800640e:	f7ff f943 	bl	8005698 <_free_r>
 8006412:	e7f1      	b.n	80063f8 <_realloc_r+0x40>

08006414 <_malloc_usable_size_r>:
 8006414:	f851 3c04 	ldr.w	r3, [r1, #-4]
 8006418:	1f18      	subs	r0, r3, #4
 800641a:	2b00      	cmp	r3, #0
 800641c:	bfbc      	itt	lt
 800641e:	580b      	ldrlt	r3, [r1, r0]
 8006420:	18c0      	addlt	r0, r0, r3
 8006422:	4770      	bx	lr

08006424 <sqrt>:
 8006424:	b5f8      	push	{r3, r4, r5, r6, r7, lr}
 8006426:	4606      	mov	r6, r0
 8006428:	460f      	mov	r7, r1
 800642a:	f000 f81f 	bl	800646c <__ieee754_sqrt>
 800642e:	4632      	mov	r2, r6
 8006430:	4604      	mov	r4, r0
 8006432:	460d      	mov	r5, r1
 8006434:	463b      	mov	r3, r7
 8006436:	4630      	mov	r0, r6
 8006438:	4639      	mov	r1, r7
 800643a:	f7fa fae7 	bl	8000a0c <__aeabi_dcmpun>
 800643e:	b990      	cbnz	r0, 8006466 <sqrt+0x42>
 8006440:	2200      	movs	r2, #0
 8006442:	2300      	movs	r3, #0
 8006444:	4630      	mov	r0, r6
 8006446:	4639      	mov	r1, r7
 8006448:	f7fa fab8 	bl	80009bc <__aeabi_dcmplt>
 800644c:	b158      	cbz	r0, 8006466 <sqrt+0x42>
 800644e:	f7ff f8f5 	bl	800563c <__errno>
 8006452:	2321      	movs	r3, #33	@ 0x21
 8006454:	2200      	movs	r2, #0
 8006456:	6003      	str	r3, [r0, #0]
 8006458:	2300      	movs	r3, #0
 800645a:	4610      	mov	r0, r2
 800645c:	4619      	mov	r1, r3
 800645e:	f7fa f965 	bl	800072c <__aeabi_ddiv>
 8006462:	4604      	mov	r4, r0
 8006464:	460d      	mov	r5, r1
 8006466:	4620      	mov	r0, r4
 8006468:	4629      	mov	r1, r5
 800646a:	bdf8      	pop	{r3, r4, r5, r6, r7, pc}

0800646c <__ieee754_sqrt>:
 800646c:	4a65      	ldr	r2, [pc, #404]	@ (8006604 <__ieee754_sqrt+0x198>)
 800646e:	e92d 4ff8 	stmdb	sp!, {r3, r4, r5, r6, r7, r8, r9, sl, fp, lr}
 8006472:	438a      	bics	r2, r1
 8006474:	4606      	mov	r6, r0
 8006476:	460f      	mov	r7, r1
 8006478:	460b      	mov	r3, r1
 800647a:	4604      	mov	r4, r0
 800647c:	d10e      	bne.n	800649c <__ieee754_sqrt+0x30>
 800647e:	4602      	mov	r2, r0
 8006480:	f7fa f82a 	bl	80004d8 <__aeabi_dmul>
 8006484:	4602      	mov	r2, r0
 8006486:	460b      	mov	r3, r1
 8006488:	4630      	mov	r0, r6
 800648a:	4639      	mov	r1, r7
 800648c:	f7f9 fe6e 	bl	800016c <__adddf3>
 8006490:	4606      	mov	r6, r0
 8006492:	460f      	mov	r7, r1
 8006494:	4630      	mov	r0, r6
 8006496:	4639      	mov	r1, r7
 8006498:	e8bd 8ff8 	ldmia.w	sp!, {r3, r4, r5, r6, r7, r8, r9, sl, fp, pc}
 800649c:	2900      	cmp	r1, #0
 800649e:	dc0c      	bgt.n	80064ba <__ieee754_sqrt+0x4e>
 80064a0:	f021 4200 	bic.w	r2, r1, #2147483648	@ 0x80000000
 80064a4:	4302      	orrs	r2, r0
 80064a6:	d0f5      	beq.n	8006494 <__ieee754_sqrt+0x28>
 80064a8:	b189      	cbz	r1, 80064ce <__ieee754_sqrt+0x62>
 80064aa:	4602      	mov	r2, r0
 80064ac:	f7f9 fe5c 	bl	8000168 <__aeabi_dsub>
 80064b0:	4602      	mov	r2, r0
 80064b2:	460b      	mov	r3, r1
 80064b4:	f7fa f93a 	bl	800072c <__aeabi_ddiv>
 80064b8:	e7ea      	b.n	8006490 <__ieee754_sqrt+0x24>
 80064ba:	150a      	asrs	r2, r1, #20
 80064bc:	d115      	bne.n	80064ea <__ieee754_sqrt+0x7e>
 80064be:	2100      	movs	r1, #0
 80064c0:	e009      	b.n	80064d6 <__ieee754_sqrt+0x6a>
 80064c2:	0ae3      	lsrs	r3, r4, #11
 80064c4:	3a15      	subs	r2, #21
 80064c6:	0564      	lsls	r4, r4, #21
 80064c8:	2b00      	cmp	r3, #0
 80064ca:	d0fa      	beq.n	80064c2 <__ieee754_sqrt+0x56>
 80064cc:	e7f7      	b.n	80064be <__ieee754_sqrt+0x52>
 80064ce:	460a      	mov	r2, r1
 80064d0:	e7fa      	b.n	80064c8 <__ieee754_sqrt+0x5c>
 80064d2:	005b      	lsls	r3, r3, #1
 80064d4:	3101      	adds	r1, #1
 80064d6:	02d8      	lsls	r0, r3, #11
 80064d8:	d5fb      	bpl.n	80064d2 <__ieee754_sqrt+0x66>
 80064da:	1e48      	subs	r0, r1, #1
 80064dc:	1a12      	subs	r2, r2, r0
 80064de:	f1c1 0020 	rsb	r0, r1, #32
 80064e2:	fa24 f000 	lsr.w	r0, r4, r0
 80064e6:	4303      	orrs	r3, r0
 80064e8:	408c      	lsls	r4, r1
 80064ea:	2700      	movs	r7, #0
 80064ec:	f2a2 38ff 	subw	r8, r2, #1023	@ 0x3ff
 80064f0:	2116      	movs	r1, #22
 80064f2:	07d2      	lsls	r2, r2, #31
 80064f4:	f44f 1000 	mov.w	r0, #2097152	@ 0x200000
 80064f8:	463a      	mov	r2, r7
 80064fa:	f3c3 0313 	ubfx	r3, r3, #0, #20
 80064fe:	f443 1380 	orr.w	r3, r3, #1048576	@ 0x100000
 8006502:	bf5c      	itt	pl
 8006504:	005b      	lslpl	r3, r3, #1
 8006506:	eb03 73d4 	addpl.w	r3, r3, r4, lsr #31
 800650a:	ea4f 0343 	mov.w	r3, r3, lsl #1
 800650e:	bf58      	it	pl
 8006510:	0064      	lslpl	r4, r4, #1
 8006512:	eb03 73d4 	add.w	r3, r3, r4, lsr #31
 8006516:	ea4f 0868 	mov.w	r8, r8, asr #1
 800651a:	0064      	lsls	r4, r4, #1
 800651c:	1815      	adds	r5, r2, r0
 800651e:	429d      	cmp	r5, r3
 8006520:	bfde      	ittt	le
 8006522:	182a      	addle	r2, r5, r0
 8006524:	1b5b      	suble	r3, r3, r5
 8006526:	183f      	addle	r7, r7, r0
 8006528:	0fe5      	lsrs	r5, r4, #31
 800652a:	3901      	subs	r1, #1
 800652c:	eb05 0343 	add.w	r3, r5, r3, lsl #1
 8006530:	ea4f 0444 	mov.w	r4, r4, lsl #1
 8006534:	ea4f 0050 	mov.w	r0, r0, lsr #1
 8006538:	d1f0      	bne.n	800651c <__ieee754_sqrt+0xb0>
 800653a:	460d      	mov	r5, r1
 800653c:	2620      	movs	r6, #32
 800653e:	f04f 4000 	mov.w	r0, #2147483648	@ 0x80000000
 8006542:	4293      	cmp	r3, r2
 8006544:	eb00 0c01 	add.w	ip, r0, r1
 8006548:	dc02      	bgt.n	8006550 <__ieee754_sqrt+0xe4>
 800654a:	d113      	bne.n	8006574 <__ieee754_sqrt+0x108>
 800654c:	45a4      	cmp	ip, r4
 800654e:	d811      	bhi.n	8006574 <__ieee754_sqrt+0x108>
 8006550:	f1bc 0f00 	cmp.w	ip, #0
 8006554:	eb0c 0100 	add.w	r1, ip, r0
 8006558:	da3e      	bge.n	80065d8 <__ieee754_sqrt+0x16c>
 800655a:	2900      	cmp	r1, #0
 800655c:	db3c      	blt.n	80065d8 <__ieee754_sqrt+0x16c>
 800655e:	f102 0e01 	add.w	lr, r2, #1
 8006562:	1a9b      	subs	r3, r3, r2
 8006564:	4672      	mov	r2, lr
 8006566:	45a4      	cmp	ip, r4
 8006568:	bf88      	it	hi
 800656a:	f103 33ff 	addhi.w	r3, r3, #4294967295
 800656e:	eba4 040c 	sub.w	r4, r4, ip
 8006572:	4405      	add	r5, r0
 8006574:	ea4f 7cd4 	mov.w	ip, r4, lsr #31
 8006578:	3e01      	subs	r6, #1
 800657a:	eb0c 0343 	add.w	r3, ip, r3, lsl #1
 800657e:	ea4f 0444 	mov.w	r4, r4, lsl #1
 8006582:	ea4f 0050 	mov.w	r0, r0, lsr #1
 8006586:	d1dc      	bne.n	8006542 <__ieee754_sqrt+0xd6>
 8006588:	431c      	orrs	r4, r3
 800658a:	d01a      	beq.n	80065c2 <__ieee754_sqrt+0x156>
 800658c:	4c1e      	ldr	r4, [pc, #120]	@ (8006608 <__ieee754_sqrt+0x19c>)
 800658e:	f8df 907c 	ldr.w	r9, [pc, #124]	@ 800660c <__ieee754_sqrt+0x1a0>
 8006592:	e9d4 0100 	ldrd	r0, r1, [r4]
 8006596:	e9d9 2300 	ldrd	r2, r3, [r9]
 800659a:	f7f9 fde5 	bl	8000168 <__aeabi_dsub>
 800659e:	e9d4 ab00 	ldrd	sl, fp, [r4]
 80065a2:	4602      	mov	r2, r0
 80065a4:	460b      	mov	r3, r1
 80065a6:	4650      	mov	r0, sl
 80065a8:	4659      	mov	r1, fp
 80065aa:	f7fa fa11 	bl	80009d0 <__aeabi_dcmple>
 80065ae:	b140      	cbz	r0, 80065c2 <__ieee754_sqrt+0x156>
 80065b0:	e9d4 0100 	ldrd	r0, r1, [r4]
 80065b4:	e9d9 2300 	ldrd	r2, r3, [r9]
 80065b8:	f1b5 3fff 	cmp.w	r5, #4294967295
 80065bc:	d10e      	bne.n	80065dc <__ieee754_sqrt+0x170>
 80065be:	4635      	mov	r5, r6
 80065c0:	3701      	adds	r7, #1
 80065c2:	107b      	asrs	r3, r7, #1
 80065c4:	f103 537f 	add.w	r3, r3, #1069547520	@ 0x3fc00000
 80065c8:	f503 1300 	add.w	r3, r3, #2097152	@ 0x200000
 80065cc:	eb03 5108 	add.w	r1, r3, r8, lsl #20
 80065d0:	086b      	lsrs	r3, r5, #1
 80065d2:	ea43 70c7 	orr.w	r0, r3, r7, lsl #31
 80065d6:	e75b      	b.n	8006490 <__ieee754_sqrt+0x24>
 80065d8:	4696      	mov	lr, r2
 80065da:	e7c2      	b.n	8006562 <__ieee754_sqrt+0xf6>
 80065dc:	f7f9 fdc6 	bl	800016c <__adddf3>
 80065e0:	e9d4 ab00 	ldrd	sl, fp, [r4]
 80065e4:	4602      	mov	r2, r0
 80065e6:	460b      	mov	r3, r1
 80065e8:	4650      	mov	r0, sl
 80065ea:	4659      	mov	r1, fp
 80065ec:	f7fa f9e6 	bl	80009bc <__aeabi_dcmplt>
 80065f0:	b120      	cbz	r0, 80065fc <__ieee754_sqrt+0x190>
 80065f2:	1cab      	adds	r3, r5, #2
 80065f4:	bf08      	it	eq
 80065f6:	3701      	addeq	r7, #1
 80065f8:	3502      	adds	r5, #2
 80065fa:	e7e2      	b.n	80065c2 <__ieee754_sqrt+0x156>
 80065fc:	1c6b      	adds	r3, r5, #1
 80065fe:	f023 0501 	bic.w	r5, r3, #1
 8006602:	e7de      	b.n	80065c2 <__ieee754_sqrt+0x156>
 8006604:	7ff00000 	.word	0x7ff00000
 8006608:	08006ca0 	.word	0x08006ca0
 800660c:	08006c98 	.word	0x08006c98

08006610 <_init>:
 8006610:	b5f8      	push	{r3, r4, r5, r6, r7, lr}
 8006612:	bf00      	nop
 8006614:	bcf8      	pop	{r3, r4, r5, r6, r7}
 8006616:	bc08      	pop	{r3}
 8006618:	469e      	mov	lr, r3
 800661a:	4770      	bx	lr

0800661c <_fini>:
 800661c:	b5f8      	push	{r3, r4, r5, r6, r7, lr}
 800661e:	bf00      	nop
 8006620:	bcf8      	pop	{r3, r4, r5, r6, r7}
 8006622:	bc08      	pop	{r3}
 8006624:	469e      	mov	lr, r3
 8006626:	4770      	bx	lr
